
========================================================================

** ELF Header Information

    File Name: .\obj\Fw_Ao2022_Meter_v01.axf

    Machine class: ELFCLASS32 (32-bit)
    Data encoding: ELFDATA2LSB (Little endian)
    Header version: EV_CURRENT (Current version)
    Operating System ABI: none
    ABI Version: 0
    File Type: ET_EXEC (Executable) (2)
    Machine: EM_ARM (ARM)

    Image Entry point: 0x000000f1
    Flags: EF_ARM_HASENTRY + EF_ARM_ABI_FLOAT_SOFT (0x05000202)

    ARM ELF revision: 5 (ABI version 2)

    Conforms to Soft float procedure-call standard

    Built with
    Component: ARM Compiler 5.06 update 4 (build 422) Tool: armasm [4d35cf]
    Component: ARM Compiler 5.06 update 4 (build 422) Tool: armlink [4d35d2]

    Header size: 52 bytes (0x34)
    Program header entry size: 32 bytes (0x20)
    Section header entry size: 40 bytes (0x28)

    Program header entries: 1
    Section header entries: 16

    Program header offset: 674896 (0x000a4c50)
    Section header offset: 674928 (0x000a4c70)

    Section header string table index: 15

========================================================================

** Program header #0 (PT_LOAD) [PF_X + PF_W + PF_R + PF_ARM_ENTRY]
    Size : 19984 bytes (17092 bytes in file)
    Virtual address: 0x00000000 (Alignment 8)


========================================================================

** Section #1 'ER_RO' (SHT_PROGBITS) [SHF_ALLOC + SHF_EXECINSTR]
    Size   : 16888 bytes (alignment 4)
    Address: 0x00000000

    $d.realdata
    RESET
    __Vectors
        0x00000000:    20000c18    ...     DCD    536874008
        0x00000004:    000000f1    ....    DCD    241
        0x00000008:    000000f9    ....    DCD    249
        0x0000000c:    000000d5    ....    DCD    213
        0x00000010:    00000000    ....    DCD    0
        0x00000014:    00000000    ....    DCD    0
        0x00000018:    00000000    ....    DCD    0
        0x0000001c:    00000000    ....    DCD    0
        0x00000020:    00000000    ....    DCD    0
        0x00000024:    00000000    ....    DCD    0
        0x00000028:    00000000    ....    DCD    0
        0x0000002c:    000000fd    ....    DCD    253
        0x00000030:    00000000    ....    DCD    0
        0x00000034:    00000000    ....    DCD    0
        0x00000038:    000000ff    ....    DCD    255
        0x0000003c:    00002c69    i,..    DCD    11369
        0x00000040:    00000103    ....    DCD    259
        0x00000044:    00003761    a7..    DCD    14177
        0x00000048:    00000103    ....    DCD    259
        0x0000004c:    00000103    ....    DCD    259
        0x00000050:    00000103    ....    DCD    259
        0x00000054:    00000103    ....    DCD    259
        0x00000058:    00000103    ....    DCD    259
        0x0000005c:    00000103    ....    DCD    259
        0x00000060:    00000103    ....    DCD    259
        0x00000064:    00000103    ....    DCD    259
        0x00000068:    00000103    ....    DCD    259
        0x0000006c:    00000103    ....    DCD    259
        0x00000070:    00002f29    )/..    DCD    12073
        0x00000074:    000031a9    .1..    DCD    12713
        0x00000078:    00000103    ....    DCD    259
        0x0000007c:    00000103    ....    DCD    259
        0x00000080:    00000103    ....    DCD    259
        0x00000084:    00000103    ....    DCD    259
        0x00000088:    00000103    ....    DCD    259
        0x0000008c:    00000103    ....    DCD    259
        0x00000090:    00000103    ....    DCD    259
        0x00000094:    00000103    ....    DCD    259
        0x00000098:    00000103    ....    DCD    259
        0x0000009c:    00000103    ....    DCD    259
        0x000000a0:    00000103    ....    DCD    259
        0x000000a4:    00000103    ....    DCD    259
        0x000000a8:    00000103    ....    DCD    259
        0x000000ac:    00000103    ....    DCD    259
        0x000000b0:    00000103    ....    DCD    259
        0x000000b4:    00000103    ....    DCD    259
        0x000000b8:    00000103    ....    DCD    259
        0x000000bc:    00000103    ....    DCD    259
    $t
    .ARM.Collect$$$$00000000
    .ARM.Collect$$$$00000001
    __main
    _main_stk
        0x000000c0:    4803        .H      LDR      r0,__lit__00000000 ; [0xd0] = 0x20000c18
        0x000000c2:    4685        .F      MOV      sp,r0
    .ARM.Collect$$$$00000004
    _main_scatterload
        0x000000c4:    f000f8c4    ....    BL       __scatterload ; 0x250
    .ARM.Collect$$$$00000008
    .ARM.Collect$$$$0000000A
    .ARM.Collect$$$$0000000B
    __main_after_scatterload
    _main_clock
    _main_cpp_init
    _main_init
        0x000000c8:    4800        .H      LDR      r0,[pc,#0] ; [0xcc] = 0x3c81
        0x000000ca:    4700        .G      BX       r0
    $d
        0x000000cc:    00003c81    .<..    DCD    15489
    .ARM.Collect$$$$00002712
    __lit__00000000
    .ARM.Collect$$$$0000000D
    .ARM.Collect$$$$0000000F
    __rt_final_cpp
    __rt_final_exit
        0x000000d0:    20000c18    ...     DCD    536874008
    $t
    .emb_text
    HardFault_Handler
        0x000000d4:    2004        .       MOVS     r0,#4
        0x000000d6:    4671        qF      MOV      r1,lr
        0x000000d8:    4208        .B      TST      r0,r1
        0x000000da:    d002        ..      BEQ      0xe2 ; HardFault_Handler + 14
        0x000000dc:    f3ef8009    ....    MRS      r0,PSP
        0x000000e0:    e001        ..      B        0xe6 ; HardFault_Handler + 18
        0x000000e2:    f3ef8008    ....    MRS      r0,MSP
        0x000000e6:    4671        qF      MOV      r1,lr
        0x000000e8:    4a00        .J      LDR      r2,[pc,#0] ; [0xec] = 0xf2d
        0x000000ea:    4710        .G      BX       r2
    $d
        0x000000ec:    00000f2d    -...    DCD    3885
    $t
    .text
    Reset_Handler
        0x000000f0:    4804        .H      LDR      r0,[pc,#16] ; [0x104] = 0x2e5d
        0x000000f2:    4780        .G      BLX      r0
        0x000000f4:    4804        .H      LDR      r0,[pc,#16] ; [0x108] = 0xc1
        0x000000f6:    4700        .G      BX       r0
    NMI_Handler
        0x000000f8:    e7fe        ..      B        NMI_Handler ; 0xf8
        0x000000fa:    e7fe        ..      B        0xfa ; NMI_Handler + 2
    SVC_Handler
        0x000000fc:    e7fe        ..      B        SVC_Handler ; 0xfc
    PendSV_Handler
        0x000000fe:    e7fe        ..      B        PendSV_Handler ; 0xfe
        0x00000100:    e7fe        ..      B        0x100 ; PendSV_Handler + 2
    Default_Handler
    ACMP01_IRQHandler
    ADC_IRQHandler
    BOD_IRQHandler
    CLKDIRC_IRQHandler
    EINT024_IRQHandler
    EINT135_IRQHandler
    GPAB_IRQHandler
    GPCDEF_IRQHandler
    I2C0_IRQHandler
    I2C1_IRQHandler
    PDMA_IRQHandler
    PWM0_IRQHandler
    PWM1_IRQHandler
    PWRWU_IRQHandler
    RTC_IRQHandler
    SC01_IRQHandler
    SPI0_IRQHandler
    SPI1_IRQHandler
    TMR0_IRQHandler
    TMR1_IRQHandler
    TMR2_IRQHandler
    TMR3_IRQHandler
    USBD_IRQHandler
    USCI_IRQHandler
        0x00000102:    e7fe        ..      B        Default_Handler ; 0x102
    $d
        0x00000104:    00002e5d    ]...    DCD    11869
        0x00000108:    000000c1    ....    DCD    193
    $t
    .text
    __aeabi_uidiv
    __aeabi_uidivmod
        0x0000010c:    b530        0.      PUSH     {r4,r5,lr}
        0x0000010e:    460b        .F      MOV      r3,r1
        0x00000110:    4601        .F      MOV      r1,r0
        0x00000112:    2000        .       MOVS     r0,#0
        0x00000114:    2220         "      MOVS     r2,#0x20
        0x00000116:    2401        .$      MOVS     r4,#1
        0x00000118:    e009        ..      B        0x12e ; __aeabi_uidiv + 34
        0x0000011a:    460d        .F      MOV      r5,r1
        0x0000011c:    40d5        .@      LSRS     r5,r5,r2
        0x0000011e:    429d        .B      CMP      r5,r3
        0x00000120:    d305        ..      BCC      0x12e ; __aeabi_uidiv + 34
        0x00000122:    461d        .F      MOV      r5,r3
        0x00000124:    4095        .@      LSLS     r5,r5,r2
        0x00000126:    1b49        I.      SUBS     r1,r1,r5
        0x00000128:    4625        %F      MOV      r5,r4
        0x0000012a:    4095        .@      LSLS     r5,r5,r2
        0x0000012c:    1940        @.      ADDS     r0,r0,r5
        0x0000012e:    4615        .F      MOV      r5,r2
        0x00000130:    1e52        R.      SUBS     r2,r2,#1
        0x00000132:    2d00        .-      CMP      r5,#0
        0x00000134:    dcf1        ..      BGT      0x11a ; __aeabi_uidiv + 14
        0x00000136:    bd30        0.      POP      {r4,r5,pc}
    .text
    __aeabi_ui2f
        0x00000138:    b510        ..      PUSH     {r4,lr}
        0x0000013a:    2200        ."      MOVS     r2,#0
        0x0000013c:    2396        .#      MOVS     r3,#0x96
        0x0000013e:    4611        .F      MOV      r1,r2
        0x00000140:    f000f84d    ..M.    BL       _float_epilogue ; 0x1de
        0x00000144:    bd10        ..      POP      {r4,pc}
    .text
    __aeabi_f2uiz
        0x00000146:    0041        A.      LSLS     r1,r0,#1
        0x00000148:    0240        @.      LSLS     r0,r0,#9
        0x0000014a:    2201        ."      MOVS     r2,#1
        0x0000014c:    0a40        @.      LSRS     r0,r0,#9
        0x0000014e:    05d2        ..      LSLS     r2,r2,#23
        0x00000150:    0e09        ..      LSRS     r1,r1,#24
        0x00000152:    1880        ..      ADDS     r0,r0,r2
        0x00000154:    297f        .)      CMP      r1,#0x7f
        0x00000156:    da01        ..      BGE      0x15c ; __aeabi_f2uiz + 22
        0x00000158:    2000        .       MOVS     r0,#0
        0x0000015a:    4770        pG      BX       lr
        0x0000015c:    2996        .)      CMP      r1,#0x96
        0x0000015e:    dc03        ..      BGT      0x168 ; __aeabi_f2uiz + 34
        0x00000160:    2296        ."      MOVS     r2,#0x96
        0x00000162:    1a51        Q.      SUBS     r1,r2,r1
        0x00000164:    40c8        .@      LSRS     r0,r0,r1
        0x00000166:    4770        pG      BX       lr
        0x00000168:    3996        .9      SUBS     r1,r1,#0x96
        0x0000016a:    4088        .@      LSLS     r0,r0,r1
        0x0000016c:    4770        pG      BX       lr
    .text
    __aeabi_uldivmod
        0x0000016e:    b5f0        ..      PUSH     {r4-r7,lr}
        0x00000170:    b41f        ..      PUSH     {r0-r4}
        0x00000172:    4606        .F      MOV      r6,r0
        0x00000174:    2000        .       MOVS     r0,#0
        0x00000176:    b082        ..      SUB      sp,sp,#8
        0x00000178:    4605        .F      MOV      r5,r0
        0x0000017a:    2440        @$      MOVS     r4,#0x40
        0x0000017c:    9101        ..      STR      r1,[sp,#4]
        0x0000017e:    9000        ..      STR      r0,[sp,#0]
        0x00000180:    e01b        ..      B        0x1ba ; __aeabi_uldivmod + 76
        0x00000182:    9901        ..      LDR      r1,[sp,#4]
        0x00000184:    4622        "F      MOV      r2,r4
        0x00000186:    460f        .F      MOV      r7,r1
        0x00000188:    4630        0F      MOV      r0,r6
        0x0000018a:    f000f883    ....    BL       __aeabi_llsr ; 0x294
        0x0000018e:    9a04        ..      LDR      r2,[sp,#0x10]
        0x00000190:    9b05        ..      LDR      r3,[sp,#0x14]
        0x00000192:    1a80        ..      SUBS     r0,r0,r2
        0x00000194:    4199        .A      SBCS     r1,r1,r3
        0x00000196:    d310        ..      BCC      0x1ba ; __aeabi_uldivmod + 76
        0x00000198:    4610        .F      MOV      r0,r2
        0x0000019a:    4619        .F      MOV      r1,r3
        0x0000019c:    4622        "F      MOV      r2,r4
        0x0000019e:    f000f869    ..i.    BL       __aeabi_llsl ; 0x274
        0x000001a2:    1a36        6.      SUBS     r6,r6,r0
        0x000001a4:    418f        .A      SBCS     r7,r7,r1
        0x000001a6:    9701        ..      STR      r7,[sp,#4]
        0x000001a8:    4622        "F      MOV      r2,r4
        0x000001aa:    2001        .       MOVS     r0,#1
        0x000001ac:    2100        .!      MOVS     r1,#0
        0x000001ae:    9f00        ..      LDR      r7,[sp,#0]
        0x000001b0:    f000f860    ..`.    BL       __aeabi_llsl ; 0x274
        0x000001b4:    1838        8.      ADDS     r0,r7,r0
        0x000001b6:    414d        MA      ADCS     r5,r5,r1
        0x000001b8:    9000        ..      STR      r0,[sp,#0]
        0x000001ba:    4620         F      MOV      r0,r4
        0x000001bc:    1e64        d.      SUBS     r4,r4,#1
        0x000001be:    2800        .(      CMP      r0,#0
        0x000001c0:    dcdf        ..      BGT      0x182 ; __aeabi_uldivmod + 20
        0x000001c2:    9b01        ..      LDR      r3,[sp,#4]
        0x000001c4:    9800        ..      LDR      r0,[sp,#0]
        0x000001c6:    4629        )F      MOV      r1,r5
        0x000001c8:    4632        2F      MOV      r2,r6
        0x000001ca:    b007        ..      ADD      sp,sp,#0x1c
        0x000001cc:    bdf0        ..      POP      {r4-r7,pc}
    .text
    .text
    __I$use$fp
    _float_round
        0x000001ce:    2900        .)      CMP      r1,#0
        0x000001d0:    da04        ..      BGE      0x1dc ; __I$use$fp + 14
        0x000001d2:    1c40        @.      ADDS     r0,r0,#1
        0x000001d4:    0049        I.      LSLS     r1,r1,#1
        0x000001d6:    d101        ..      BNE      0x1dc ; __I$use$fp + 14
        0x000001d8:    0840        @.      LSRS     r0,r0,#1
        0x000001da:    0040        @.      LSLS     r0,r0,#1
        0x000001dc:    4770        pG      BX       lr
    _float_epilogue
        0x000001de:    b470        p.      PUSH     {r4-r6}
        0x000001e0:    2400        .$      MOVS     r4,#0
        0x000001e2:    0c05        ..      LSRS     r5,r0,#16
        0x000001e4:    d105        ..      BNE      0x1f2 ; _float_epilogue + 20
        0x000001e6:    2410        .$      MOVS     r4,#0x10
        0x000001e8:    0400        ..      LSLS     r0,r0,#16
        0x000001ea:    d102        ..      BNE      0x1f2 ; _float_epilogue + 20
        0x000001ec:    2900        .)      CMP      r1,#0
        0x000001ee:    d021        !.      BEQ      0x234 ; _float_epilogue + 86
        0x000001f0:    2411        .$      MOVS     r4,#0x11
        0x000001f2:    0e05        ..      LSRS     r5,r0,#24
        0x000001f4:    d101        ..      BNE      0x1fa ; _float_epilogue + 28
        0x000001f6:    0200        ..      LSLS     r0,r0,#8
        0x000001f8:    3408        .4      ADDS     r4,r4,#8
        0x000001fa:    0f05        ..      LSRS     r5,r0,#28
        0x000001fc:    d101        ..      BNE      0x202 ; _float_epilogue + 36
        0x000001fe:    0100        ..      LSLS     r0,r0,#4
        0x00000200:    1d24        $.      ADDS     r4,r4,#4
        0x00000202:    0f85        ..      LSRS     r5,r0,#30
        0x00000204:    d101        ..      BNE      0x20a ; _float_epilogue + 44
        0x00000206:    0080        ..      LSLS     r0,r0,#2
        0x00000208:    1ca4        ..      ADDS     r4,r4,#2
        0x0000020a:    2800        .(      CMP      r0,#0
        0x0000020c:    db01        ..      BLT      0x212 ; _float_epilogue + 52
        0x0000020e:    0040        @.      LSLS     r0,r0,#1
        0x00000210:    1c64        d.      ADDS     r4,r4,#1
        0x00000212:    2900        .)      CMP      r1,#0
        0x00000214:    d008        ..      BEQ      0x228 ; _float_epilogue + 74
        0x00000216:    2520         %      MOVS     r5,#0x20
        0x00000218:    1b2e        ..      SUBS     r6,r5,r4
        0x0000021a:    460d        .F      MOV      r5,r1
        0x0000021c:    40f5        .@      LSRS     r5,r5,r6
        0x0000021e:    40a1        .@      LSLS     r1,r1,r4
        0x00000220:    d000        ..      BEQ      0x224 ; _float_epilogue + 70
        0x00000222:    2101        .!      MOVS     r1,#1
        0x00000224:    4329        )C      ORRS     r1,r1,r5
        0x00000226:    4308        .C      ORRS     r0,r0,r1
        0x00000228:    0601        ..      LSLS     r1,r0,#24
        0x0000022a:    1b1b        ..      SUBS     r3,r3,r4
        0x0000022c:    0a00        ..      LSRS     r0,r0,#8
        0x0000022e:    1ddb        ..      ADDS     r3,r3,#7
        0x00000230:    d502        ..      BPL      0x238 ; _float_epilogue + 90
        0x00000232:    2000        .       MOVS     r0,#0
        0x00000234:    bc70        p.      POP      {r4-r6}
        0x00000236:    4770        pG      BX       lr
        0x00000238:    05db        ..      LSLS     r3,r3,#23
        0x0000023a:    1818        ..      ADDS     r0,r3,r0
        0x0000023c:    1880        ..      ADDS     r0,r0,r2
        0x0000023e:    2900        .)      CMP      r1,#0
        0x00000240:    daf8        ..      BGE      0x234 ; _float_epilogue + 86
        0x00000242:    1c40        @.      ADDS     r0,r0,#1
        0x00000244:    0049        I.      LSLS     r1,r1,#1
        0x00000246:    d1f5        ..      BNE      0x234 ; _float_epilogue + 86
        0x00000248:    bc70        p.      POP      {r4-r6}
        0x0000024a:    0840        @.      LSRS     r0,r0,#1
        0x0000024c:    0040        @.      LSLS     r0,r0,#1
        0x0000024e:    4770        pG      BX       lr
    .text
    __scatterload
    __scatterload_rt2
        0x00000250:    4c06        .L      LDR      r4,[pc,#24] ; [0x26c] = 0x41d8
        0x00000252:    2501        .%      MOVS     r5,#1
        0x00000254:    4e06        .N      LDR      r6,[pc,#24] ; [0x270] = 0x41f8
        0x00000256:    e005        ..      B        0x264 ; __scatterload + 20
        0x00000258:    68e3        .h      LDR      r3,[r4,#0xc]
        0x0000025a:    cc07        ..      LDM      r4!,{r0-r2}
        0x0000025c:    432b        +C      ORRS     r3,r3,r5
        0x0000025e:    3c0c        .<      SUBS     r4,r4,#0xc
        0x00000260:    4798        .G      BLX      r3
        0x00000262:    3410        .4      ADDS     r4,r4,#0x10
        0x00000264:    42b4        .B      CMP      r4,r6
        0x00000266:    d3f7        ..      BCC      0x258 ; __scatterload + 8
        0x00000268:    f7ffff2e    ....    BL       __main_after_scatterload ; 0xc8
    $d
        0x0000026c:    000041d8    .A..    DCD    16856
        0x00000270:    000041f8    .A..    DCD    16888
    $t
    .text
    __aeabi_llsl
    _ll_shift_l
        0x00000274:    b510        ..      PUSH     {r4,lr}
        0x00000276:    2a20         *      CMP      r2,#0x20
        0x00000278:    db04        ..      BLT      0x284 ; __aeabi_llsl + 16
        0x0000027a:    4601        .F      MOV      r1,r0
        0x0000027c:    3a20         :      SUBS     r2,r2,#0x20
        0x0000027e:    4091        .@      LSLS     r1,r1,r2
        0x00000280:    2000        .       MOVS     r0,#0
        0x00000282:    bd10        ..      POP      {r4,pc}
        0x00000284:    4091        .@      LSLS     r1,r1,r2
        0x00000286:    2320         #      MOVS     r3,#0x20
        0x00000288:    1a9c        ..      SUBS     r4,r3,r2
        0x0000028a:    4603        .F      MOV      r3,r0
        0x0000028c:    40e3        .@      LSRS     r3,r3,r4
        0x0000028e:    4319        .C      ORRS     r1,r1,r3
        0x00000290:    4090        .@      LSLS     r0,r0,r2
        0x00000292:    bd10        ..      POP      {r4,pc}
    .text
    __aeabi_llsr
    _ll_ushift_r
        0x00000294:    b510        ..      PUSH     {r4,lr}
        0x00000296:    2a20         *      CMP      r2,#0x20
        0x00000298:    db04        ..      BLT      0x2a4 ; __aeabi_llsr + 16
        0x0000029a:    4608        .F      MOV      r0,r1
        0x0000029c:    3a20         :      SUBS     r2,r2,#0x20
        0x0000029e:    40d0        .@      LSRS     r0,r0,r2
        0x000002a0:    2100        .!      MOVS     r1,#0
        0x000002a2:    bd10        ..      POP      {r4,pc}
        0x000002a4:    460b        .F      MOV      r3,r1
        0x000002a6:    40d3        .@      LSRS     r3,r3,r2
        0x000002a8:    40d0        .@      LSRS     r0,r0,r2
        0x000002aa:    2420         $      MOVS     r4,#0x20
        0x000002ac:    1aa2        ..      SUBS     r2,r4,r2
        0x000002ae:    4091        .@      LSLS     r1,r1,r2
        0x000002b0:    4308        .C      ORRS     r0,r0,r1
        0x000002b2:    4619        .F      MOV      r1,r3
        0x000002b4:    bd10        ..      POP      {r4,pc}
    i.AO2022_MeterModule_1261_init
    AO2022_MeterModule_1261_init
        0x000002b6:    b500        ..      PUSH     {lr}
        0x000002b8:    f000f816    ....    BL       AO2022_MeterModule_1261_init_ice ; 0x2e8
        0x000002bc:    f000f822    ..".    BL       AO2022_MeterModule_1261_init_pa ; 0x304
        0x000002c0:    f000f829    ..).    BL       AO2022_MeterModule_1261_init_pb ; 0x316
        0x000002c4:    f000f830    ..0.    BL       AO2022_MeterModule_1261_init_pc ; 0x328
        0x000002c8:    f000f83a    ..:.    BL       AO2022_MeterModule_1261_init_pd ; 0x340
        0x000002cc:    f000f844    ..D.    BL       AO2022_MeterModule_1261_init_pe ; 0x358
        0x000002d0:    f000f84c    ..L.    BL       AO2022_MeterModule_1261_init_pf ; 0x36c
        0x000002d4:    f000f856    ..V.    BL       AO2022_MeterModule_1261_init_uart0 ; 0x384
        0x000002d8:    f000f860    ..`.    BL       AO2022_MeterModule_1261_init_uart1 ; 0x39c
        0x000002dc:    f000f86c    ..l.    BL       AO2022_MeterModule_1261_init_uart2 ; 0x3b8
        0x000002e0:    f000f878    ..x.    BL       AO2022_MeterModule_1261_init_x32 ; 0x3d4
        0x000002e4:    bd00        ..      POP      {pc}
        0x000002e6:    0000        ..      MOVS     r0,r0
    i.AO2022_MeterModule_1261_init_ice
    AO2022_MeterModule_1261_init_ice
        0x000002e8:    4805        .H      LDR      r0,[pc,#20] ; [0x300] = 0x50000040
        0x000002ea:    6901        .i      LDR      r1,[r0,#0x10]
        0x000002ec:    0209        ..      LSLS     r1,r1,#8
        0x000002ee:    0a09        ..      LSRS     r1,r1,#8
        0x000002f0:    6101        .a      STR      r1,[r0,#0x10]
        0x000002f2:    6901        .i      LDR      r1,[r0,#0x10]
        0x000002f4:    2211        ."      MOVS     r2,#0x11
        0x000002f6:    0612        ..      LSLS     r2,r2,#24
        0x000002f8:    4311        .C      ORRS     r1,r1,r2
        0x000002fa:    6101        .a      STR      r1,[r0,#0x10]
        0x000002fc:    4770        pG      BX       lr
    $d
        0x000002fe:    0000        ..      DCW    0
        0x00000300:    50000040    @..P    DCD    1342177344
    $t
    i.AO2022_MeterModule_1261_init_pa
    AO2022_MeterModule_1261_init_pa
        0x00000304:    2005        .       MOVS     r0,#5
        0x00000306:    0700        ..      LSLS     r0,r0,#28
        0x00000308:    6b01        .k      LDR      r1,[r0,#0x30]
        0x0000030a:    0c09        ..      LSRS     r1,r1,#16
        0x0000030c:    0409        ..      LSLS     r1,r1,#16
        0x0000030e:    6301        .c      STR      r1,[r0,#0x30]
        0x00000310:    6b01        .k      LDR      r1,[r0,#0x30]
        0x00000312:    6301        .c      STR      r1,[r0,#0x30]
        0x00000314:    4770        pG      BX       lr
    i.AO2022_MeterModule_1261_init_pb
    AO2022_MeterModule_1261_init_pb
        0x00000316:    2005        .       MOVS     r0,#5
        0x00000318:    0700        ..      LSLS     r0,r0,#28
        0x0000031a:    6b81        .k      LDR      r1,[r0,#0x38]
        0x0000031c:    2100        .!      MOVS     r1,#0
        0x0000031e:    6381        .c      STR      r1,[r0,#0x38]
        0x00000320:    6b81        .k      LDR      r1,[r0,#0x38]
        0x00000322:    6381        .c      STR      r1,[r0,#0x38]
        0x00000324:    4770        pG      BX       lr
        0x00000326:    0000        ..      MOVS     r0,r0
    i.AO2022_MeterModule_1261_init_pc
    AO2022_MeterModule_1261_init_pc
        0x00000328:    4804        .H      LDR      r0,[pc,#16] ; [0x33c] = 0x50000040
        0x0000032a:    6801        .h      LDR      r1,[r0,#0]
        0x0000032c:    220f        ."      MOVS     r2,#0xf
        0x0000032e:    0412        ..      LSLS     r2,r2,#16
        0x00000330:    4391        .C      BICS     r1,r1,r2
        0x00000332:    6001        .`      STR      r1,[r0,#0]
        0x00000334:    6801        .h      LDR      r1,[r0,#0]
        0x00000336:    6001        .`      STR      r1,[r0,#0]
        0x00000338:    4770        pG      BX       lr
    $d
        0x0000033a:    0000        ..      DCW    0
        0x0000033c:    50000040    @..P    DCD    1342177344
    $t
    i.AO2022_MeterModule_1261_init_pd
    AO2022_MeterModule_1261_init_pd
        0x00000340:    4803        .H      LDR      r0,[pc,#12] ; [0x350] = 0x50000040
        0x00000342:    6881        .h      LDR      r1,[r0,#8]
        0x00000344:    4a03        .J      LDR      r2,[pc,#12] ; [0x354] = 0xfff00ff
        0x00000346:    4011        .@      ANDS     r1,r1,r2
        0x00000348:    6081        .`      STR      r1,[r0,#8]
        0x0000034a:    6881        .h      LDR      r1,[r0,#8]
        0x0000034c:    6081        .`      STR      r1,[r0,#8]
        0x0000034e:    4770        pG      BX       lr
    $d
        0x00000350:    50000040    @..P    DCD    1342177344
        0x00000354:    0fff00ff    ....    DCD    268370175
    $t
    i.AO2022_MeterModule_1261_init_pe
    AO2022_MeterModule_1261_init_pe
        0x00000358:    4803        .H      LDR      r0,[pc,#12] ; [0x368] = 0x50000040
        0x0000035a:    6901        .i      LDR      r1,[r0,#0x10]
        0x0000035c:    0909        ..      LSRS     r1,r1,#4
        0x0000035e:    0109        ..      LSLS     r1,r1,#4
        0x00000360:    6101        .a      STR      r1,[r0,#0x10]
        0x00000362:    6901        .i      LDR      r1,[r0,#0x10]
        0x00000364:    6101        .a      STR      r1,[r0,#0x10]
        0x00000366:    4770        pG      BX       lr
    $d
        0x00000368:    50000040    @..P    DCD    1342177344
    $t
    i.AO2022_MeterModule_1261_init_pf
    AO2022_MeterModule_1261_init_pf
        0x0000036c:    4803        .H      LDR      r0,[pc,#12] ; [0x37c] = 0x50000040
        0x0000036e:    6981        .i      LDR      r1,[r0,#0x18]
        0x00000370:    4a03        .J      LDR      r2,[pc,#12] ; [0x380] = 0xff000ff
        0x00000372:    4011        .@      ANDS     r1,r1,r2
        0x00000374:    6181        .a      STR      r1,[r0,#0x18]
        0x00000376:    6981        .i      LDR      r1,[r0,#0x18]
        0x00000378:    6181        .a      STR      r1,[r0,#0x18]
        0x0000037a:    4770        pG      BX       lr
    $d
        0x0000037c:    50000040    @..P    DCD    1342177344
        0x00000380:    0ff000ff    ....    DCD    267387135
    $t
    i.AO2022_MeterModule_1261_init_uart0
    AO2022_MeterModule_1261_init_uart0
        0x00000384:    4804        .H      LDR      r0,[pc,#16] ; [0x398] = 0x50000040
        0x00000386:    6881        .h      LDR      r1,[r0,#8]
        0x00000388:    0a09        ..      LSRS     r1,r1,#8
        0x0000038a:    0209        ..      LSLS     r1,r1,#8
        0x0000038c:    6081        .`      STR      r1,[r0,#8]
        0x0000038e:    6881        .h      LDR      r1,[r0,#8]
        0x00000390:    2233        3"      MOVS     r2,#0x33
        0x00000392:    4311        .C      ORRS     r1,r1,r2
        0x00000394:    6081        .`      STR      r1,[r0,#8]
        0x00000396:    4770        pG      BX       lr
    $d
        0x00000398:    50000040    @..P    DCD    1342177344
    $t
    i.AO2022_MeterModule_1261_init_uart1
    AO2022_MeterModule_1261_init_uart1
        0x0000039c:    4805        .H      LDR      r0,[pc,#20] ; [0x3b4] = 0x50000040
        0x0000039e:    6941        Ai      LDR      r1,[r0,#0x14]
        0x000003a0:    22ff        ."      MOVS     r2,#0xff
        0x000003a2:    0412        ..      LSLS     r2,r2,#16
        0x000003a4:    4391        .C      BICS     r1,r1,r2
        0x000003a6:    6141        Aa      STR      r1,[r0,#0x14]
        0x000003a8:    6941        Ai      LDR      r1,[r0,#0x14]
        0x000003aa:    2233        3"      MOVS     r2,#0x33
        0x000003ac:    0412        ..      LSLS     r2,r2,#16
        0x000003ae:    4311        .C      ORRS     r1,r1,r2
        0x000003b0:    6141        Aa      STR      r1,[r0,#0x14]
        0x000003b2:    4770        pG      BX       lr
    $d
        0x000003b4:    50000040    @..P    DCD    1342177344
    $t
    i.AO2022_MeterModule_1261_init_uart2
    AO2022_MeterModule_1261_init_uart2
        0x000003b8:    4805        .H      LDR      r0,[pc,#20] ; [0x3d0] = 0x50000040
        0x000003ba:    6801        .h      LDR      r1,[r0,#0]
        0x000003bc:    22ff        ."      MOVS     r2,#0xff
        0x000003be:    0212        ..      LSLS     r2,r2,#8
        0x000003c0:    4391        .C      BICS     r1,r1,r2
        0x000003c2:    6001        .`      STR      r1,[r0,#0]
        0x000003c4:    6801        .h      LDR      r1,[r0,#0]
        0x000003c6:    2233        3"      MOVS     r2,#0x33
        0x000003c8:    0212        ..      LSLS     r2,r2,#8
        0x000003ca:    4311        .C      ORRS     r1,r1,r2
        0x000003cc:    6001        .`      STR      r1,[r0,#0]
        0x000003ce:    4770        pG      BX       lr
    $d
        0x000003d0:    50000040    @..P    DCD    1342177344
    $t
    i.AO2022_MeterModule_1261_init_x32
    AO2022_MeterModule_1261_init_x32
        0x000003d4:    4804        .H      LDR      r0,[pc,#16] ; [0x3e8] = 0x50000040
        0x000003d6:    6981        .i      LDR      r1,[r0,#0x18]
        0x000003d8:    0a09        ..      LSRS     r1,r1,#8
        0x000003da:    0209        ..      LSLS     r1,r1,#8
        0x000003dc:    6181        .a      STR      r1,[r0,#0x18]
        0x000003de:    6981        .i      LDR      r1,[r0,#0x18]
        0x000003e0:    2211        ."      MOVS     r2,#0x11
        0x000003e2:    4311        .C      ORRS     r1,r1,r2
        0x000003e4:    6181        .a      STR      r1,[r0,#0x18]
        0x000003e6:    4770        pG      BX       lr
    $d
        0x000003e8:    50000040    @..P    DCD    1342177344
    $t
    i.CLK_DisablePLL
    CLK_DisablePLL
        0x000003ec:    4802        .H      LDR      r0,[pc,#8] ; [0x3f8] = 0x50000200
        0x000003ee:    6a01        .j      LDR      r1,[r0,#0x20]
        0x000003f0:    01c2        ..      LSLS     r2,r0,#7
        0x000003f2:    4311        .C      ORRS     r1,r1,r2
        0x000003f4:    6201        .b      STR      r1,[r0,#0x20]
        0x000003f6:    4770        pG      BX       lr
    $d
        0x000003f8:    50000200    ...P    DCD    1342177792
    $t
    i.CLK_EnableModuleClock
    CLK_EnableModuleClock
        0x000003fc:    b50e        ..      PUSH     {r1-r3,lr}
        0x000003fe:    4909        .I      LDR      r1,[pc,#36] ; [0x424] = 0x41c0
        0x00000400:    c90e        ..      LDM      r1,{r1-r3}
        0x00000402:    9100        ..      STR      r1,[sp,#0]
        0x00000404:    9201        ..      STR      r2,[sp,#4]
        0x00000406:    0f81        ..      LSRS     r1,r0,#30
        0x00000408:    008a        ..      LSLS     r2,r1,#2
        0x0000040a:    9302        ..      STR      r3,[sp,#8]
        0x0000040c:    4669        iF      MOV      r1,sp
        0x0000040e:    588a        .X      LDR      r2,[r1,r2]
        0x00000410:    4905        .I      LDR      r1,[pc,#20] ; [0x428] = 0x50000200
        0x00000412:    1851        Q.      ADDS     r1,r2,r1
        0x00000414:    684a        Jh      LDR      r2,[r1,#4]
        0x00000416:    06c3        ..      LSLS     r3,r0,#27
        0x00000418:    0edb        ..      LSRS     r3,r3,#27
        0x0000041a:    2001        .       MOVS     r0,#1
        0x0000041c:    4098        .@      LSLS     r0,r0,r3
        0x0000041e:    4302        .C      ORRS     r2,r2,r0
        0x00000420:    604a        J`      STR      r2,[r1,#4]
        0x00000422:    bd0e        ..      POP      {r1-r3,pc}
    $d
        0x00000424:    000041c0    .A..    DCD    16832
        0x00000428:    50000200    ...P    DCD    1342177792
    $t
    i.CLK_EnablePLL
    CLK_EnablePLL
        0x0000042c:    b5f0        ..      PUSH     {r4-r7,lr}
        0x0000042e:    b085        ..      SUB      sp,sp,#0x14
        0x00000430:    460c        .F      MOV      r4,r1
        0x00000432:    4607        .F      MOV      r7,r0
        0x00000434:    f7ffffda    ....    BL       CLK_DisablePLL ; 0x3ec
        0x00000438:    4855        UH      LDR      r0,[pc,#340] ; [0x590] = 0x50000200
        0x0000043a:    4e54        TN      LDR      r6,[pc,#336] ; [0x58c] = 0xb71b00
        0x0000043c:    6801        .h      LDR      r1,[r0,#0]
        0x0000043e:    2f00        ./      CMP      r7,#0
        0x00000440:    d013        ..      BEQ      0x46a ; CLK_EnablePLL + 62
        0x00000442:    2204        ."      MOVS     r2,#4
        0x00000444:    4311        .C      ORRS     r1,r1,r2
        0x00000446:    6001        .`      STR      r1,[r0,#0]
        0x00000448:    2010        .       MOVS     r0,#0x10
        0x0000044a:    f000f999    ....    BL       CLK_WaitClockReady ; 0x780
        0x0000044e:    2001        .       MOVS     r0,#1
        0x00000450:    04c0        ..      LSLS     r0,r0,#19
        0x00000452:    9002        ..      STR      r0,[sp,#8]
        0x00000454:    484f        OH      LDR      r0,[pc,#316] ; [0x594] = 0x1518000
        0x00000456:    2504        .%      MOVS     r5,#4
        0x00000458:    9003        ..      STR      r0,[sp,#0xc]
        0x0000045a:    484f        OH      LDR      r0,[pc,#316] ; [0x598] = 0xfa0a1eff
        0x0000045c:    494f        OI      LDR      r1,[pc,#316] ; [0x59c] = 0x5f5e0ff
        0x0000045e:    1820         .      ADDS     r0,r4,r0
        0x00000460:    4288        .B      CMP      r0,r1
        0x00000462:    d80d        ..      BHI      0x480 ; CLK_EnablePLL + 84
        0x00000464:    2000        .       MOVS     r0,#0
        0x00000466:    9004        ..      STR      r0,[sp,#0x10]
        0x00000468:    e01c        ..      B        0x4a4 ; CLK_EnablePLL + 120
        0x0000046a:    2201        ."      MOVS     r2,#1
        0x0000046c:    4311        .C      ORRS     r1,r1,r2
        0x0000046e:    6001        .`      STR      r1,[r0,#0]
        0x00000470:    4610        .F      MOV      r0,r2
        0x00000472:    f000f985    ....    BL       CLK_WaitClockReady ; 0x780
        0x00000476:    2000        .       MOVS     r0,#0
        0x00000478:    2502        .%      MOVS     r5,#2
        0x0000047a:    9603        ..      STR      r6,[sp,#0xc]
        0x0000047c:    9002        ..      STR      r0,[sp,#8]
        0x0000047e:    e7ec        ..      B        0x45a ; CLK_EnablePLL + 46
        0x00000480:    4847        GH      LDR      r0,[pc,#284] ; [0x5a0] = 0xfd050f7f
        0x00000482:    4948        HI      LDR      r1,[pc,#288] ; [0x5a4] = 0x2faf07f
        0x00000484:    1820         .      ADDS     r0,r4,r0
        0x00000486:    4288        .B      CMP      r0,r1
        0x00000488:    d803        ..      BHI      0x492 ; CLK_EnablePLL + 102
        0x0000048a:    2001        .       MOVS     r0,#1
        0x0000048c:    0064        d.      LSLS     r4,r4,#1
        0x0000048e:    9004        ..      STR      r0,[sp,#0x10]
        0x00000490:    e008        ..      B        0x4a4 ; CLK_EnablePLL + 120
        0x00000492:    4845        EH      LDR      r0,[pc,#276] ; [0x5a8] = 0xfe8287c0
        0x00000494:    4944        DI      LDR      r1,[pc,#272] ; [0x5a8] = 0xfe8287c0
        0x00000496:    1820         .      ADDS     r0,r4,r0
        0x00000498:    4249        IB      RSBS     r1,r1,#0
        0x0000049a:    4288        .B      CMP      r0,r1
        0x0000049c:    d849        I.      BHI      0x532 ; CLK_EnablePLL + 262
        0x0000049e:    2003        .       MOVS     r0,#3
        0x000004a0:    00a4        ..      LSLS     r4,r4,#2
        0x000004a2:    9004        ..      STR      r0,[sp,#0x10]
        0x000004a4:    2600        .&      MOVS     r6,#0
        0x000004a6:    43f6        .C      MVNS     r6,r6
        0x000004a8:    2000        .       MOVS     r0,#0
        0x000004aa:    9000        ..      STR      r0,[sp,#0]
        0x000004ac:    9001        ..      STR      r0,[sp,#4]
        0x000004ae:    e021        !.      B        0x4f4 ; CLK_EnablePLL + 200
        0x000004b0:    4629        )F      MOV      r1,r5
        0x000004b2:    9803        ..      LDR      r0,[sp,#0xc]
        0x000004b4:    f7fffe2a    ..*.    BL       __aeabi_uidiv ; 0x10c
        0x000004b8:    493c        <I      LDR      r1,[pc,#240] ; [0x5ac] = 0xffe795ff
        0x000004ba:    4a3d        =J      LDR      r2,[pc,#244] ; [0x5b0] = 0xdbb9ff
        0x000004bc:    1841        A.      ADDS     r1,r0,r1
        0x000004be:    4291        .B      CMP      r1,r2
        0x000004c0:    d217        ..      BCS      0x4f2 ; CLK_EnablePLL + 198
        0x000004c2:    2202        ."      MOVS     r2,#2
        0x000004c4:    4b34        4K      LDR      r3,[pc,#208] ; [0x598] = 0xfa0a1eff
        0x000004c6:    4601        .F      MOV      r1,r0
        0x000004c8:    4351        QC      MULS     r1,r2,r1
        0x000004ca:    1c5b        [.      ADDS     r3,r3,#1
        0x000004cc:    18cf        ..      ADDS     r7,r1,r3
        0x000004ce:    425b        [B      RSBS     r3,r3,#0
        0x000004d0:    429f        .B      CMP      r7,r3
        0x000004d2:    d80a        ..      BHI      0x4ea ; CLK_EnablePLL + 190
        0x000004d4:    42a1        .B      CMP      r1,r4
        0x000004d6:    d901        ..      BLS      0x4dc ; CLK_EnablePLL + 176
        0x000004d8:    1b0b        ..      SUBS     r3,r1,r4
        0x000004da:    e000        ..      B        0x4de ; CLK_EnablePLL + 178
        0x000004dc:    1a63        c.      SUBS     r3,r4,r1
        0x000004de:    42b3        .B      CMP      r3,r6
        0x000004e0:    d203        ..      BCS      0x4ea ; CLK_EnablePLL + 190
        0x000004e2:    001e        ..      MOVS     r6,r3
        0x000004e4:    9500        ..      STR      r5,[sp,#0]
        0x000004e6:    9201        ..      STR      r2,[sp,#4]
        0x000004e8:    d003        ..      BEQ      0x4f2 ; CLK_EnablePLL + 198
        0x000004ea:    4932        2I      LDR      r1,[pc,#200] ; [0x5b4] = 0x201
        0x000004ec:    1c52        R.      ADDS     r2,r2,#1
        0x000004ee:    428a        .B      CMP      r2,r1
        0x000004f0:    d9e8        ..      BLS      0x4c4 ; CLK_EnablePLL + 152
        0x000004f2:    1c6d        m.      ADDS     r5,r5,#1
        0x000004f4:    2d21        !-      CMP      r5,#0x21
        0x000004f6:    d9db        ..      BLS      0x4b0 ; CLK_EnablePLL + 132
        0x000004f8:    9804        ..      LDR      r0,[sp,#0x10]
        0x000004fa:    9902        ..      LDR      r1,[sp,#8]
        0x000004fc:    0380        ..      LSLS     r0,r0,#14
        0x000004fe:    4308        .C      ORRS     r0,r0,r1
        0x00000500:    9900        ..      LDR      r1,[sp,#0]
        0x00000502:    2201        ."      MOVS     r2,#1
        0x00000504:    0249        I.      LSLS     r1,r1,#9
        0x00000506:    0292        ..      LSLS     r2,r2,#10
        0x00000508:    1a89        ..      SUBS     r1,r1,r2
        0x0000050a:    4308        .C      ORRS     r0,r0,r1
        0x0000050c:    9901        ..      LDR      r1,[sp,#4]
        0x0000050e:    1e89        ..      SUBS     r1,r1,#2
        0x00000510:    4308        .C      ORRS     r0,r0,r1
        0x00000512:    491f        .I      LDR      r1,[pc,#124] ; [0x590] = 0x50000200
        0x00000514:    6208        .b      STR      r0,[r1,#0x20]
        0x00000516:    2004        .       MOVS     r0,#4
        0x00000518:    f000f932    ..2.    BL       CLK_WaitClockReady ; 0x780
        0x0000051c:    9904        ..      LDR      r1,[sp,#0x10]
        0x0000051e:    9800        ..      LDR      r0,[sp,#0]
        0x00000520:    1c49        I.      ADDS     r1,r1,#1
        0x00000522:    4341        AC      MULS     r1,r0,r1
        0x00000524:    9803        ..      LDR      r0,[sp,#0xc]
        0x00000526:    f7fffdf1    ....    BL       __aeabi_uidiv ; 0x10c
        0x0000052a:    9901        ..      LDR      r1,[sp,#4]
        0x0000052c:    4348        HC      MULS     r0,r1,r0
        0x0000052e:    b005        ..      ADD      sp,sp,#0x14
        0x00000530:    bdf0        ..      POP      {r4-r7,pc}
        0x00000532:    2f00        ./      CMP      r7,#0
        0x00000534:    d00f        ..      BEQ      0x556 ; CLK_EnablePLL + 298
        0x00000536:    4920         I      LDR      r1,[pc,#128] ; [0x5b8] = 0x84c32
        0x00000538:    4815        .H      LDR      r0,[pc,#84] ; [0x590] = 0x50000200
        0x0000053a:    6201        .b      STR      r1,[r0,#0x20]
        0x0000053c:    2004        .       MOVS     r0,#4
        0x0000053e:    f000f91f    ....    BL       CLK_WaitClockReady ; 0x780
        0x00000542:    a01e        ..      ADR      r0,{pc}+0x7a ; 0x5bc
        0x00000544:    6800        .h      LDR      r0,[r0,#0]
        0x00000546:    9000        ..      STR      r0,[sp,#0]
        0x00000548:    4811        .H      LDR      r0,[pc,#68] ; [0x590] = 0x50000200
        0x0000054a:    6a01        .j      LDR      r1,[r0,#0x20]
        0x0000054c:    1300        ..      ASRS     r0,r0,#12
        0x0000054e:    4201        .B      TST      r1,r0
        0x00000550:    d003        ..      BEQ      0x55a ; CLK_EnablePLL + 302
        0x00000552:    2000        .       MOVS     r0,#0
        0x00000554:    e7eb        ..      B        0x52e ; CLK_EnablePLL + 258
        0x00000556:    491a        .I      LDR      r1,[pc,#104] ; [0x5c0] = 0x442e
        0x00000558:    e7ee        ..      B        0x538 ; CLK_EnablePLL + 268
        0x0000055a:    0308        ..      LSLS     r0,r1,#12
        0x0000055c:    d500        ..      BPL      0x560 ; CLK_EnablePLL + 308
        0x0000055e:    4e0d        .N      LDR      r6,[pc,#52] ; [0x594] = 0x1518000
        0x00000560:    0388        ..      LSLS     r0,r1,#14
        0x00000562:    d501        ..      BPL      0x568 ; CLK_EnablePLL + 316
        0x00000564:    4630        0F      MOV      r0,r6
        0x00000566:    e7e2        ..      B        0x52e ; CLK_EnablePLL + 258
        0x00000568:    0408        ..      LSLS     r0,r1,#16
        0x0000056a:    0f80        ..      LSRS     r0,r0,#30
        0x0000056c:    466a        jF      MOV      r2,sp
        0x0000056e:    5c10        .\      LDRB     r0,[r2,r0]
        0x00000570:    05ca        ..      LSLS     r2,r1,#23
        0x00000572:    0489        ..      LSLS     r1,r1,#18
        0x00000574:    0ec9        ..      LSRS     r1,r1,#27
        0x00000576:    1c89        ..      ADDS     r1,r1,#2
        0x00000578:    0dd2        ..      LSRS     r2,r2,#23
        0x0000057a:    4341        AC      MULS     r1,r0,r1
        0x0000057c:    08b0        ..      LSRS     r0,r6,#2
        0x0000057e:    1c92        ..      ADDS     r2,r2,#2
        0x00000580:    4350        PC      MULS     r0,r2,r0
        0x00000582:    f7fffdc3    ....    BL       __aeabi_uidiv ; 0x10c
        0x00000586:    0080        ..      LSLS     r0,r0,#2
        0x00000588:    e7d1        ..      B        0x52e ; CLK_EnablePLL + 258
    $d
        0x0000058a:    0000        ..      DCW    0
        0x0000058c:    00b71b00    ....    DCD    12000000
        0x00000590:    50000200    ...P    DCD    1342177792
        0x00000594:    01518000    ..Q.    DCD    22118400
        0x00000598:    fa0a1eff    ....    DCD    4194967295
        0x0000059c:    05f5e0ff    ....    DCD    99999999
        0x000005a0:    fd050f7f    ....    DCD    4244967295
        0x000005a4:    02faf07f    ....    DCD    49999999
        0x000005a8:    fe8287c0    ....    DCD    4269967296
        0x000005ac:    ffe795ff    ....    DCD    4293367295
        0x000005b0:    00dbb9ff    ....    DCD    14399999
        0x000005b4:    00000201    ....    DCD    513
        0x000005b8:    00084c32    2L..    DCD    543794
        0x000005bc:    04020201    ....    DCD    67240449
        0x000005c0:    0000442e    .D..    DCD    17454
    $t
    i.CLK_EnableXtalRC
    CLK_EnableXtalRC
        0x000005c4:    4902        .I      LDR      r1,[pc,#8] ; [0x5d0] = 0x50000200
        0x000005c6:    680a        .h      LDR      r2,[r1,#0]
        0x000005c8:    4302        .C      ORRS     r2,r2,r0
        0x000005ca:    600a        .`      STR      r2,[r1,#0]
        0x000005cc:    4770        pG      BX       lr
    $d
        0x000005ce:    0000        ..      DCW    0
        0x000005d0:    50000200    ...P    DCD    1342177792
    $t
    i.CLK_GetPLLClockFreq
    CLK_GetPLLClockFreq
        0x000005d4:    b508        ..      PUSH     {r3,lr}
        0x000005d6:    a011        ..      ADR      r0,{pc}+0x46 ; 0x61c
        0x000005d8:    6800        .h      LDR      r0,[r0,#0]
        0x000005da:    9000        ..      STR      r0,[sp,#0]
        0x000005dc:    4810        .H      LDR      r0,[pc,#64] ; [0x620] = 0x50000200
        0x000005de:    6a01        .j      LDR      r1,[r0,#0x20]
        0x000005e0:    1300        ..      ASRS     r0,r0,#12
        0x000005e2:    4201        .B      TST      r1,r0
        0x000005e4:    d001        ..      BEQ      0x5ea ; CLK_GetPLLClockFreq + 22
        0x000005e6:    2000        .       MOVS     r0,#0
        0x000005e8:    bd08        ..      POP      {r3,pc}
        0x000005ea:    0308        ..      LSLS     r0,r1,#12
        0x000005ec:    d501        ..      BPL      0x5f2 ; CLK_GetPLLClockFreq + 30
        0x000005ee:    480d        .H      LDR      r0,[pc,#52] ; [0x624] = 0x1518000
        0x000005f0:    e000        ..      B        0x5f4 ; CLK_GetPLLClockFreq + 32
        0x000005f2:    480d        .H      LDR      r0,[pc,#52] ; [0x628] = 0xb71b00
        0x000005f4:    038a        ..      LSLS     r2,r1,#14
        0x000005f6:    d4f7        ..      BMI      0x5e8 ; CLK_GetPLLClockFreq + 20
        0x000005f8:    040a        ..      LSLS     r2,r1,#16
        0x000005fa:    0f92        ..      LSRS     r2,r2,#30
        0x000005fc:    466b        kF      MOV      r3,sp
        0x000005fe:    5c9b        .\      LDRB     r3,[r3,r2]
        0x00000600:    05ca        ..      LSLS     r2,r1,#23
        0x00000602:    0489        ..      LSLS     r1,r1,#18
        0x00000604:    0dd2        ..      LSRS     r2,r2,#23
        0x00000606:    0ec9        ..      LSRS     r1,r1,#27
        0x00000608:    1c89        ..      ADDS     r1,r1,#2
        0x0000060a:    0880        ..      LSRS     r0,r0,#2
        0x0000060c:    1c92        ..      ADDS     r2,r2,#2
        0x0000060e:    4359        YC      MULS     r1,r3,r1
        0x00000610:    4350        PC      MULS     r0,r2,r0
        0x00000612:    f7fffd7b    ..{.    BL       __aeabi_uidiv ; 0x10c
        0x00000616:    0080        ..      LSLS     r0,r0,#2
        0x00000618:    bd08        ..      POP      {r3,pc}
    $d
        0x0000061a:    0000        ..      DCW    0
        0x0000061c:    04020201    ....    DCD    67240449
        0x00000620:    50000200    ...P    DCD    1342177792
        0x00000624:    01518000    ..Q.    DCD    22118400
        0x00000628:    00b71b00    ....    DCD    12000000
    $t
    i.CLK_SetCoreClock
    CLK_SetCoreClock
        0x0000062c:    b5f8        ..      PUSH     {r3-r7,lr}
        0x0000062e:    4d1c        .M      LDR      r5,[pc,#112] ; [0x6a0] = 0x50000200
        0x00000630:    4604        .F      MOV      r4,r0
        0x00000632:    68ee        .h      LDR      r6,[r5,#0xc]
        0x00000634:    2010        .       MOVS     r0,#0x10
        0x00000636:    4006        .@      ANDS     r6,r6,r0
        0x00000638:    481a        .H      LDR      r0,[pc,#104] ; [0x6a4] = 0x44aa200
        0x0000063a:    4284        .B      CMP      r4,r0
        0x0000063c:    d802        ..      BHI      0x644 ; CLK_SetCoreClock + 24
        0x0000063e:    481a        .H      LDR      r0,[pc,#104] ; [0x6a8] = 0x17d7840
        0x00000640:    4284        .B      CMP      r4,r0
        0x00000642:    d200        ..      BCS      0x646 ; CLK_SetCoreClock + 26
        0x00000644:    4604        .F      MOV      r4,r0
        0x00000646:    6828        (h      LDR      r0,[r5,#0]
        0x00000648:    2704        .'      MOVS     r7,#4
        0x0000064a:    4338        8C      ORRS     r0,r0,r7
        0x0000064c:    6028        (`      STR      r0,[r5,#0]
        0x0000064e:    2010        .       MOVS     r0,#0x10
        0x00000650:    f000f896    ....    BL       CLK_WaitClockReady ; 0x780
        0x00000654:    6928        (i      LDR      r0,[r5,#0x10]
        0x00000656:    2107        .!      MOVS     r1,#7
        0x00000658:    4308        .C      ORRS     r0,r0,r1
        0x0000065a:    6128        (a      STR      r0,[r5,#0x10]
        0x0000065c:    69a8        .i      LDR      r0,[r5,#0x18]
        0x0000065e:    0900        ..      LSRS     r0,r0,#4
        0x00000660:    0100        ..      LSLS     r0,r0,#4
        0x00000662:    61a8        .a      STR      r0,[r5,#0x18]
        0x00000664:    68e8        .h      LDR      r0,[r5,#0xc]
        0x00000666:    07c0        ..      LSLS     r0,r0,#31
        0x00000668:    d005        ..      BEQ      0x676 ; CLK_SetCoreClock + 74
        0x0000066a:    0061        a.      LSLS     r1,r4,#1
        0x0000066c:    2000        .       MOVS     r0,#0
        0x0000066e:    f7fffedd    ....    BL       CLK_EnablePLL ; 0x42c
        0x00000672:    4604        .F      MOV      r4,r0
        0x00000674:    e008        ..      B        0x688 ; CLK_SetCoreClock + 92
        0x00000676:    2001        .       MOVS     r0,#1
        0x00000678:    0061        a.      LSLS     r1,r4,#1
        0x0000067a:    04c0        ..      LSLS     r0,r0,#19
        0x0000067c:    f7fffed6    ....    BL       CLK_EnablePLL ; 0x42c
        0x00000680:    68ee        .h      LDR      r6,[r5,#0xc]
        0x00000682:    4604        .F      MOV      r4,r0
        0x00000684:    2010        .       MOVS     r0,#0x10
        0x00000686:    4006        .@      ANDS     r6,r6,r0
        0x00000688:    2101        .!      MOVS     r1,#1
        0x0000068a:    2002        .       MOVS     r0,#2
        0x0000068c:    f000f80e    ....    BL       CLK_SetHCLK ; 0x6ac
        0x00000690:    2e00        ..      CMP      r6,#0
        0x00000692:    d102        ..      BNE      0x69a ; CLK_SetCoreClock + 110
        0x00000694:    6828        (h      LDR      r0,[r5,#0]
        0x00000696:    43b8        .C      BICS     r0,r0,r7
        0x00000698:    6028        (`      STR      r0,[r5,#0]
        0x0000069a:    0860        `.      LSRS     r0,r4,#1
        0x0000069c:    bdf8        ..      POP      {r3-r7,pc}
    $d
        0x0000069e:    0000        ..      DCW    0
        0x000006a0:    50000200    ...P    DCD    1342177792
        0x000006a4:    044aa200    ..J.    DCD    72000000
        0x000006a8:    017d7840    @x}.    DCD    25000000
    $t
    i.CLK_SetHCLK
    CLK_SetHCLK
        0x000006ac:    b5f3        ..      PUSH     {r0,r1,r4-r7,lr}
        0x000006ae:    4c11        .L      LDR      r4,[pc,#68] ; [0x6f4] = 0x50000200
        0x000006b0:    b081        ..      SUB      sp,sp,#4
        0x000006b2:    68e5        .h      LDR      r5,[r4,#0xc]
        0x000006b4:    460f        .F      MOV      r7,r1
        0x000006b6:    2010        .       MOVS     r0,#0x10
        0x000006b8:    4005        .@      ANDS     r5,r5,r0
        0x000006ba:    6820         h      LDR      r0,[r4,#0]
        0x000006bc:    2604        .&      MOVS     r6,#4
        0x000006be:    4330        0C      ORRS     r0,r0,r6
        0x000006c0:    6020         `      STR      r0,[r4,#0]
        0x000006c2:    2010        .       MOVS     r0,#0x10
        0x000006c4:    f000f85c    ..\.    BL       CLK_WaitClockReady ; 0x780
        0x000006c8:    6920         i      LDR      r0,[r4,#0x10]
        0x000006ca:    2107        .!      MOVS     r1,#7
        0x000006cc:    4308        .C      ORRS     r0,r0,r1
        0x000006ce:    6120         a      STR      r0,[r4,#0x10]
        0x000006d0:    69a0        .i      LDR      r0,[r4,#0x18]
        0x000006d2:    0900        ..      LSRS     r0,r0,#4
        0x000006d4:    0100        ..      LSLS     r0,r0,#4
        0x000006d6:    4338        8C      ORRS     r0,r0,r7
        0x000006d8:    61a0        .a      STR      r0,[r4,#0x18]
        0x000006da:    6920         i      LDR      r0,[r4,#0x10]
        0x000006dc:    4388        .C      BICS     r0,r0,r1
        0x000006de:    9901        ..      LDR      r1,[sp,#4]
        0x000006e0:    4308        .C      ORRS     r0,r0,r1
        0x000006e2:    6120         a      STR      r0,[r4,#0x10]
        0x000006e4:    f002fb72    ..r.    BL       SystemCoreClockUpdate ; 0x2dcc
        0x000006e8:    2d00        .-      CMP      r5,#0
        0x000006ea:    d102        ..      BNE      0x6f2 ; CLK_SetHCLK + 70
        0x000006ec:    6820         h      LDR      r0,[r4,#0]
        0x000006ee:    43b0        .C      BICS     r0,r0,r6
        0x000006f0:    6020         `      STR      r0,[r4,#0]
        0x000006f2:    bdfe        ..      POP      {r1-r7,pc}
    $d
        0x000006f4:    50000200    ...P    DCD    1342177792
    $t
    i.CLK_SetModuleClock
    CLK_SetModuleClock
        0x000006f8:    b5f0        ..      PUSH     {r4-r7,lr}
        0x000006fa:    4b1a        .K      LDR      r3,[pc,#104] ; [0x764] = 0x41a8
        0x000006fc:    b086        ..      SUB      sp,sp,#0x18
        0x000006fe:    461c        .F      MOV      r4,r3
        0x00000700:    3408        .4      ADDS     r4,r4,#8
        0x00000702:    ccf0        ..      LDM      r4,{r4-r7}
        0x00000704:    9400        ..      STR      r4,[sp,#0]
        0x00000706:    ac01        ..      ADD      r4,sp,#4
        0x00000708:    c4e0        ..      STM      r4!,{r5-r7}
        0x0000070a:    cb18        ..      LDM      r3,{r3,r4}
        0x0000070c:    9405        ..      STR      r4,[sp,#0x14]
        0x0000070e:    9304        ..      STR      r3,[sp,#0x10]
        0x00000710:    0a84        ..      LSRS     r4,r0,#10
        0x00000712:    0623        #.      LSLS     r3,r4,#24
        0x00000714:    0e1b        ..      LSRS     r3,r3,#24
        0x00000716:    d00e        ..      BEQ      0x736 ; CLK_SetModuleClock + 62
        0x00000718:    0303        ..      LSLS     r3,r0,#12
        0x0000071a:    0f9b        ..      LSRS     r3,r3,#30
        0x0000071c:    009b        ..      LSLS     r3,r3,#2
        0x0000071e:    ad04        ..      ADD      r5,sp,#0x10
        0x00000720:    58eb        .X      LDR      r3,[r5,r3]
        0x00000722:    4d11        .M      LDR      r5,[pc,#68] ; [0x768] = 0x50000218
        0x00000724:    195b        [.      ADDS     r3,r3,r5
        0x00000726:    b2e5        ..      UXTB     r5,r4
        0x00000728:    0584        ..      LSLS     r4,r0,#22
        0x0000072a:    0ee4        ..      LSRS     r4,r4,#27
        0x0000072c:    40a5        .@      LSLS     r5,r5,r4
        0x0000072e:    681c        .h      LDR      r4,[r3,#0]
        0x00000730:    43ac        .C      BICS     r4,r4,r5
        0x00000732:    4314        .C      ORRS     r4,r4,r2
        0x00000734:    601c        .`      STR      r4,[r3,#0]
        0x00000736:    0e42        B.      LSRS     r2,r0,#25
        0x00000738:    0752        R.      LSLS     r2,r2,#29
        0x0000073a:    d010        ..      BEQ      0x75e ; CLK_SetModuleClock + 102
        0x0000073c:    0082        ..      LSLS     r2,r0,#2
        0x0000073e:    0f92        ..      LSRS     r2,r2,#30
        0x00000740:    0092        ..      LSLS     r2,r2,#2
        0x00000742:    466b        kF      MOV      r3,sp
        0x00000744:    589a        .X      LDR      r2,[r3,r2]
        0x00000746:    4b08        .K      LDR      r3,[pc,#32] ; [0x768] = 0x50000218
        0x00000748:    3b08        .;      SUBS     r3,r3,#8
        0x0000074a:    18d2        ..      ADDS     r2,r2,r3
        0x0000074c:    0103        ..      LSLS     r3,r0,#4
        0x0000074e:    0f5b        [.      LSRS     r3,r3,#29
        0x00000750:    01c0        ..      LSLS     r0,r0,#7
        0x00000752:    0ec0        ..      LSRS     r0,r0,#27
        0x00000754:    4083        .@      LSLS     r3,r3,r0
        0x00000756:    6810        .h      LDR      r0,[r2,#0]
        0x00000758:    4398        .C      BICS     r0,r0,r3
        0x0000075a:    4308        .C      ORRS     r0,r0,r1
        0x0000075c:    6010        .`      STR      r0,[r2,#0]
        0x0000075e:    b006        ..      ADD      sp,sp,#0x18
        0x00000760:    bdf0        ..      POP      {r4-r7,pc}
    $d
        0x00000762:    0000        ..      DCW    0
        0x00000764:    000041a8    .A..    DCD    16808
        0x00000768:    50000218    ...P    DCD    1342177816
    $t
    i.CLK_SetSysTickClockSrc
    CLK_SetSysTickClockSrc
        0x0000076c:    4a03        .J      LDR      r2,[pc,#12] ; [0x77c] = 0x50000200
        0x0000076e:    6911        .i      LDR      r1,[r2,#0x10]
        0x00000770:    2338        8#      MOVS     r3,#0x38
        0x00000772:    4399        .C      BICS     r1,r1,r3
        0x00000774:    4301        .C      ORRS     r1,r1,r0
        0x00000776:    6111        .a      STR      r1,[r2,#0x10]
        0x00000778:    4770        pG      BX       lr
    $d
        0x0000077a:    0000        ..      DCW    0
        0x0000077c:    50000200    ...P    DCD    1342177792
    $t
    i.CLK_WaitClockReady
    CLK_WaitClockReady
        0x00000780:    b510        ..      PUSH     {r4,lr}
        0x00000782:    4604        .F      MOV      r4,r0
        0x00000784:    4907        .I      LDR      r1,[pc,#28] ; [0x7a4] = 0x20f580
        0x00000786:    4b08        .K      LDR      r3,[pc,#32] ; [0x7a8] = 0x50000200
        0x00000788:    e005        ..      B        0x796 ; CLK_WaitClockReady + 22
        0x0000078a:    460a        .F      MOV      r2,r1
        0x0000078c:    1e49        I.      SUBS     r1,r1,#1
        0x0000078e:    2a00        .*      CMP      r2,#0
        0x00000790:    dc01        ..      BGT      0x796 ; CLK_WaitClockReady + 22
        0x00000792:    2000        .       MOVS     r0,#0
        0x00000794:    bd10        ..      POP      {r4,pc}
        0x00000796:    68da        .h      LDR      r2,[r3,#0xc]
        0x00000798:    4620         F      MOV      r0,r4
        0x0000079a:    4390        .C      BICS     r0,r0,r2
        0x0000079c:    d1f5        ..      BNE      0x78a ; CLK_WaitClockReady + 10
        0x0000079e:    2001        .       MOVS     r0,#1
        0x000007a0:    bd10        ..      POP      {r4,pc}
    $d
        0x000007a2:    0000        ..      DCW    0
        0x000007a4:    0020f580    .. .    DCD    2160000
        0x000007a8:    50000200    ...P    DCD    1342177792
    $t
    i.CRC16
    CRC16
        0x000007ac:    b5f0        ..      PUSH     {r4-r7,lr}
        0x000007ae:    22ff        ."      MOVS     r2,#0xff
        0x000007b0:    4d0d        .M      LDR      r5,[pc,#52] ; [0x7e8] = 0x200000b9
        0x000007b2:    4e0e        .N      LDR      r6,[pc,#56] ; [0x7ec] = 0x3fa8
        0x000007b4:    702a        *p      STRB     r2,[r5,#0]
        0x000007b6:    1df7        ..      ADDS     r7,r6,#7
        0x000007b8:    706a        jp      STRB     r2,[r5,#1]
        0x000007ba:    37f9        .7      ADDS     r7,r7,#0xf9
        0x000007bc:    e00a        ..      B        0x7d4 ; CRC16 + 40
        0x000007be:    7802        .x      LDRB     r2,[r0,#0]
        0x000007c0:    782b        +x      LDRB     r3,[r5,#0]
        0x000007c2:    405a        Z@      EORS     r2,r2,r3
        0x000007c4:    722a        *r      STRB     r2,[r5,#8]
        0x000007c6:    5cb3        .\      LDRB     r3,[r6,r2]
        0x000007c8:    786c        lx      LDRB     r4,[r5,#1]
        0x000007ca:    4063        c@      EORS     r3,r3,r4
        0x000007cc:    702b        +p      STRB     r3,[r5,#0]
        0x000007ce:    5cba        .\      LDRB     r2,[r7,r2]
        0x000007d0:    706a        jp      STRB     r2,[r5,#1]
        0x000007d2:    1c40        @.      ADDS     r0,r0,#1
        0x000007d4:    460a        .F      MOV      r2,r1
        0x000007d6:    1e49        I.      SUBS     r1,r1,#1
        0x000007d8:    b289        ..      UXTH     r1,r1
        0x000007da:    2a00        .*      CMP      r2,#0
        0x000007dc:    d1ef        ..      BNE      0x7be ; CRC16 + 18
        0x000007de:    7828        (x      LDRB     r0,[r5,#0]
        0x000007e0:    7869        ix      LDRB     r1,[r5,#1]
        0x000007e2:    0200        ..      LSLS     r0,r0,#8
        0x000007e4:    4308        .C      ORRS     r0,r0,r1
        0x000007e6:    bdf0        ..      POP      {r4-r7,pc}
    $d
        0x000007e8:    200000b9    ...     DCD    536871097
        0x000007ec:    00003fa8    .?..    DCD    16296
    $t
    i.CalChecksumH
    CalChecksumH
        0x000007f0:    b510        ..      PUSH     {r4,lr}
        0x000007f2:    4a0d        .J      LDR      r2,[pc,#52] ; [0x828] = 0x200000cc
        0x000007f4:    2055        U       MOVS     r0,#0x55
        0x000007f6:    7010        .p      STRB     r0,[r2,#0]
        0x000007f8:    480c        .H      LDR      r0,[pc,#48] ; [0x82c] = 0x2000000c
        0x000007fa:    2100        .!      MOVS     r1,#0
        0x000007fc:    7800        .x      LDRB     r0,[r0,#0]
        0x000007fe:    7050        Pp      STRB     r0,[r2,#1]
        0x00000800:    2001        .       MOVS     r0,#1
        0x00000802:    5c13        .\      LDRB     r3,[r2,r0]
        0x00000804:    1c40        @.      ADDS     r0,r0,#1
        0x00000806:    1859        Y.      ADDS     r1,r3,r1
        0x00000808:    b2c0        ..      UXTB     r0,r0
        0x0000080a:    b2c9        ..      UXTB     r1,r1
        0x0000080c:    2836        6(      CMP      r0,#0x36
        0x0000080e:    d3f8        ..      BCC      0x802 ; CalChecksumH + 18
        0x00000810:    4805        .H      LDR      r0,[pc,#20] ; [0x828] = 0x200000cc
        0x00000812:    3020         0      ADDS     r0,r0,#0x20
        0x00000814:    7581        .u      STRB     r1,[r0,#0x16]
        0x00000816:    210a        .!      MOVS     r1,#0xa
        0x00000818:    75c1        .u      STRB     r1,[r0,#0x17]
        0x0000081a:    f000faa3    ....    BL       EnableHostUartTx ; 0xd64
        0x0000081e:    2138        8!      MOVS     r1,#0x38
        0x00000820:    4801        .H      LDR      r0,[pc,#4] ; [0x828] = 0x200000cc
        0x00000822:    f002ffe5    ....    BL       _SendStringToHOST ; 0x37f0
        0x00000826:    bd10        ..      POP      {r4,pc}
    $d
        0x00000828:    200000cc    ...     DCD    536871116
        0x0000082c:    2000000c    ...     DCD    536870924
    $t
    i.CalChecksumR
    CalChecksumR
        0x00000830:    b510        ..      PUSH     {r4,lr}
        0x00000832:    4a0b        .J      LDR      r2,[pc,#44] ; [0x860] = 0x200007c6
        0x00000834:    2055        U       MOVS     r0,#0x55
        0x00000836:    7010        .p      STRB     r0,[r2,#0]
        0x00000838:    2001        .       MOVS     r0,#1
        0x0000083a:    7050        Pp      STRB     r0,[r2,#1]
        0x0000083c:    2100        .!      MOVS     r1,#0
        0x0000083e:    5c13        .\      LDRB     r3,[r2,r0]
        0x00000840:    1c40        @.      ADDS     r0,r0,#1
        0x00000842:    1859        Y.      ADDS     r1,r3,r1
        0x00000844:    b2c0        ..      UXTB     r0,r0
        0x00000846:    b2c9        ..      UXTB     r1,r1
        0x00000848:    2836        6(      CMP      r0,#0x36
        0x0000084a:    d3f8        ..      BCC      0x83e ; CalChecksumR + 14
        0x0000084c:    4804        .H      LDR      r0,[pc,#16] ; [0x860] = 0x200007c6
        0x0000084e:    3020         0      ADDS     r0,r0,#0x20
        0x00000850:    7581        .u      STRB     r1,[r0,#0x16]
        0x00000852:    210a        .!      MOVS     r1,#0xa
        0x00000854:    75c1        .u      STRB     r1,[r0,#0x17]
        0x00000856:    2138        8!      MOVS     r1,#0x38
        0x00000858:    3820         8      SUBS     r0,r0,#0x20
        0x0000085a:    f003f831    ..1.    BL       _SendStringToREADER ; 0x38c0
        0x0000085e:    bd10        ..      POP      {r4,pc}
    $d
        0x00000860:    200007c6    ...     DCD    536872902
    $t
    i.ChangeDirMeterRS485
    ChangeDirMeterRS485
        0x00000864:    4806        .H      LDR      r0,[pc,#24] ; [0x880] = 0x2000004c
        0x00000866:    7981        .y      LDRB     r1,[r0,#6]
        0x00000868:    2900        .)      CMP      r1,#0
        0x0000086a:    d008        ..      BEQ      0x87e ; ChangeDirMeterRS485 + 26
        0x0000086c:    8b81        ..      LDRH     r1,[r0,#0x1c]
        0x0000086e:    4a05        .J      LDR      r2,[pc,#20] ; [0x884] = 0x44c
        0x00000870:    1c49        I.      ADDS     r1,r1,#1
        0x00000872:    b289        ..      UXTH     r1,r1
        0x00000874:    8381        ..      STRH     r1,[r0,#0x1c]
        0x00000876:    4291        .B      CMP      r1,r2
        0x00000878:    d901        ..      BLS      0x87e ; ChangeDirMeterRS485 + 26
        0x0000087a:    2100        .!      MOVS     r1,#0
        0x0000087c:    7181        .q      STRB     r1,[r0,#6]
        0x0000087e:    4770        pG      BX       lr
    $d
        0x00000880:    2000004c    L..     DCD    536870988
        0x00000884:    0000044c    L...    DCD    1100
    $t
    i.ChangeDirReaderRS485
    ChangeDirReaderRS485
        0x00000888:    4806        .H      LDR      r0,[pc,#24] ; [0x8a4] = 0x2000004c
        0x0000088a:    7941        Ay      LDRB     r1,[r0,#5]
        0x0000088c:    2900        .)      CMP      r1,#0
        0x0000088e:    d007        ..      BEQ      0x8a0 ; ChangeDirReaderRS485 + 24
        0x00000890:    8b41        A.      LDRH     r1,[r0,#0x1a]
        0x00000892:    1c49        I.      ADDS     r1,r1,#1
        0x00000894:    b289        ..      UXTH     r1,r1
        0x00000896:    8341        A.      STRH     r1,[r0,#0x1a]
        0x00000898:    29c8        .)      CMP      r1,#0xc8
        0x0000089a:    d901        ..      BLS      0x8a0 ; ChangeDirReaderRS485 + 24
        0x0000089c:    2100        .!      MOVS     r1,#0
        0x0000089e:    7141        Aq      STRB     r1,[r0,#5]
        0x000008a0:    4770        pG      BX       lr
    $d
        0x000008a2:    0000        ..      DCW    0
        0x000008a4:    2000004c    L..     DCD    536870988
    $t
    i.ChangeHostRS485Tx
    ChangeHostRS485Tx
        0x000008a8:    b500        ..      PUSH     {lr}
        0x000008aa:    4807        .H      LDR      r0,[pc,#28] ; [0x8c8] = 0x2000004c
        0x000008ac:    79c1        .y      LDRB     r1,[r0,#7]
        0x000008ae:    2900        .)      CMP      r1,#0
        0x000008b0:    d009        ..      BEQ      0x8c6 ; ChangeHostRS485Tx + 30
        0x000008b2:    8bc1        ..      LDRH     r1,[r0,#0x1e]
        0x000008b4:    1c49        I.      ADDS     r1,r1,#1
        0x000008b6:    b289        ..      UXTH     r1,r1
        0x000008b8:    83c1        ..      STRH     r1,[r0,#0x1e]
        0x000008ba:    29c8        .)      CMP      r1,#0xc8
        0x000008bc:    d903        ..      BLS      0x8c6 ; ChangeHostRS485Tx + 30
        0x000008be:    2100        .!      MOVS     r1,#0
        0x000008c0:    71c1        .q      STRB     r1,[r0,#7]
        0x000008c2:    f000fa3f    ..?.    BL       DisableHostUartTx ; 0xd44
        0x000008c6:    bd00        ..      POP      {pc}
    $d
        0x000008c8:    2000004c    L..     DCD    536870988
    $t
    i.ChangeMeterSetting
    ChangeMeterSetting
        0x000008cc:    b5f8        ..      PUSH     {r3-r7,lr}
        0x000008ce:    4831        1H      LDR      r0,[pc,#196] ; [0x994] = 0x2000006c
        0x000008d0:    4c31        1L      LDR      r4,[pc,#196] ; [0x998] = 0x200000b2
        0x000008d2:    8801        ..      LDRH     r1,[r0,#0]
        0x000008d4:    78e2        .x      LDRB     r2,[r4,#3]
        0x000008d6:    4291        .B      CMP      r1,r2
        0x000008d8:    d31a        ..      BCC      0x910 ; ChangeMeterSetting + 68
        0x000008da:    2100        .!      MOVS     r1,#0
        0x000008dc:    8001        ..      STRH     r1,[r0,#0]
        0x000008de:    482f        /H      LDR      r0,[pc,#188] ; [0x99c] = 0x20000047
        0x000008e0:    2601        .&      MOVS     r6,#1
        0x000008e2:    7006        .p      STRB     r6,[r0,#0]
        0x000008e4:    78a1        .x      LDRB     r1,[r4,#2]
        0x000008e6:    20ff        .       MOVS     r0,#0xff
        0x000008e8:    4f2d        -O      LDR      r7,[pc,#180] ; [0x9a0] = 0x20000036
        0x000008ea:    2532        2%      MOVS     r5,#0x32
        0x000008ec:    000b        ..      MOVS     r3,r1
        0x000008ee:    f003f829    ..).    BL       __ARM_common_switch8 ; 0x3944
    $d
        0x000008f2:    060a        ..      DCW    1546
        0x000008f4:    2a241e10    ..$*    DCD    707010064
        0x000008f8:    3f39342f    /49?    DCD    1060713519
        0x000008fc:    0f47        G.      DCW    3911
    $t
        0x000008fe:    7038        8p      STRB     r0,[r7,#0]
        0x00000900:    2001        .       MOVS     r0,#1
        0x00000902:    f000fe83    ....    BL       MODBUS_SendCmd ; 0x160c
        0x00000906:    70a6        .p      STRB     r6,[r4,#2]
        0x00000908:    4926        &I      LDR      r1,[pc,#152] ; [0x9a4] = 0x20000034
        0x0000090a:    70e5        .p      STRB     r5,[r4,#3]
        0x0000090c:    2000        .       MOVS     r0,#0
        0x0000090e:    7008        .p      STRB     r0,[r1,#0]
        0x00000910:    bdf8        ..      POP      {r3-r7,pc}
        0x00000912:    4825        %H      LDR      r0,[pc,#148] ; [0x9a8] = 0x200000a3
        0x00000914:    7839        9x      LDRB     r1,[r7,#0]
        0x00000916:    7800        .x      LDRB     r0,[r0,#0]
        0x00000918:    4288        .B      CMP      r0,r1
        0x0000091a:    d102        ..      BNE      0x922 ; ChangeMeterSetting + 86
        0x0000091c:    7126        &q      STRB     r6,[r4,#4]
        0x0000091e:    2003        .       MOVS     r0,#3
        0x00000920:    e036        6.      B        0x990 ; ChangeMeterSetting + 196
        0x00000922:    4820         H      LDR      r0,[pc,#128] ; [0x9a4] = 0x20000034
        0x00000924:    7800        .x      LDRB     r0,[r0,#0]
        0x00000926:    2864        d(      CMP      r0,#0x64
        0x00000928:    d9f2        ..      BLS      0x910 ; ChangeMeterSetting + 68
        0x0000092a:    2002        .       MOVS     r0,#2
        0x0000092c:    e025        %.      B        0x97a ; ChangeMeterSetting + 174
        0x0000092e:    204b        K       MOVS     r0,#0x4b
        0x00000930:    0140        @.      LSLS     r0,r0,#5
        0x00000932:    f002fd0b    ....    BL       UART2_Init ; 0x334c
        0x00000936:    2003        .       MOVS     r0,#3
        0x00000938:    e01f        ..      B        0x97a ; ChangeMeterSetting + 174
        0x0000093a:    7038        8p      STRB     r0,[r7,#0]
        0x0000093c:    200d        .       MOVS     r0,#0xd
        0x0000093e:    f000fe65    ..e.    BL       MODBUS_SendCmd ; 0x160c
        0x00000942:    2004        .       MOVS     r0,#4
        0x00000944:    e019        ..      B        0x97a ; ChangeMeterSetting + 174
        0x00000946:    2003        .       MOVS     r0,#3
        0x00000948:    f000fe60    ..`.    BL       MODBUS_SendCmd ; 0x160c
        0x0000094c:    2005        .       MOVS     r0,#5
        0x0000094e:    e014        ..      B        0x97a ; ChangeMeterSetting + 174
        0x00000950:    200e        .       MOVS     r0,#0xe
        0x00000952:    f000fe5b    ..[.    BL       MODBUS_SendCmd ; 0x160c
        0x00000956:    2006        .       MOVS     r0,#6
        0x00000958:    e00f        ..      B        0x97a ; ChangeMeterSetting + 174
        0x0000095a:    200f        .       MOVS     r0,#0xf
        0x0000095c:    f000fe56    ..V.    BL       MODBUS_SendCmd ; 0x160c
        0x00000960:    2007        .       MOVS     r0,#7
        0x00000962:    e00a        ..      B        0x97a ; ChangeMeterSetting + 174
        0x00000964:    2004        .       MOVS     r0,#4
        0x00000966:    f000fe51    ..Q.    BL       MODBUS_SendCmd ; 0x160c
        0x0000096a:    70e5        .p      STRB     r5,[r4,#3]
        0x0000096c:    2008        .       MOVS     r0,#8
        0x0000096e:    e00f        ..      B        0x990 ; ChangeMeterSetting + 196
        0x00000970:    204b        K       MOVS     r0,#0x4b
        0x00000972:    01c0        ..      LSLS     r0,r0,#7
        0x00000974:    f002fcea    ....    BL       UART2_Init ; 0x334c
        0x00000978:    2009        .       MOVS     r0,#9
        0x0000097a:    70a0        .p      STRB     r0,[r4,#2]
        0x0000097c:    70e5        .p      STRB     r5,[r4,#3]
        0x0000097e:    bdf8        ..      POP      {r3-r7,pc}
        0x00000980:    2010        .       MOVS     r0,#0x10
        0x00000982:    f000fe43    ..C.    BL       MODBUS_SendCmd ; 0x160c
        0x00000986:    2014        .       MOVS     r0,#0x14
        0x00000988:    70e0        .p      STRB     r0,[r4,#3]
        0x0000098a:    703e        >p      STRB     r6,[r7,#0]
        0x0000098c:    7126        &q      STRB     r6,[r4,#4]
        0x0000098e:    2000        .       MOVS     r0,#0
        0x00000990:    70a0        .p      STRB     r0,[r4,#2]
        0x00000992:    bdf8        ..      POP      {r3-r7,pc}
    $d
        0x00000994:    2000006c    l..     DCD    536871020
        0x00000998:    200000b2    ...     DCD    536871090
        0x0000099c:    20000047    G..     DCD    536870983
        0x000009a0:    20000036    6..     DCD    536870966
        0x000009a4:    20000034    4..     DCD    536870964
        0x000009a8:    200000a3    ...     DCD    536871075
    $t
    i.CheckModeNRelay
    CheckModeNRelay
        0x000009ac:    b570        p.      PUSH     {r4-r6,lr}
        0x000009ae:    4819        .H      LDR      r0,[pc,#100] ; [0xa14] = 0x2000004c
        0x000009b0:    7841        Ax      LDRB     r1,[r0,#1]
        0x000009b2:    29fa        .)      CMP      r1,#0xfa
        0x000009b4:    d30b        ..      BCC      0x9ce ; CheckModeNRelay + 34
        0x000009b6:    2400        .$      MOVS     r4,#0
        0x000009b8:    4e17        .N      LDR      r6,[pc,#92] ; [0xa18] = 0x200002d4
        0x000009ba:    7044        Dp      STRB     r4,[r0,#1]
        0x000009bc:    7830        0x      LDRB     r0,[r6,#0]
        0x000009be:    2301        .#      MOVS     r3,#1
        0x000009c0:    0600        ..      LSLS     r0,r0,#24
        0x000009c2:    4a16        .J      LDR      r2,[pc,#88] ; [0xa1c] = 0x200000b7
        0x000009c4:    2800        .(      CMP      r0,#0
        0x000009c6:    da03        ..      BGE      0x9d0 ; CheckModeNRelay + 36
        0x000009c8:    7013        .p      STRB     r3,[r2,#0]
        0x000009ca:    f000ff57    ..W.    BL       ROOM_POWER_On ; 0x187c
        0x000009ce:    bd70        p.      POP      {r4-r6,pc}
        0x000009d0:    7810        .x      LDRB     r0,[r2,#0]
        0x000009d2:    4d13        .M      LDR      r5,[pc,#76] ; [0xa20] = 0x50004200
        0x000009d4:    2802        .(      CMP      r0,#2
        0x000009d6:    d107        ..      BNE      0x9e8 ; CheckModeNRelay + 60
        0x000009d8:    7870        px      LDRB     r0,[r6,#1]
        0x000009da:    2802        .(      CMP      r0,#2
        0x000009dc:    d001        ..      BEQ      0x9e2 ; CheckModeNRelay + 54
        0x000009de:    2803        .(      CMP      r0,#3
        0x000009e0:    d115        ..      BNE      0xa0e ; CheckModeNRelay + 98
        0x000009e2:    7013        .p      STRB     r3,[r2,#0]
        0x000009e4:    f000ff4a    ..J.    BL       ROOM_POWER_On ; 0x187c
        0x000009e8:    7810        .x      LDRB     r0,[r2,#0]
        0x000009ea:    2801        .(      CMP      r0,#1
        0x000009ec:    d108        ..      BNE      0xa00 ; CheckModeNRelay + 84
        0x000009ee:    7870        px      LDRB     r0,[r6,#1]
        0x000009f0:    2801        .(      CMP      r0,#1
        0x000009f2:    d001        ..      BEQ      0x9f8 ; CheckModeNRelay + 76
        0x000009f4:    2804        .(      CMP      r0,#4
        0x000009f6:    d106        ..      BNE      0xa06 ; CheckModeNRelay + 90
        0x000009f8:    2002        .       MOVS     r0,#2
        0x000009fa:    7010        .p      STRB     r0,[r2,#0]
        0x000009fc:    f000ff22    ..".    BL       ROOM_POWER_Off ; 0x1844
        0x00000a00:    7810        .x      LDRB     r0,[r2,#0]
        0x00000a02:    2802        .(      CMP      r0,#2
        0x00000a04:    d003        ..      BEQ      0xa0e ; CheckModeNRelay + 98
        0x00000a06:    60eb        .`      STR      r3,[r5,#0xc]
        0x00000a08:    4806        .H      LDR      r0,[pc,#24] ; [0xa24] = 0x50004340
        0x00000a0a:    6083        .`      STR      r3,[r0,#8]
        0x00000a0c:    bd70        p.      POP      {r4-r6,pc}
        0x00000a0e:    60ec        .`      STR      r4,[r5,#0xc]
        0x00000a10:    bd70        p.      POP      {r4-r6,pc}
    $d
        0x00000a12:    0000        ..      DCW    0
        0x00000a14:    2000004c    L..     DCD    536870988
        0x00000a18:    200002d4    ...     DCD    536871636
        0x00000a1c:    200000b7    ...     DCD    536871095
        0x00000a20:    50004200    .B.P    DCD    1342194176
        0x00000a24:    50004340    @C.P    DCD    1342194496
    $t
    i.CheckReaderData
    CheckReaderData
        0x00000a28:    4a0d        .J      LDR      r2,[pc,#52] ; [0xa60] = 0x20000084
        0x00000a2a:    4610        .F      MOV      r0,r2
        0x00000a2c:    78d3        .x      LDRB     r3,[r2,#3]
        0x00000a2e:    7901        .y      LDRB     r1,[r0,#4]
        0x00000a30:    3838        88      SUBS     r0,r0,#0x38
        0x00000a32:    2b03        .+      CMP      r3,#3
        0x00000a34:    d101        ..      BNE      0xa3a ; CheckReaderData + 18
        0x00000a36:    291e        .)      CMP      r1,#0x1e
        0x00000a38:    d004        ..      BEQ      0xa44 ; CheckReaderData + 28
        0x00000a3a:    2928        ()      CMP      r1,#0x28
        0x00000a3c:    d101        ..      BNE      0xa42 ; CheckReaderData + 26
        0x00000a3e:    2100        .!      MOVS     r1,#0
        0x00000a40:    7401        .t      STRB     r1,[r0,#0x10]
        0x00000a42:    4770        pG      BX       lr
        0x00000a44:    7951        Qy      LDRB     r1,[r2,#5]
        0x00000a46:    291e        .)      CMP      r1,#0x1e
        0x00000a48:    d1fb        ..      BNE      0xa42 ; CheckReaderData + 26
        0x00000a4a:    7c01        .|      LDRB     r1,[r0,#0x10]
        0x00000a4c:    2900        .)      CMP      r1,#0
        0x00000a4e:    d1f8        ..      BNE      0xa42 ; CheckReaderData + 26
        0x00000a50:    2101        .!      MOVS     r1,#1
        0x00000a52:    7401        .t      STRB     r1,[r0,#0x10]
        0x00000a54:    4902        .I      LDR      r1,[pc,#8] ; [0xa60] = 0x20000084
        0x00000a56:    2002        .       MOVS     r0,#2
        0x00000a58:    3978        x9      SUBS     r1,r1,#0x78
        0x00000a5a:    7588        .u      STRB     r0,[r1,#0x16]
        0x00000a5c:    4770        pG      BX       lr
    $d
        0x00000a5e:    0000        ..      DCW    0
        0x00000a60:    20000084    ...     DCD    536871044
    $t
    i.CheckReaderReset
    CheckReaderReset
        0x00000a64:    b570        p.      PUSH     {r4-r6,lr}
        0x00000a66:    480b        .H      LDR      r0,[pc,#44] ; [0xa94] = 0x2000002c
        0x00000a68:    4c0a        .L      LDR      r4,[pc,#40] ; [0xa94] = 0x2000002c
        0x00000a6a:    7880        .x      LDRB     r0,[r0,#2]
        0x00000a6c:    2500        .%      MOVS     r5,#0
        0x00000a6e:    3420         4      ADDS     r4,r4,#0x20
        0x00000a70:    2800        .(      CMP      r0,#0
        0x00000a72:    d007        ..      BEQ      0xa84 ; CheckReaderReset + 32
        0x00000a74:    8b20         .      LDRH     r0,[r4,#0x18]
        0x00000a76:    283c        <(      CMP      r0,#0x3c
        0x00000a78:    d304        ..      BCC      0xa84 ; CheckReaderReset + 32
        0x00000a7a:    8325        %.      STRH     r5,[r4,#0x18]
        0x00000a7c:    f001f9f4    ....    BL       ResetReaderUART ; 0x1e68
        0x00000a80:    f001ffc2    ....    BL       SendReader_Reset ; 0x2a08
        0x00000a84:    7a20         z      LDRB     r0,[r4,#8]
        0x00000a86:    2801        .(      CMP      r0,#1
        0x00000a88:    d903        ..      BLS      0xa92 ; CheckReaderReset + 46
        0x00000a8a:    4903        .I      LDR      r1,[pc,#12] ; [0xa98] = 0x50004240
        0x00000a8c:    2001        .       MOVS     r0,#1
        0x00000a8e:    6008        .`      STR      r0,[r1,#0]
        0x00000a90:    7225        %r      STRB     r5,[r4,#8]
        0x00000a92:    bd70        p.      POP      {r4-r6,pc}
    $d
        0x00000a94:    2000002c    ,..     DCD    536870956
        0x00000a98:    50004240    @B.P    DCD    1342194240
    $t
    i.CheckStartRecord
    CheckStartRecord
        0x00000a9c:    b510        ..      PUSH     {r4,lr}
        0x00000a9e:    4906        .I      LDR      r1,[pc,#24] ; [0xab8] = 0x200002d4
        0x00000aa0:    7848        Hx      LDRB     r0,[r1,#1]
        0x00000aa2:    2802        .(      CMP      r0,#2
        0x00000aa4:    d107        ..      BNE      0xab6 ; CheckStartRecord + 26
        0x00000aa6:    7d08        .}      LDRB     r0,[r1,#0x14]
        0x00000aa8:    0142        B.      LSLS     r2,r0,#5
        0x00000aaa:    1851        Q.      ADDS     r1,r2,r1
        0x00000aac:    6b09        .k      LDR      r1,[r1,#0x30]
        0x00000aae:    2900        .)      CMP      r1,#0
        0x00000ab0:    d101        ..      BNE      0xab6 ; CheckStartRecord + 26
        0x00000ab2:    f002f821    ..!.    BL       SetStartInfor ; 0x2af8
        0x00000ab6:    bd10        ..      POP      {r4,pc}
    $d
        0x00000ab8:    200002d4    ...     DCD    536871636
    $t
    i.CheckUserValue
    CheckUserValue
        0x00000abc:    b5f0        ..      PUSH     {r4-r7,lr}
        0x00000abe:    4a11        .J      LDR      r2,[pc,#68] ; [0xb04] = 0x200002d4
        0x00000ac0:    23ff        .#      MOVS     r3,#0xff
        0x00000ac2:    7805        .x      LDRB     r5,[r0,#0]
        0x00000ac4:    78d4        .x      LDRB     r4,[r2,#3]
        0x00000ac6:    2100        .!      MOVS     r1,#0
        0x00000ac8:    4a0e        .J      LDR      r2,[pc,#56] ; [0xb04] = 0x200002d4
        0x00000aca:    014e        N.      LSLS     r6,r1,#5
        0x00000acc:    18b2        ..      ADDS     r2,r6,r2
        0x00000ace:    7f56        V.      LDRB     r6,[r2,#0x1d]
        0x00000ad0:    42ae        .B      CMP      r6,r5
        0x00000ad2:    d10e        ..      BNE      0xaf2 ; CheckUserValue + 54
        0x00000ad4:    7f96        ..      LDRB     r6,[r2,#0x1e]
        0x00000ad6:    7847        Gx      LDRB     r7,[r0,#1]
        0x00000ad8:    42be        .B      CMP      r6,r7
        0x00000ada:    d10a        ..      BNE      0xaf2 ; CheckUserValue + 54
        0x00000adc:    7fd6        ..      LDRB     r6,[r2,#0x1f]
        0x00000ade:    7887        .x      LDRB     r7,[r0,#2]
        0x00000ae0:    42be        .B      CMP      r6,r7
        0x00000ae2:    d106        ..      BNE      0xaf2 ; CheckUserValue + 54
        0x00000ae4:    3220         2      ADDS     r2,r2,#0x20
        0x00000ae6:    7812        .x      LDRB     r2,[r2,#0]
        0x00000ae8:    78c6        .x      LDRB     r6,[r0,#3]
        0x00000aea:    42b2        .B      CMP      r2,r6
        0x00000aec:    d101        ..      BNE      0xaf2 ; CheckUserValue + 54
        0x00000aee:    460b        .F      MOV      r3,r1
        0x00000af0:    e002        ..      B        0xaf8 ; CheckUserValue + 60
        0x00000af2:    1c49        I.      ADDS     r1,r1,#1
        0x00000af4:    428c        .B      CMP      r4,r1
        0x00000af6:    dce7        ..      BGT      0xac8 ; CheckUserValue + 12
        0x00000af8:    2bff        .+      CMP      r3,#0xff
        0x00000afa:    d001        ..      BEQ      0xb00 ; CheckUserValue + 68
        0x00000afc:    b2d8        ..      UXTB     r0,r3
        0x00000afe:    bdf0        ..      POP      {r4-r7,pc}
        0x00000b00:    20ff        .       MOVS     r0,#0xff
        0x00000b02:    bdf0        ..      POP      {r4-r7,pc}
    $d
        0x00000b04:    200002d4    ...     DCD    536871636
    $t
    i.ClearRespDelayTimer
    ClearRespDelayTimer
        0x00000b08:    4904        .I      LDR      r1,[pc,#16] ; [0xb1c] = 0x200000a4
        0x00000b0a:    2001        .       MOVS     r0,#1
        0x00000b0c:    7048        Hp      STRB     r0,[r1,#1]
        0x00000b0e:    4904        .I      LDR      r1,[pc,#16] ; [0xb20] = 0x200000a2
        0x00000b10:    7008        .p      STRB     r0,[r1,#0]
        0x00000b12:    4904        .I      LDR      r1,[pc,#16] ; [0xb24] = 0x2000003e
        0x00000b14:    2000        .       MOVS     r0,#0
        0x00000b16:    7008        .p      STRB     r0,[r1,#0]
        0x00000b18:    4770        pG      BX       lr
    $d
        0x00000b1a:    0000        ..      DCW    0
        0x00000b1c:    200000a4    ...     DCD    536871076
        0x00000b20:    200000a2    ...     DCD    536871074
        0x00000b24:    2000003e    >..     DCD    536870974
    $t
    i.CmdModBus_DEM5x0
    CmdModBus_DEM5x0
        0x00000b28:    b5f8        ..      PUSH     {r3-r7,lr}
        0x00000b2a:    2500        .%      MOVS     r5,#0
        0x00000b2c:    2201        ."      MOVS     r2,#1
        0x00000b2e:    4c34        4L      LDR      r4,[pc,#208] ; [0xc00] = 0x200000b9
        0x00000b30:    4e34        4N      LDR      r6,[pc,#208] ; [0xc04] = 0x20000174
        0x00000b32:    2111        .!      MOVS     r1,#0x11
        0x00000b34:    2705        .'      MOVS     r7,#5
        0x00000b36:    0003        ..      MOVS     r3,r0
        0x00000b38:    f002ff04    ....    BL       __ARM_common_switch8 ; 0x3944
    $d
        0x00000b3c:    600c0a11    ...`    DCD    1611401745
        0x00000b40:    0b602216    ."`.    DCD    190849558
        0x00000b44:    60606060    ````    DCD    1616928864
        0x00000b48:    3e396060    ``9>    DCD    1043947616
        0x00000b4c:    00604a43    CJ`.    DCD    6310467
    $t
        0x00000b50:    70e5        .p      STRB     r5,[r4,#3]
        0x00000b52:    bdf8        ..      POP      {r3-r7,pc}
        0x00000b54:    71e2        .q      STRB     r2,[r4,#7]
        0x00000b56:    70a2        .p      STRB     r2,[r4,#2]
        0x00000b58:    2003        .       MOVS     r0,#3
        0x00000b5a:    7070        pp      STRB     r0,[r6,#1]
        0x00000b5c:    70b5        .p      STRB     r5,[r6,#2]
        0x00000b5e:    70f5        .p      STRB     r5,[r6,#3]
        0x00000b60:    7135        5q      STRB     r5,[r6,#4]
        0x00000b62:    2002        .       MOVS     r0,#2
        0x00000b64:    7170        pq      STRB     r0,[r6,#5]
        0x00000b66:    e03b        ;.      B        0xbe0 ; CmdModBus_DEM5x0 + 184
        0x00000b68:    71e1        .q      STRB     r1,[r4,#7]
        0x00000b6a:    2010        .       MOVS     r0,#0x10
        0x00000b6c:    7070        pp      STRB     r0,[r6,#1]
        0x00000b6e:    70b5        .p      STRB     r5,[r6,#2]
        0x00000b70:    2030        0       MOVS     r0,#0x30
        0x00000b72:    70f0        .p      STRB     r0,[r6,#3]
        0x00000b74:    7135        5q      STRB     r5,[r6,#4]
        0x00000b76:    7172        rq      STRB     r2,[r6,#5]
        0x00000b78:    2002        .       MOVS     r0,#2
        0x00000b7a:    71b0        .q      STRB     r0,[r6,#6]
        0x00000b7c:    71f2        .q      STRB     r2,[r6,#7]
        0x00000b7e:    e00a        ..      B        0xb96 ; CmdModBus_DEM5x0 + 110
        0x00000b80:    71e1        .q      STRB     r1,[r4,#7]
        0x00000b82:    2010        .       MOVS     r0,#0x10
        0x00000b84:    7070        pp      STRB     r0,[r6,#1]
        0x00000b86:    70b5        .p      STRB     r5,[r6,#2]
        0x00000b88:    2037        7       MOVS     r0,#0x37
        0x00000b8a:    70f0        .p      STRB     r0,[r6,#3]
        0x00000b8c:    7135        5q      STRB     r5,[r6,#4]
        0x00000b8e:    7172        rq      STRB     r2,[r6,#5]
        0x00000b90:    2002        .       MOVS     r0,#2
        0x00000b92:    71b0        .q      STRB     r0,[r6,#6]
        0x00000b94:    71f5        .q      STRB     r5,[r6,#7]
        0x00000b96:    7235        5r      STRB     r5,[r6,#8]
        0x00000b98:    2109        .!      MOVS     r1,#9
        0x00000b9a:    481a        .H      LDR      r0,[pc,#104] ; [0xc04] = 0x20000174
        0x00000b9c:    f7fffe06    ....    BL       CRC16 ; 0x7ac
        0x00000ba0:    7820         x      LDRB     r0,[r4,#0]
        0x00000ba2:    7270        pr      STRB     r0,[r6,#9]
        0x00000ba4:    7860        `x      LDRB     r0,[r4,#1]
        0x00000ba6:    72b0        .r      STRB     r0,[r6,#0xa]
        0x00000ba8:    72f5        .r      STRB     r5,[r6,#0xb]
        0x00000baa:    210b        .!      MOVS     r1,#0xb
        0x00000bac:    e022        ".      B        0xbf4 ; CmdModBus_DEM5x0 + 204
        0x00000bae:    71e1        .q      STRB     r1,[r4,#7]
        0x00000bb0:    7077        wp      STRB     r7,[r6,#1]
        0x00000bb2:    70b5        .p      STRB     r5,[r6,#2]
        0x00000bb4:    2030        0       MOVS     r0,#0x30
        0x00000bb6:    e008        ..      B        0xbca ; CmdModBus_DEM5x0 + 162
        0x00000bb8:    71e1        .q      STRB     r1,[r4,#7]
        0x00000bba:    7077        wp      STRB     r7,[r6,#1]
        0x00000bbc:    70b5        .p      STRB     r5,[r6,#2]
        0x00000bbe:    2030        0       MOVS     r0,#0x30
        0x00000bc0:    e00a        ..      B        0xbd8 ; CmdModBus_DEM5x0 + 176
        0x00000bc2:    71e1        .q      STRB     r1,[r4,#7]
        0x00000bc4:    7077        wp      STRB     r7,[r6,#1]
        0x00000bc6:    70b5        .p      STRB     r5,[r6,#2]
        0x00000bc8:    2037        7       MOVS     r0,#0x37
        0x00000bca:    70f0        .p      STRB     r0,[r6,#3]
        0x00000bcc:    7135        5q      STRB     r5,[r6,#4]
        0x00000bce:    e006        ..      B        0xbde ; CmdModBus_DEM5x0 + 182
        0x00000bd0:    71e1        .q      STRB     r1,[r4,#7]
        0x00000bd2:    7077        wp      STRB     r7,[r6,#1]
        0x00000bd4:    70b5        .p      STRB     r5,[r6,#2]
        0x00000bd6:    2037        7       MOVS     r0,#0x37
        0x00000bd8:    70f0        .p      STRB     r0,[r6,#3]
        0x00000bda:    20ff        .       MOVS     r0,#0xff
        0x00000bdc:    7130        0q      STRB     r0,[r6,#4]
        0x00000bde:    7175        uq      STRB     r5,[r6,#5]
        0x00000be0:    2106        .!      MOVS     r1,#6
        0x00000be2:    4808        .H      LDR      r0,[pc,#32] ; [0xc04] = 0x20000174
        0x00000be4:    f7fffde2    ....    BL       CRC16 ; 0x7ac
        0x00000be8:    7820         x      LDRB     r0,[r4,#0]
        0x00000bea:    71b0        .q      STRB     r0,[r6,#6]
        0x00000bec:    7860        `x      LDRB     r0,[r4,#1]
        0x00000bee:    71f0        .q      STRB     r0,[r6,#7]
        0x00000bf0:    7235        5r      STRB     r5,[r6,#8]
        0x00000bf2:    2108        .!      MOVS     r1,#8
        0x00000bf4:    4803        .H      LDR      r0,[pc,#12] ; [0xc04] = 0x20000174
        0x00000bf6:    f002fe31    ..1.    BL       _SendStringToMETER ; 0x385c
        0x00000bfa:    bdf8        ..      POP      {r3-r7,pc}
        0x00000bfc:    71e1        .q      STRB     r1,[r4,#7]
        0x00000bfe:    bdf8        ..      POP      {r3-r7,pc}
    $d
        0x00000c00:    200000b9    ...     DCD    536871097
        0x00000c04:    20000174    t..     DCD    536871284
    $t
    i.DefaultStateSetup
    DefaultStateSetup
        0x00000c08:    b510        ..      PUSH     {r4,lr}
        0x00000c0a:    4808        .H      LDR      r0,[pc,#32] ; [0xc2c] = 0x200002d4
        0x00000c0c:    2400        .$      MOVS     r4,#0
        0x00000c0e:    7841        Ax      LDRB     r1,[r0,#1]
        0x00000c10:    2201        ."      MOVS     r2,#1
        0x00000c12:    4807        .H      LDR      r0,[pc,#28] ; [0xc30] = 0x2000002c
        0x00000c14:    4b07        .K      LDR      r3,[pc,#28] ; [0xc34] = 0x500042c0
        0x00000c16:    2902        .)      CMP      r1,#2
        0x00000c18:    d004        ..      BEQ      0xc24 ; DefaultStateSetup + 28
        0x00000c1a:    2903        .)      CMP      r1,#3
        0x00000c1c:    d002        ..      BEQ      0xc24 ; DefaultStateSetup + 28
        0x00000c1e:    7742        Bw      STRB     r2,[r0,#0x1d]
        0x00000c20:    61da        .a      STR      r2,[r3,#0x1c]
        0x00000c22:    bd10        ..      POP      {r4,pc}
        0x00000c24:    7742        Bw      STRB     r2,[r0,#0x1d]
        0x00000c26:    61dc        .a      STR      r4,[r3,#0x1c]
        0x00000c28:    bd10        ..      POP      {r4,pc}
    $d
        0x00000c2a:    0000        ..      DCW    0
        0x00000c2c:    200002d4    ...     DCD    536871636
        0x00000c30:    2000002c    ,..     DCD    536870956
        0x00000c34:    500042c0    .B.P    DCD    1342194368
    $t
    i.DefaultValueTest
    DefaultValueTest
        0x00000c38:    b5f0        ..      PUSH     {r4-r7,lr}
        0x00000c3a:    483c        <H      LDR      r0,[pc,#240] ; [0xd2c] = 0x2000002c
        0x00000c3c:    4d3c        <M      LDR      r5,[pc,#240] ; [0xd30] = 0x200002d4
        0x00000c3e:    2600        .&      MOVS     r6,#0
        0x00000c40:    75c6        .u      STRB     r6,[r0,#0x17]
        0x00000c42:    2003        .       MOVS     r0,#3
        0x00000c44:    7068        hp      STRB     r0,[r5,#1]
        0x00000c46:    70ae        .p      STRB     r6,[r5,#2]
        0x00000c48:    2004        .       MOVS     r0,#4
        0x00000c4a:    7168        hq      STRB     r0,[r5,#5]
        0x00000c4c:    2002        .       MOVS     r0,#2
        0x00000c4e:    7128        (q      STRB     r0,[r5,#4]
        0x00000c50:    201c        .       MOVS     r0,#0x1c
        0x00000c52:    71a8        .q      STRB     r0,[r5,#6]
        0x00000c54:    2006        .       MOVS     r0,#6
        0x00000c56:    70e8        .p      STRB     r0,[r5,#3]
        0x00000c58:    762e        .v      STRB     r6,[r5,#0x18]
        0x00000c5a:    2062        b       MOVS     r0,#0x62
        0x00000c5c:    7768        hw      STRB     r0,[r5,#0x1d]
        0x00000c5e:    20bb        .       MOVS     r0,#0xbb
        0x00000c60:    77a8        .w      STRB     r0,[r5,#0x1e]
        0x00000c62:    2071        q       MOVS     r0,#0x71
        0x00000c64:    77e8        .w      STRB     r0,[r5,#0x1f]
        0x00000c66:    4629        )F      MOV      r1,r5
        0x00000c68:    20e0        .       MOVS     r0,#0xe0
        0x00000c6a:    3120         1      ADDS     r1,r1,#0x20
        0x00000c6c:    7008        .p      STRB     r0,[r1,#0]
        0x00000c6e:    2238        8"      MOVS     r2,#0x38
        0x00000c70:    766a        jv      STRB     r2,[r5,#0x19]
        0x00000c72:    2331        1#      MOVS     r3,#0x31
        0x00000c74:    76ab        .v      STRB     r3,[r5,#0x1a]
        0x00000c76:    2032        2       MOVS     r0,#0x32
        0x00000c78:    76e8        .v      STRB     r0,[r5,#0x1b]
        0x00000c7a:    2030        0       MOVS     r0,#0x30
        0x00000c7c:    7728        (w      STRB     r0,[r5,#0x1c]
        0x00000c7e:    4c2d        -L      LDR      r4,[pc,#180] ; [0xd34] = 0xf4240
        0x00000c80:    626c        lb      STR      r4,[r5,#0x24]
        0x00000c82:    760e        .v      STRB     r6,[r1,#0x18]
        0x00000c84:    2066        f       MOVS     r0,#0x66
        0x00000c86:    7748        Hw      STRB     r0,[r1,#0x1d]
        0x00000c88:    2755        U'      MOVS     r7,#0x55
        0x00000c8a:    778f        .w      STRB     r7,[r1,#0x1e]
        0x00000c8c:    20d7        .       MOVS     r0,#0xd7
        0x00000c8e:    77c8        .w      STRB     r0,[r1,#0x1f]
        0x00000c90:    4608        .F      MOV      r0,r1
        0x00000c92:    3020         0      ADDS     r0,r0,#0x20
        0x00000c94:    7007        .p      STRB     r7,[r0,#0]
        0x00000c96:    764a        Jv      STRB     r2,[r1,#0x19]
        0x00000c98:    768b        .v      STRB     r3,[r1,#0x1a]
        0x00000c9a:    2732        2'      MOVS     r7,#0x32
        0x00000c9c:    76cf        .v      STRB     r7,[r1,#0x1b]
        0x00000c9e:    770b        .w      STRB     r3,[r1,#0x1c]
        0x00000ca0:    646c        ld      STR      r4,[r5,#0x44]
        0x00000ca2:    7606        .v      STRB     r6,[r0,#0x18]
        0x00000ca4:    213f        ?!      MOVS     r1,#0x3f
        0x00000ca6:    7741        Aw      STRB     r1,[r0,#0x1d]
        0x00000ca8:    2101        .!      MOVS     r1,#1
        0x00000caa:    7781        .w      STRB     r1,[r0,#0x1e]
        0x00000cac:    213a        :!      MOVS     r1,#0x3a
        0x00000cae:    77c1        .w      STRB     r1,[r0,#0x1f]
        0x00000cb0:    4601        .F      MOV      r1,r0
        0x00000cb2:    27f5        .'      MOVS     r7,#0xf5
        0x00000cb4:    3120         1      ADDS     r1,r1,#0x20
        0x00000cb6:    700f        .p      STRB     r7,[r1,#0]
        0x00000cb8:    7642        Bv      STRB     r2,[r0,#0x19]
        0x00000cba:    7683        .v      STRB     r3,[r0,#0x1a]
        0x00000cbc:    2732        2'      MOVS     r7,#0x32
        0x00000cbe:    76c7        .v      STRB     r7,[r0,#0x1b]
        0x00000cc0:    7707        .w      STRB     r7,[r0,#0x1c]
        0x00000cc2:    666c        lf      STR      r4,[r5,#0x64]
        0x00000cc4:    760e        .v      STRB     r6,[r1,#0x18]
        0x00000cc6:    2067        g       MOVS     r0,#0x67
        0x00000cc8:    7748        Hw      STRB     r0,[r1,#0x1d]
        0x00000cca:    2009        .       MOVS     r0,#9
        0x00000ccc:    7788        .w      STRB     r0,[r1,#0x1e]
        0x00000cce:    20bd        .       MOVS     r0,#0xbd
        0x00000cd0:    77c8        .w      STRB     r0,[r1,#0x1f]
        0x00000cd2:    4608        .F      MOV      r0,r1
        0x00000cd4:    25a5        .%      MOVS     r5,#0xa5
        0x00000cd6:    3020         0      ADDS     r0,r0,#0x20
        0x00000cd8:    7005        .p      STRB     r5,[r0,#0]
        0x00000cda:    764a        Jv      STRB     r2,[r1,#0x19]
        0x00000cdc:    768b        .v      STRB     r3,[r1,#0x1a]
        0x00000cde:    76cf        .v      STRB     r7,[r1,#0x1b]
        0x00000ce0:    2533        3%      MOVS     r5,#0x33
        0x00000ce2:    770d        .w      STRB     r5,[r1,#0x1c]
        0x00000ce4:    2680        .&      MOVS     r6,#0x80
        0x00000ce6:    6044        D`      STR      r4,[r0,#4]
        0x00000ce8:    7606        .v      STRB     r6,[r0,#0x18]
        0x00000cea:    27b5        .'      MOVS     r7,#0xb5
        0x00000cec:    7747        Gw      STRB     r7,[r0,#0x1d]
        0x00000cee:    217b        {!      MOVS     r1,#0x7b
        0x00000cf0:    7781        .w      STRB     r1,[r0,#0x1e]
        0x00000cf2:    218c        .!      MOVS     r1,#0x8c
        0x00000cf4:    77c1        .w      STRB     r1,[r0,#0x1f]
        0x00000cf6:    4601        .F      MOV      r1,r0
        0x00000cf8:    2505        .%      MOVS     r5,#5
        0x00000cfa:    3120         1      ADDS     r1,r1,#0x20
        0x00000cfc:    700d        .p      STRB     r5,[r1,#0]
        0x00000cfe:    7642        Bv      STRB     r2,[r0,#0x19]
        0x00000d00:    7683        .v      STRB     r3,[r0,#0x1a]
        0x00000d02:    2536        6%      MOVS     r5,#0x36
        0x00000d04:    76c5        .v      STRB     r5,[r0,#0x1b]
        0x00000d06:    7702        .w      STRB     r2,[r0,#0x1c]
        0x00000d08:    6244        Db      STR      r4,[r0,#0x24]
        0x00000d0a:    760e        .v      STRB     r6,[r1,#0x18]
        0x00000d0c:    774f        Ow      STRB     r7,[r1,#0x1d]
        0x00000d0e:    26e8        .&      MOVS     r6,#0xe8
        0x00000d10:    778e        .w      STRB     r6,[r1,#0x1e]
        0x00000d12:    26df        .&      MOVS     r6,#0xdf
        0x00000d14:    77ce        .w      STRB     r6,[r1,#0x1f]
        0x00000d16:    26a5        .&      MOVS     r6,#0xa5
        0x00000d18:    4607        .F      MOV      r7,r0
        0x00000d1a:    3740        @7      ADDS     r7,r7,#0x40
        0x00000d1c:    703e        >p      STRB     r6,[r7,#0]
        0x00000d1e:    764a        Jv      STRB     r2,[r1,#0x19]
        0x00000d20:    768b        .v      STRB     r3,[r1,#0x1a]
        0x00000d22:    76cd        .v      STRB     r5,[r1,#0x1b]
        0x00000d24:    770a        .w      STRB     r2,[r1,#0x1c]
        0x00000d26:    6444        Dd      STR      r4,[r0,#0x44]
        0x00000d28:    bdf0        ..      POP      {r4-r7,pc}
    $d
        0x00000d2a:    0000        ..      DCW    0
        0x00000d2c:    2000002c    ,..     DCD    536870956
        0x00000d30:    200002d4    ...     DCD    536871636
        0x00000d34:    000f4240    @B..    DCD    1000000
    $t
    i.DigitMeterPowerON
    DigitMeterPowerON
        0x00000d38:    4901        .I      LDR      r1,[pc,#4] ; [0xd40] = 0x200000b9
        0x00000d3a:    2003        .       MOVS     r0,#3
        0x00000d3c:    7108        .q      STRB     r0,[r1,#4]
        0x00000d3e:    4770        pG      BX       lr
    $d
        0x00000d40:    200000b9    ...     DCD    536871097
    $t
    i.DisableHostUartTx
    DisableHostUartTx
        0x00000d44:    4805        .H      LDR      r0,[pc,#20] ; [0xd5c] = 0x50000040
        0x00000d46:    6881        .h      LDR      r1,[r0,#8]
        0x00000d48:    22f0        ."      MOVS     r2,#0xf0
        0x00000d4a:    4391        .C      BICS     r1,r1,r2
        0x00000d4c:    6081        .`      STR      r1,[r0,#8]
        0x00000d4e:    4804        .H      LDR      r0,[pc,#16] ; [0xd60] = 0x500040c0
        0x00000d50:    6801        .h      LDR      r1,[r0,#0]
        0x00000d52:    220c        ."      MOVS     r2,#0xc
        0x00000d54:    4311        .C      ORRS     r1,r1,r2
        0x00000d56:    6001        .`      STR      r1,[r0,#0]
        0x00000d58:    4770        pG      BX       lr
    $d
        0x00000d5a:    0000        ..      DCW    0
        0x00000d5c:    50000040    @..P    DCD    1342177344
        0x00000d60:    500040c0    .@.P    DCD    1342193856
    $t
    i.EnableHostUartTx
    EnableHostUartTx
        0x00000d64:    4804        .H      LDR      r0,[pc,#16] ; [0xd78] = 0x50000040
        0x00000d66:    6881        .h      LDR      r1,[r0,#8]
        0x00000d68:    0a09        ..      LSRS     r1,r1,#8
        0x00000d6a:    0209        ..      LSLS     r1,r1,#8
        0x00000d6c:    6081        .`      STR      r1,[r0,#8]
        0x00000d6e:    6881        .h      LDR      r1,[r0,#8]
        0x00000d70:    2233        3"      MOVS     r2,#0x33
        0x00000d72:    4311        .C      ORRS     r1,r1,r2
        0x00000d74:    6081        .`      STR      r1,[r0,#8]
        0x00000d76:    4770        pG      BX       lr
    $d
        0x00000d78:    50000040    @..P    DCD    1342177344
    $t
    i.GPIO_Mode_Init
    GPIO_Mode_Init
        0x00000d7c:    b5f0        ..      PUSH     {r4-r7,lr}
        0x00000d7e:    483e        >H      LDR      r0,[pc,#248] ; [0xe78] = 0x50004000
        0x00000d80:    6801        .h      LDR      r1,[r0,#0]
        0x00000d82:    0889        ..      LSRS     r1,r1,#2
        0x00000d84:    0089        ..      LSLS     r1,r1,#2
        0x00000d86:    1c49        I.      ADDS     r1,r1,#1
        0x00000d88:    6001        .`      STR      r1,[r0,#0]
        0x00000d8a:    6801        .h      LDR      r1,[r0,#0]
        0x00000d8c:    250c        .%      MOVS     r5,#0xc
        0x00000d8e:    43a9        .C      BICS     r1,r1,r5
        0x00000d90:    1d09        ..      ADDS     r1,r1,#4
        0x00000d92:    6001        .`      STR      r1,[r0,#0]
        0x00000d94:    6802        .h      LDR      r2,[r0,#0]
        0x00000d96:    2130        0!      MOVS     r1,#0x30
        0x00000d98:    438a        .C      BICS     r2,r2,r1
        0x00000d9a:    3210        .2      ADDS     r2,r2,#0x10
        0x00000d9c:    6002        .`      STR      r2,[r0,#0]
        0x00000d9e:    6803        .h      LDR      r3,[r0,#0]
        0x00000da0:    22c0        ."      MOVS     r2,#0xc0
        0x00000da2:    4393        .C      BICS     r3,r3,r2
        0x00000da4:    3340        @3      ADDS     r3,r3,#0x40
        0x00000da6:    6003        .`      STR      r3,[r0,#0]
        0x00000da8:    4833        3H      LDR      r0,[pc,#204] ; [0xe78] = 0x50004000
        0x00000daa:    3040        @0      ADDS     r0,r0,#0x40
        0x00000dac:    6803        .h      LDR      r3,[r0,#0]
        0x00000dae:    089b        ..      LSRS     r3,r3,#2
        0x00000db0:    009b        ..      LSLS     r3,r3,#2
        0x00000db2:    1c5b        [.      ADDS     r3,r3,#1
        0x00000db4:    6003        .`      STR      r3,[r0,#0]
        0x00000db6:    6803        .h      LDR      r3,[r0,#0]
        0x00000db8:    43ab        .C      BICS     r3,r3,r5
        0x00000dba:    1d1b        ..      ADDS     r3,r3,#4
        0x00000dbc:    6003        .`      STR      r3,[r0,#0]
        0x00000dbe:    6803        .h      LDR      r3,[r0,#0]
        0x00000dc0:    430b        .C      ORRS     r3,r3,r1
        0x00000dc2:    6003        .`      STR      r3,[r0,#0]
        0x00000dc4:    6803        .h      LDR      r3,[r0,#0]
        0x00000dc6:    4313        .C      ORRS     r3,r3,r2
        0x00000dc8:    6003        .`      STR      r3,[r0,#0]
        0x00000dca:    6804        .h      LDR      r4,[r0,#0]
        0x00000dcc:    010b        ..      LSLS     r3,r1,#4
        0x00000dce:    431c        .C      ORRS     r4,r4,r3
        0x00000dd0:    6004        .`      STR      r4,[r0,#0]
        0x00000dd2:    6804        .h      LDR      r4,[r0,#0]
        0x00000dd4:    018e        ..      LSLS     r6,r1,#6
        0x00000dd6:    4334        4C      ORRS     r4,r4,r6
        0x00000dd8:    6004        .`      STR      r4,[r0,#0]
        0x00000dda:    6804        .h      LDR      r4,[r0,#0]
        0x00000ddc:    020e        ..      LSLS     r6,r1,#8
        0x00000dde:    4334        4C      ORRS     r4,r4,r6
        0x00000de0:    6004        .`      STR      r4,[r0,#0]
        0x00000de2:    6806        .h      LDR      r6,[r0,#0]
        0x00000de4:    028c        ..      LSLS     r4,r1,#10
        0x00000de6:    4326        &C      ORRS     r6,r6,r4
        0x00000de8:    6006        .`      STR      r6,[r0,#0]
        0x00000dea:    4823        #H      LDR      r0,[pc,#140] ; [0xe78] = 0x50004000
        0x00000dec:    3080        .0      ADDS     r0,r0,#0x80
        0x00000dee:    6806        .h      LDR      r6,[r0,#0]
        0x00000df0:    08b6        ..      LSRS     r6,r6,#2
        0x00000df2:    00b6        ..      LSLS     r6,r6,#2
        0x00000df4:    1c76        v.      ADDS     r6,r6,#1
        0x00000df6:    6006        .`      STR      r6,[r0,#0]
        0x00000df8:    6806        .h      LDR      r6,[r0,#0]
        0x00000dfa:    43ae        .C      BICS     r6,r6,r5
        0x00000dfc:    1d36        6.      ADDS     r6,r6,#4
        0x00000dfe:    6006        .`      STR      r6,[r0,#0]
        0x00000e00:    6805        .h      LDR      r5,[r0,#0]
        0x00000e02:    439d        .C      BICS     r5,r5,r3
        0x00000e04:    35ff        .5      ADDS     r5,r5,#0xff
        0x00000e06:    3501        .5      ADDS     r5,#1
        0x00000e08:    6005        .`      STR      r5,[r0,#0]
        0x00000e0a:    481b        .H      LDR      r0,[pc,#108] ; [0xe78] = 0x50004000
        0x00000e0c:    30c0        .0      ADDS     r0,r0,#0xc0
        0x00000e0e:    6805        .h      LDR      r5,[r0,#0]
        0x00000e10:    438d        .C      BICS     r5,r5,r1
        0x00000e12:    3510        .5      ADDS     r5,r5,#0x10
        0x00000e14:    6005        .`      STR      r5,[r0,#0]
        0x00000e16:    6805        .h      LDR      r5,[r0,#0]
        0x00000e18:    4395        .C      BICS     r5,r5,r2
        0x00000e1a:    3540        @5      ADDS     r5,r5,#0x40
        0x00000e1c:    6005        .`      STR      r5,[r0,#0]
        0x00000e1e:    6806        .h      LDR      r6,[r0,#0]
        0x00000e20:    2501        .%      MOVS     r5,#1
        0x00000e22:    43a6        .C      BICS     r6,r6,r4
        0x00000e24:    03ad        ..      LSLS     r5,r5,#14
        0x00000e26:    1976        v.      ADDS     r6,r6,r5
        0x00000e28:    6006        .`      STR      r6,[r0,#0]
        0x00000e2a:    4814        .H      LDR      r0,[pc,#80] ; [0xe7c] = 0x50004100
        0x00000e2c:    6806        .h      LDR      r6,[r0,#0]
        0x00000e2e:    08b6        ..      LSRS     r6,r6,#2
        0x00000e30:    00b6        ..      LSLS     r6,r6,#2
        0x00000e32:    1c76        v.      ADDS     r6,r6,#1
        0x00000e34:    6006        .`      STR      r6,[r0,#0]
        0x00000e36:    6806        .h      LDR      r6,[r0,#0]
        0x00000e38:    040f        ..      LSLS     r7,r1,#16
        0x00000e3a:    43be        .C      BICS     r6,r6,r7
        0x00000e3c:    01af        ..      LSLS     r7,r5,#6
        0x00000e3e:    19f6        ..      ADDS     r6,r6,r7
        0x00000e40:    6006        .`      STR      r6,[r0,#0]
        0x00000e42:    6806        .h      LDR      r6,[r0,#0]
        0x00000e44:    048f        ..      LSLS     r7,r1,#18
        0x00000e46:    43be        .C      BICS     r6,r6,r7
        0x00000e48:    022f        /.      LSLS     r7,r5,#8
        0x00000e4a:    19f6        ..      ADDS     r6,r6,r7
        0x00000e4c:    6006        .`      STR      r6,[r0,#0]
        0x00000e4e:    480b        .H      LDR      r0,[pc,#44] ; [0xe7c] = 0x50004100
        0x00000e50:    3040        @0      ADDS     r0,r0,#0x40
        0x00000e52:    6806        .h      LDR      r6,[r0,#0]
        0x00000e54:    438e        .C      BICS     r6,r6,r1
        0x00000e56:    3610        .6      ADDS     r6,r6,#0x10
        0x00000e58:    6006        .`      STR      r6,[r0,#0]
        0x00000e5a:    6801        .h      LDR      r1,[r0,#0]
        0x00000e5c:    4391        .C      BICS     r1,r1,r2
        0x00000e5e:    3140        @1      ADDS     r1,r1,#0x40
        0x00000e60:    6001        .`      STR      r1,[r0,#0]
        0x00000e62:    6801        .h      LDR      r1,[r0,#0]
        0x00000e64:    4399        .C      BICS     r1,r1,r3
        0x00000e66:    31ff        .1      ADDS     r1,r1,#0xff
        0x00000e68:    3101        .1      ADDS     r1,#1
        0x00000e6a:    6001        .`      STR      r1,[r0,#0]
        0x00000e6c:    6801        .h      LDR      r1,[r0,#0]
        0x00000e6e:    43a1        .C      BICS     r1,r1,r4
        0x00000e70:    1949        I.      ADDS     r1,r1,r5
        0x00000e72:    6001        .`      STR      r1,[r0,#0]
        0x00000e74:    bdf0        ..      POP      {r4-r7,pc}
    $d
        0x00000e76:    0000        ..      DCW    0
        0x00000e78:    50004000    .@.P    DCD    1342193664
        0x00000e7c:    50004100    .A.P    DCD    1342193920
    $t
    i.GetMeterWattProc
    GetMeterWattProc
        0x00000e80:    b5f0        ..      PUSH     {r4-r7,lr}
        0x00000e82:    4a24        $J      LDR      r2,[pc,#144] ; [0xf14] = 0x20000194
        0x00000e84:    4822        "H      LDR      r0,[pc,#136] ; [0xf10] = 0x20000047
        0x00000e86:    7955        Uy      LDRB     r5,[r2,#5]
        0x00000e88:    7914        .y      LDRB     r4,[r2,#4]
        0x00000e8a:    7993        .y      LDRB     r3,[r2,#6]
        0x00000e8c:    7801        .x      LDRB     r1,[r0,#0]
        0x00000e8e:    0628        (.      LSLS     r0,r5,#24
        0x00000e90:    78d2        .x      LDRB     r2,[r2,#3]
        0x00000e92:    1826        &.      ADDS     r6,r4,r0
        0x00000e94:    0418        ..      LSLS     r0,r3,#16
        0x00000e96:    0217        ..      LSLS     r7,r2,#8
        0x00000e98:    19c0        ..      ADDS     r0,r0,r7
        0x00000e9a:    1830        0.      ADDS     r0,r6,r0
        0x00000e9c:    2901        .)      CMP      r1,#1
        0x00000e9e:    d007        ..      BEQ      0xeb0 ; GetMeterWattProc + 48
        0x00000ea0:    2902        .)      CMP      r1,#2
        0x00000ea2:    d105        ..      BNE      0xeb0 ; GetMeterWattProc + 48
        0x00000ea4:    0610        ..      LSLS     r0,r2,#24
        0x00000ea6:    0421        !.      LSLS     r1,r4,#16
        0x00000ea8:    022a        *.      LSLS     r2,r5,#8
        0x00000eaa:    1818        ..      ADDS     r0,r3,r0
        0x00000eac:    1889        ..      ADDS     r1,r1,r2
        0x00000eae:    1840        @.      ADDS     r0,r0,r1
        0x00000eb0:    4919        .I      LDR      r1,[pc,#100] ; [0xf18] = 0x2000004b
        0x00000eb2:    2500        .%      MOVS     r5,#0
        0x00000eb4:    780a        .x      LDRB     r2,[r1,#0]
        0x00000eb6:    4e19        .N      LDR      r6,[pc,#100] ; [0xf1c] = 0x200002d4
        0x00000eb8:    4f19        .O      LDR      r7,[pc,#100] ; [0xf20] = 0x20000078
        0x00000eba:    4c1a        .L      LDR      r4,[pc,#104] ; [0xf24] = 0x2000007c
        0x00000ebc:    2a00        .*      CMP      r2,#0
        0x00000ebe:    d003        ..      BEQ      0xec8 ; GetMeterWattProc + 72
        0x00000ec0:    700d        .p      STRB     r5,[r1,#0]
        0x00000ec2:    6038        8`      STR      r0,[r7,#0]
        0x00000ec4:    6020         `      STR      r0,[r4,#0]
        0x00000ec6:    60f0        .`      STR      r0,[r6,#0xc]
        0x00000ec8:    4b17        .K      LDR      r3,[pc,#92] ; [0xf28] = 0x200000b2
        0x00000eca:    683a        :h      LDR      r2,[r7,#0]
        0x00000ecc:    7819        .x      LDRB     r1,[r3,#0]
        0x00000ece:    1c49        I.      ADDS     r1,r1,#1
        0x00000ed0:    b2c9        ..      UXTB     r1,r1
        0x00000ed2:    4290        .B      CMP      r0,r2
        0x00000ed4:    d315        ..      BCC      0xf02 ; GetMeterWattProc + 130
        0x00000ed6:    4290        .B      CMP      r0,r2
        0x00000ed8:    d00a        ..      BEQ      0xef0 ; GetMeterWattProc + 112
        0x00000eda:    1a82        ..      SUBS     r2,r0,r2
        0x00000edc:    2ac8        .*      CMP      r2,#0xc8
        0x00000ede:    d208        ..      BCS      0xef2 ; GetMeterWattProc + 114
        0x00000ee0:    6038        8`      STR      r0,[r7,#0]
        0x00000ee2:    6821        !h      LDR      r1,[r4,#0]
        0x00000ee4:    4288        .B      CMP      r0,r1
        0x00000ee6:    d002        ..      BEQ      0xeee ; GetMeterWattProc + 110
        0x00000ee8:    6020         `      STR      r0,[r4,#0]
        0x00000eea:    6838        8h      LDR      r0,[r7,#0]
        0x00000eec:    e00e        ..      B        0xf0c ; GetMeterWattProc + 140
        0x00000eee:    701d        .p      STRB     r5,[r3,#0]
        0x00000ef0:    bdf0        ..      POP      {r4-r7,pc}
        0x00000ef2:    7019        .p      STRB     r1,[r3,#0]
        0x00000ef4:    2903        .)      CMP      r1,#3
        0x00000ef6:    d9fb        ..      BLS      0xef0 ; GetMeterWattProc + 112
        0x00000ef8:    6038        8`      STR      r0,[r7,#0]
        0x00000efa:    6020         `      STR      r0,[r4,#0]
        0x00000efc:    701d        .p      STRB     r5,[r3,#0]
        0x00000efe:    60f0        .`      STR      r0,[r6,#0xc]
        0x00000f00:    bdf0        ..      POP      {r4-r7,pc}
        0x00000f02:    7019        .p      STRB     r1,[r3,#0]
        0x00000f04:    2905        .)      CMP      r1,#5
        0x00000f06:    d9fb        ..      BLS      0xf00 ; GetMeterWattProc + 128
        0x00000f08:    6038        8`      STR      r0,[r7,#0]
        0x00000f0a:    6020         `      STR      r0,[r4,#0]
        0x00000f0c:    60f0        .`      STR      r0,[r6,#0xc]
        0x00000f0e:    e7ee        ..      B        0xeee ; GetMeterWattProc + 110
    $d
        0x00000f10:    20000047    G..     DCD    536870983
        0x00000f14:    20000194    ...     DCD    536871316
        0x00000f18:    2000004b    K..     DCD    536870987
        0x00000f1c:    200002d4    ...     DCD    536871636
        0x00000f20:    20000078    x..     DCD    536871032
        0x00000f24:    2000007c    |..     DCD    536871036
        0x00000f28:    200000b2    ...     DCD    536871090
    $t
    i.Hard_Fault_Handler
    Hard_Fault_Handler
    __tagsym$$used
        0x00000f2c:    4604        .F      MOV      r4,r0
        0x00000f2e:    a007        ..      ADR      r0,{pc}+0x1e ; 0xf4c
        0x00000f30:    f002fcf8    ....    BL       __0printf$5 ; 0x3924
        0x00000f34:    4620         F      MOV      r0,r4
        0x00000f36:    f002ffa3    ....    BL       stackDump ; 0x3e80
        0x00000f3a:    f3bf8f4f    ..O.    DSB      
        0x00000f3e:    490a        .I      LDR      r1,[pc,#40] ; [0xf68] = 0xe000ed00
        0x00000f40:    4808        .H      LDR      r0,[pc,#32] ; [0xf64] = 0x5fa0004
        0x00000f42:    60c8        .`      STR      r0,[r1,#0xc]
        0x00000f44:    f3bf8f4f    ..O.    DSB      
        0x00000f48:    bf00        ..      NOP      
        0x00000f4a:    e7fd        ..      B        0xf48 ; Hard_Fault_Handler + 28
    $d
        0x00000f4c:    48206e49    In H    DCD    1210084937
        0x00000f50:    20647261    ard     DCD    543453793
        0x00000f54:    6c756146    Faul    DCD    1819631942
        0x00000f58:    61482074    t Ha    DCD    1632116852
        0x00000f5c:    656c646e    ndle    DCD    1701602414
        0x00000f60:    00000a72    r...    DCD    2674
        0x00000f64:    05fa0004    ....    DCD    100270084
        0x00000f68:    e000ed00    ....    DCD    3758157056
    $t
    i.HostProcess
    HostProcess
        0x00000f6c:    b5f8        ..      PUSH     {r3-r7,lr}
        0x00000f6e:    4d5a        ZM      LDR      r5,[pc,#360] ; [0x10d8] = 0x20000045
        0x00000f70:    2600        .&      MOVS     r6,#0
        0x00000f72:    7828        (x      LDRB     r0,[r5,#0]
        0x00000f74:    28c8        .(      CMP      r0,#0xc8
        0x00000f76:    d304        ..      BCC      0xf82 ; HostProcess + 22
        0x00000f78:    702e        .p      STRB     r6,[r5,#0]
        0x00000f7a:    f000ff5d    ..].    BL       ResetHostUART ; 0x1e38
        0x00000f7e:    f002f8bd    ....    BL       UART0_Init ; 0x30fc
        0x00000f82:    4856        VH      LDR      r0,[pc,#344] ; [0x10dc] = 0x20000032
        0x00000f84:    4f56        VO      LDR      r7,[pc,#344] ; [0x10e0] = 0x2000000c
        0x00000f86:    7801        .x      LDRB     r1,[r0,#0]
        0x00000f88:    4c56        VL      LDR      r4,[pc,#344] ; [0x10e4] = 0x200000a4
        0x00000f8a:    2900        .)      CMP      r1,#0
        0x00000f8c:    d07b        {.      BEQ      0x1086 ; HostProcess + 282
        0x00000f8e:    7006        .p      STRB     r6,[r0,#0]
        0x00000f90:    2300        .#      MOVS     r3,#0
        0x00000f92:    4955        UI      LDR      r1,[pc,#340] ; [0x10e8] = 0x20000104
        0x00000f94:    702e        .p      STRB     r6,[r5,#0]
        0x00000f96:    4618        .F      MOV      r0,r3
        0x00000f98:    2201        ."      MOVS     r2,#1
        0x00000f9a:    5c8d        .\      LDRB     r5,[r1,r2]
        0x00000f9c:    1c52        R.      ADDS     r2,r2,#1
        0x00000f9e:    1828        (.      ADDS     r0,r5,r0
        0x00000fa0:    b2d2        ..      UXTB     r2,r2
        0x00000fa2:    b2c0        ..      UXTB     r0,r0
        0x00000fa4:    2a36        6*      CMP      r2,#0x36
        0x00000fa6:    d3f8        ..      BCC      0xf9a ; HostProcess + 46
        0x00000fa8:    71e0        .q      STRB     r0,[r4,#7]
        0x00000faa:    780a        .x      LDRB     r2,[r1,#0]
        0x00000fac:    2a55        U*      CMP      r2,#0x55
        0x00000fae:    d107        ..      BNE      0xfc0 ; HostProcess + 84
        0x00000fb0:    4a4d        MJ      LDR      r2,[pc,#308] ; [0x10e8] = 0x20000104
        0x00000fb2:    3220         2      ADDS     r2,r2,#0x20
        0x00000fb4:    7d95        .}      LDRB     r5,[r2,#0x16]
        0x00000fb6:    4285        .B      CMP      r5,r0
        0x00000fb8:    d102        ..      BNE      0xfc0 ; HostProcess + 84
        0x00000fba:    7dd0        .}      LDRB     r0,[r2,#0x17]
        0x00000fbc:    280a        .(      CMP      r0,#0xa
        0x00000fbe:    d001        ..      BEQ      0xfc4 ; HostProcess + 88
        0x00000fc0:    2b00        .+      CMP      r3,#0
        0x00000fc2:    d05e        ^.      BEQ      0x1082 ; HostProcess + 278
        0x00000fc4:    7848        Hx      LDRB     r0,[r1,#1]
        0x00000fc6:    783a        :x      LDRB     r2,[r7,#0]
        0x00000fc8:    4290        .B      CMP      r0,r2
        0x00000fca:    d001        ..      BEQ      0xfd0 ; HostProcess + 100
        0x00000fcc:    28ff        .(      CMP      r0,#0xff
        0x00000fce:    d15a        Z.      BNE      0x1086 ; HostProcess + 282
        0x00000fd0:    4b46        FK      LDR      r3,[pc,#280] ; [0x10ec] = 0x2000008b
        0x00000fd2:    22d2        ."      MOVS     r2,#0xd2
        0x00000fd4:    701a        .p      STRB     r2,[r3,#0]
        0x00000fd6:    4a46        FJ      LDR      r2,[pc,#280] ; [0x10f0] = 0x500042c0
        0x00000fd8:    61d6        .a      STR      r6,[r2,#0x1c]
        0x00000fda:    4a46        FJ      LDR      r2,[pc,#280] ; [0x10f4] = 0x20000056
        0x00000fdc:    1e40        @.      SUBS     r0,r0,#1
        0x00000fde:    7016        .p      STRB     r6,[r2,#0]
        0x00000fe0:    71a0        .q      STRB     r0,[r4,#6]
        0x00000fe2:    4a45        EJ      LDR      r2,[pc,#276] ; [0x10f8] = 0x2000009c
        0x00000fe4:    78c8        .x      LDRB     r0,[r1,#3]
        0x00000fe6:    7010        .p      STRB     r0,[r2,#0]
        0x00000fe8:    4b44        DK      LDR      r3,[pc,#272] ; [0x10fc] = 0x20000029
        0x00000fea:    7908        .y      LDRB     r0,[r1,#4]
        0x00000fec:    781a        .x      LDRB     r2,[r3,#0]
        0x00000fee:    4002        .@      ANDS     r2,r2,r0
        0x00000ff0:    701a        .p      STRB     r2,[r3,#0]
        0x00000ff2:    0600        ..      LSLS     r0,r0,#24
        0x00000ff4:    d404        ..      BMI      0x1000 ; HostProcess + 148
        0x00000ff6:    4842        BH      LDR      r0,[pc,#264] ; [0x1100] = 0x200004d4
        0x00000ff8:    7b23        #{      LDRB     r3,[r4,#0xc]
        0x00000ffa:    7e42        B~      LDRB     r2,[r0,#0x19]
        0x00000ffc:    439a        .C      BICS     r2,r2,r3
        0x00000ffe:    7642        Bv      STRB     r2,[r0,#0x19]
        0x00001000:    4a40        @J      LDR      r2,[pc,#256] ; [0x1104] = 0x2000002a
        0x00001002:    20ff        .       MOVS     r0,#0xff
        0x00001004:    7010        .p      STRB     r0,[r2,#0]
        0x00001006:    7888        .x      LDRB     r0,[r1,#2]
        0x00001008:    2231        1"      MOVS     r2,#0x31
        0x0000100a:    3810        .8      SUBS     r0,r0,#0x10
        0x0000100c:    2530        0%      MOVS     r5,#0x30
        0x0000100e:    0003        ..      MOVS     r3,r0
        0x00001010:    f002fc98    ....    BL       __ARM_common_switch8 ; 0x3944
    $d
        0x00001014:    140b070c    ....    DCD    336267020
        0x00001018:    171c3911    .9..    DCD    387725585
        0x0000101c:    30272a1e    .*'0    DCD    807873054
        0x00001020:    3933        39      DCW    14643
    $t
        0x00001022:    7022        "p      STRB     r2,[r4,#0]
        0x00001024:    f000f87c    ..|.    BL       Host_AliveProcess ; 0x1120
        0x00001028:    e002        ..      B        0x1030 ; HostProcess + 196
        0x0000102a:    f000f933    ..3.    BL       Host_RoomSettingUpdated ; 0x1294
        0x0000102e:    e026        &.      B        0x107e ; HostProcess + 274
        0x00001030:    f7fffd6a    ..j.    BL       ClearRespDelayTimer ; 0xb08
        0x00001034:    e027        '.      B        0x1086 ; HostProcess + 282
        0x00001036:    f000f9df    ....    BL       Host_UserInfoUpdated ; 0x13f8
        0x0000103a:    e020         .      B        0x107e ; HostProcess + 274
        0x0000103c:    f000f982    ....    BL       Host_UserBalanceUpdated ; 0x1344
        0x00001040:    e01d        ..      B        0x107e ; HostProcess + 274
        0x00001042:    2032        2       MOVS     r0,#0x32
        0x00001044:    7020         p      STRB     r0,[r4,#0]
        0x00001046:    7948        Hy      LDRB     r0,[r1,#5]
        0x00001048:    7220         r      STRB     r0,[r4,#8]
        0x0000104a:    e7f1        ..      B        0x1030 ; HostProcess + 196
        0x0000104c:    7022        "p      STRB     r2,[r4,#0]
        0x0000104e:    e7ef        ..      B        0x1030 ; HostProcess + 196
        0x00001050:    4a2d        -J      LDR      r2,[pc,#180] ; [0x1108] = 0x20000094
        0x00001052:    7948        Hy      LDRB     r0,[r1,#5]
        0x00001054:    7010        .p      STRB     r0,[r2,#0]
        0x00001056:    7988        .y      LDRB     r0,[r1,#6]
        0x00001058:    492c        ,I      LDR      r1,[pc,#176] ; [0x110c] = 0x20000095
        0x0000105a:    7008        .p      STRB     r0,[r1,#0]
        0x0000105c:    2033        3       MOVS     r0,#0x33
        0x0000105e:    7020         p      STRB     r0,[r4,#0]
        0x00001060:    e7e6        ..      B        0x1030 ; HostProcess + 196
        0x00001062:    f001fefd    ....    BL       SystemSwitchProcess ; 0x2e60
        0x00001066:    e00a        ..      B        0x107e ; HostProcess + 274
        0x00001068:    4929        )I      LDR      r1,[pc,#164] ; [0x1110] = 0x2000003c
        0x0000106a:    2001        .       MOVS     r0,#1
        0x0000106c:    7008        .p      STRB     r0,[r1,#0]
        0x0000106e:    4829        )H      LDR      r0,[pc,#164] ; [0x1114] = 0x20000046
        0x00001070:    7006        .p      STRB     r6,[r0,#0]
        0x00001072:    e004        ..      B        0x107e ; HostProcess + 274
        0x00001074:    f000f984    ....    BL       Host_UserChangeMode ; 0x1380
        0x00001078:    e001        ..      B        0x107e ; HostProcess + 274
        0x0000107a:    f000fa2f    ../.    BL       Host_UserStartRCDUpdated ; 0x14dc
        0x0000107e:    7025        %p      STRB     r5,[r4,#0]
        0x00001080:    e7d6        ..      B        0x1030 ; HostProcess + 196
        0x00001082:    f000fed9    ....    BL       ResetHostUART ; 0x1e38
        0x00001086:    4824        $H      LDR      r0,[pc,#144] ; [0x1118] = 0x200000a2
        0x00001088:    7801        .x      LDRB     r1,[r0,#0]
        0x0000108a:    2900        .)      CMP      r1,#0
        0x0000108c:    d015        ..      BEQ      0x10ba ; HostProcess + 334
        0x0000108e:    4923        #I      LDR      r1,[pc,#140] ; [0x111c] = 0x2000003e
        0x00001090:    7862        bx      LDRB     r2,[r4,#1]
        0x00001092:    7809        .x      LDRB     r1,[r1,#0]
        0x00001094:    4291        .B      CMP      r1,r2
        0x00001096:    d910        ..      BLS      0x10ba ; HostProcess + 334
        0x00001098:    7006        .p      STRB     r6,[r0,#0]
        0x0000109a:    79a0        .y      LDRB     r0,[r4,#6]
        0x0000109c:    7839        9x      LDRB     r1,[r7,#0]
        0x0000109e:    1c40        @.      ADDS     r0,r0,#1
        0x000010a0:    4288        .B      CMP      r0,r1
        0x000010a2:    d10a        ..      BNE      0x10ba ; HostProcess + 334
        0x000010a4:    7820         x      LDRB     r0,[r4,#0]
        0x000010a6:    3830        08      SUBS     r0,r0,#0x30
        0x000010a8:    0003        ..      MOVS     r3,r0
        0x000010aa:    f002fc4b    ..K.    BL       __ARM_common_switch8 ; 0x3944
    $d
        0x000010ae:    0e05        ..      DCW    3589
        0x000010b0:    110b0704    ....    DCD    285935364
        0x000010b4:    0006        ..      DCW    6
    $t
        0x000010b6:    f001faad    ....    BL       SendHost_SystemInformation ; 0x2614
        0x000010ba:    bdf8        ..      POP      {r3-r7,pc}
        0x000010bc:    7a20         z      LDRB     r0,[r4,#8]
        0x000010be:    f001fb2b    ..+.    BL       SendHost_UserBalance ; 0x2718
        0x000010c2:    bdf8        ..      POP      {r3-r7,pc}
        0x000010c4:    f001f900    ....    BL       SendHost_MeterRCD ; 0x22c8
        0x000010c8:    bdf8        ..      POP      {r3-r7,pc}
        0x000010ca:    f001f8a9    ....    BL       SendHost_Ack ; 0x2220
        0x000010ce:    bdf8        ..      POP      {r3-r7,pc}
        0x000010d0:    f001fa4c    ..L.    BL       SendHost_RspInit ; 0x256c
        0x000010d4:    bdf8        ..      POP      {r3-r7,pc}
    $d
        0x000010d6:    0000        ..      DCW    0
        0x000010d8:    20000045    E..     DCD    536870981
        0x000010dc:    20000032    2..     DCD    536870962
        0x000010e0:    2000000c    ...     DCD    536870924
        0x000010e4:    200000a4    ...     DCD    536871076
        0x000010e8:    20000104    ...     DCD    536871172
        0x000010ec:    2000008b    ...     DCD    536871051
        0x000010f0:    500042c0    .B.P    DCD    1342194368
        0x000010f4:    20000056    V..     DCD    536870998
        0x000010f8:    2000009c    ...     DCD    536871068
        0x000010fc:    20000029    )..     DCD    536870953
        0x00001100:    200004d4    ...     DCD    536872148
        0x00001104:    2000002a    *..     DCD    536870954
        0x00001108:    20000094    ...     DCD    536871060
        0x0000110c:    20000095    ...     DCD    536871061
        0x00001110:    2000003c    <..     DCD    536870972
        0x00001114:    20000046    F..     DCD    536870982
        0x00001118:    200000a2    ...     DCD    536871074
        0x0000111c:    2000003e    >..     DCD    536870974
    $t
    i.Host_AliveProcess
    Host_AliveProcess
        0x00001120:    b5f8        ..      PUSH     {r3-r7,lr}
        0x00001122:    4950        PI      LDR      r1,[pc,#320] ; [0x1264] = 0x20000084
        0x00001124:    4f50        PO      LDR      r7,[pc,#320] ; [0x1268] = 0x20000104
        0x00001126:    2000        .       MOVS     r0,#0
        0x00001128:    183a        :.      ADDS     r2,r7,r0
        0x0000112a:    3220         2      ADDS     r2,r2,#0x20
        0x0000112c:    7bd2        .{      LDRB     r2,[r2,#0xf]
        0x0000112e:    540a        .T      STRB     r2,[r1,r0]
        0x00001130:    1c40        @.      ADDS     r0,r0,#1
        0x00001132:    b2c0        ..      UXTB     r0,r0
        0x00001134:    2807        .(      CMP      r0,#7
        0x00001136:    d3f7        ..      BCC      0x1128 ; Host_AliveProcess + 8
        0x00001138:    484b        KH      LDR      r0,[pc,#300] ; [0x1268] = 0x20000104
        0x0000113a:    210a        .!      MOVS     r1,#0xa
        0x0000113c:    3020         0      ADDS     r0,r0,#0x20
        0x0000113e:    7d00        .}      LDRB     r0,[r0,#0x14]
        0x00001140:    f7feffe4    ....    BL       __aeabi_uidiv ; 0x10c
        0x00001144:    4e49        IN      LDR      r6,[pc,#292] ; [0x126c] = 0x200000a4
        0x00001146:    460d        .F      MOV      r5,r1
        0x00001148:    7b70        p{      LDRB     r0,[r6,#0xd]
        0x0000114a:    21ff        .!      MOVS     r1,#0xff
        0x0000114c:    1c40        @.      ADDS     r0,r0,#1
        0x0000114e:    7370        ps      STRB     r0,[r6,#0xd]
        0x00001150:    4847        GH      LDR      r0,[pc,#284] ; [0x1270] = 0x2000002a
        0x00001152:    7001        .p      STRB     r1,[r0,#0]
        0x00001154:    7978        xy      LDRB     r0,[r7,#5]
        0x00001156:    4947        GI      LDR      r1,[pc,#284] ; [0x1274] = 0x20000093
        0x00001158:    1b40        @.      SUBS     r0,r0,r5
        0x0000115a:    b2c0        ..      UXTB     r0,r0
        0x0000115c:    7008        .p      STRB     r0,[r1,#0]
        0x0000115e:    0141        A.      LSLS     r1,r0,#5
        0x00001160:    4845        EH      LDR      r0,[pc,#276] ; [0x1278] = 0x200002d4
        0x00001162:    7b3a        :{      LDRB     r2,[r7,#0xc]
        0x00001164:    180c        ..      ADDS     r4,r1,r0
        0x00001166:    7f61        a.      LDRB     r1,[r4,#0x1d]
        0x00001168:    4291        .B      CMP      r1,r2
        0x0000116a:    d15e        ^.      BNE      0x122a ; Host_AliveProcess + 266
        0x0000116c:    7fa1        ..      LDRB     r1,[r4,#0x1e]
        0x0000116e:    7b7a        z{      LDRB     r2,[r7,#0xd]
        0x00001170:    4291        .B      CMP      r1,r2
        0x00001172:    d15a        Z.      BNE      0x122a ; Host_AliveProcess + 266
        0x00001174:    7fe1        ..      LDRB     r1,[r4,#0x1f]
        0x00001176:    7bba        .{      LDRB     r2,[r7,#0xe]
        0x00001178:    4291        .B      CMP      r1,r2
        0x0000117a:    d156        V.      BNE      0x122a ; Host_AliveProcess + 266
        0x0000117c:    2120         !      MOVS     r1,#0x20
        0x0000117e:    5d09        .]      LDRB     r1,[r1,r4]
        0x00001180:    7bfa        .{      LDRB     r2,[r7,#0xf]
        0x00001182:    4291        .B      CMP      r1,r2
        0x00001184:    d151        Q.      BNE      0x122a ; Host_AliveProcess + 266
        0x00001186:    7d39        9}      LDRB     r1,[r7,#0x14]
        0x00001188:    2988        .)      CMP      r1,#0x88
        0x0000118a:    d14c        L.      BNE      0x1226 ; Host_AliveProcess + 262
        0x0000118c:    7af9        .z      LDRB     r1,[r7,#0xb]
        0x0000118e:    29aa        .)      CMP      r1,#0xaa
        0x00001190:    d149        I.      BNE      0x1226 ; Host_AliveProcess + 262
        0x00001192:    2100        .!      MOVS     r1,#0
        0x00001194:    7371        qs      STRB     r1,[r6,#0xd]
        0x00001196:    4939        9I      LDR      r1,[pc,#228] ; [0x127c] = 0x2000009c
        0x00001198:    7809        .x      LDRB     r1,[r1,#0]
        0x0000119a:    07c9        ..      LSLS     r1,r1,#31
        0x0000119c:    d00e        ..      BEQ      0x11bc ; Host_AliveProcess + 156
        0x0000119e:    4934        4I      LDR      r1,[pc,#208] ; [0x1270] = 0x2000002a
        0x000011a0:    22fe        ."      MOVS     r2,#0xfe
        0x000011a2:    700a        .p      STRB     r2,[r1,#0]
        0x000011a4:    79b9        .y      LDRB     r1,[r7,#6]
        0x000011a6:    1b49        I.      SUBS     r1,r1,r5
        0x000011a8:    b28a        ..      UXTH     r2,r1
        0x000011aa:    79f9        .y      LDRB     r1,[r7,#7]
        0x000011ac:    1b49        I.      SUBS     r1,r1,r5
        0x000011ae:    0609        ..      LSLS     r1,r1,#24
        0x000011b0:    0e09        ..      LSRS     r1,r1,#24
        0x000011b2:    d000        ..      BEQ      0x11b6 ; Host_AliveProcess + 150
        0x000011b4:    7181        .q      STRB     r1,[r0,#6]
        0x000011b6:    b2d0        ..      UXTB     r0,r2
        0x000011b8:    f000fe62    ..b.    BL       RoomModeUpdateProcess ; 0x1e80
        0x000011bc:    482f        /H      LDR      r0,[pc,#188] ; [0x127c] = 0x2000009c
        0x000011be:    7800        .x      LDRB     r0,[r0,#0]
        0x000011c0:    0780        ..      LSLS     r0,r0,#30
        0x000011c2:    d530        0.      BPL      0x1226 ; Host_AliveProcess + 262
        0x000011c4:    4a2a        *J      LDR      r2,[pc,#168] ; [0x1270] = 0x2000002a
        0x000011c6:    21fd        .!      MOVS     r1,#0xfd
        0x000011c8:    7810        .x      LDRB     r0,[r2,#0]
        0x000011ca:    4008        .@      ANDS     r0,r0,r1
        0x000011cc:    7010        .p      STRB     r0,[r2,#0]
        0x000011ce:    7a78        xz      LDRB     r0,[r7,#9]
        0x000011d0:    7ab9        .z      LDRB     r1,[r7,#0xa]
        0x000011d2:    1b40        @.      SUBS     r0,r0,r5
        0x000011d4:    b2c2        ..      UXTB     r2,r0
        0x000011d6:    7a38        8z      LDRB     r0,[r7,#8]
        0x000011d8:    0200        ..      LSLS     r0,r0,#8
        0x000011da:    1808        ..      ADDS     r0,r1,r0
        0x000011dc:    b281        ..      UXTH     r1,r0
        0x000011de:    4828        (H      LDR      r0,[pc,#160] ; [0x1280] = 0x200004d4
        0x000011e0:    2aa5        .*      CMP      r2,#0xa5
        0x000011e2:    d002        ..      BEQ      0x11ea ; Host_AliveProcess + 202
        0x000011e4:    2a5a        Z*      CMP      r2,#0x5a
        0x000011e6:    d008        ..      BEQ      0x11fa ; Host_AliveProcess + 218
        0x000011e8:    e01d        ..      B        0x1226 ; Host_AliveProcess + 262
        0x000011ea:    2364        d#      MOVS     r3,#0x64
        0x000011ec:    6a62        bj      LDR      r2,[r4,#0x24]
        0x000011ee:    4359        YC      MULS     r1,r3,r1
        0x000011f0:    1852        R.      ADDS     r2,r2,r1
        0x000011f2:    6262        bb      STR      r2,[r4,#0x24]
        0x000011f4:    6b62        bk      LDR      r2,[r4,#0x34]
        0x000011f6:    1851        Q.      ADDS     r1,r2,r1
        0x000011f8:    e006        ..      B        0x1208 ; Host_AliveProcess + 232
        0x000011fa:    2364        d#      MOVS     r3,#0x64
        0x000011fc:    6a62        bj      LDR      r2,[r4,#0x24]
        0x000011fe:    4359        YC      MULS     r1,r3,r1
        0x00001200:    1a52        R.      SUBS     r2,r2,r1
        0x00001202:    6262        bb      STR      r2,[r4,#0x24]
        0x00001204:    6b62        bk      LDR      r2,[r4,#0x34]
        0x00001206:    1a51        Q.      SUBS     r1,r2,r1
        0x00001208:    6361        ac      STR      r1,[r4,#0x34]
        0x0000120a:    7e41        A~      LDRB     r1,[r0,#0x19]
        0x0000120c:    2210        ."      MOVS     r2,#0x10
        0x0000120e:    4311        .C      ORRS     r1,r1,r2
        0x00001210:    7641        Av      STRB     r1,[r0,#0x19]
        0x00001212:    481c        .H      LDR      r0,[pc,#112] ; [0x1284] = 0x20000027
        0x00001214:    2201        ."      MOVS     r2,#1
        0x00001216:    7801        .x      LDRB     r1,[r0,#0]
        0x00001218:    4311        .C      ORRS     r1,r1,r2
        0x0000121a:    7001        .p      STRB     r1,[r0,#0]
        0x0000121c:    481a        .H      LDR      r0,[pc,#104] ; [0x1288] = 0x20000029
        0x0000121e:    2281        ."      MOVS     r2,#0x81
        0x00001220:    7801        .x      LDRB     r1,[r0,#0]
        0x00001222:    4311        .C      ORRS     r1,r1,r2
        0x00001224:    7001        .p      STRB     r1,[r0,#0]
        0x00001226:    7bb8        .{      LDRB     r0,[r7,#0xe]
        0x00001228:    7270        pr      STRB     r0,[r6,#9]
        0x0000122a:    7d78        x}      LDRB     r0,[r7,#0x15]
        0x0000122c:    1b40        @.      SUBS     r0,r0,r5
        0x0000122e:    28a5        .(      CMP      r0,#0xa5
        0x00001230:    d108        ..      BNE      0x1244 ; Host_AliveProcess + 292
        0x00001232:    7db8        .}      LDRB     r0,[r7,#0x16]
        0x00001234:    1b40        @.      SUBS     r0,r0,r5
        0x00001236:    285a        Z(      CMP      r0,#0x5a
        0x00001238:    d104        ..      BNE      0x1244 ; Host_AliveProcess + 292
        0x0000123a:    4914        .I      LDR      r1,[pc,#80] ; [0x128c] = 0x50004240
        0x0000123c:    2000        .       MOVS     r0,#0
        0x0000123e:    6008        .`      STR      r0,[r1,#0]
        0x00001240:    4913        .I      LDR      r1,[pc,#76] ; [0x1290] = 0x20000054
        0x00001242:    7008        .p      STRB     r0,[r1,#0]
        0x00001244:    7b70        p{      LDRB     r0,[r6,#0xd]
        0x00001246:    281e        .(      CMP      r0,#0x1e
        0x00001248:    d905        ..      BLS      0x1256 ; Host_AliveProcess + 310
        0x0000124a:    2000        .       MOVS     r0,#0
        0x0000124c:    7370        ps      STRB     r0,[r6,#0xd]
        0x0000124e:    7af0        .z      LDRB     r0,[r6,#0xb]
        0x00001250:    2101        .!      MOVS     r1,#1
        0x00001252:    4308        .C      ORRS     r0,r0,r1
        0x00001254:    72f0        .r      STRB     r0,[r6,#0xb]
        0x00001256:    7df8        .}      LDRB     r0,[r7,#0x17]
        0x00001258:    2866        f(      CMP      r0,#0x66
        0x0000125a:    d101        ..      BNE      0x1260 ; Host_AliveProcess + 320
        0x0000125c:    f000fdec    ....    BL       ResetHostUART ; 0x1e38
        0x00001260:    bdf8        ..      POP      {r3-r7,pc}
    $d
        0x00001262:    0000        ..      DCW    0
        0x00001264:    20000084    ...     DCD    536871044
        0x00001268:    20000104    ...     DCD    536871172
        0x0000126c:    200000a4    ...     DCD    536871076
        0x00001270:    2000002a    *..     DCD    536870954
        0x00001274:    20000093    ...     DCD    536871059
        0x00001278:    200002d4    ...     DCD    536871636
        0x0000127c:    2000009c    ...     DCD    536871068
        0x00001280:    200004d4    ...     DCD    536872148
        0x00001284:    20000027    '..     DCD    536870951
        0x00001288:    20000029    )..     DCD    536870953
        0x0000128c:    50004240    @B.P    DCD    1342194240
        0x00001290:    20000054    T..     DCD    536870996
    $t
    i.Host_RoomSettingUpdated
    Host_RoomSettingUpdated
        0x00001294:    b5f8        ..      PUSH     {r3-r7,lr}
        0x00001296:    4a24        $J      LDR      r2,[pc,#144] ; [0x1328] = 0x20000084
        0x00001298:    4c24        $L      LDR      r4,[pc,#144] ; [0x132c] = 0x20000104
        0x0000129a:    2000        .       MOVS     r0,#0
        0x0000129c:    1821        !.      ADDS     r1,r4,r0
        0x0000129e:    3120         1      ADDS     r1,r1,#0x20
        0x000012a0:    7bc9        .{      LDRB     r1,[r1,#0xf]
        0x000012a2:    5411        .T      STRB     r1,[r2,r0]
        0x000012a4:    1c40        @.      ADDS     r0,r0,#1
        0x000012a6:    b2c0        ..      UXTB     r0,r0
        0x000012a8:    2807        .(      CMP      r0,#7
        0x000012aa:    d3f7        ..      BCC      0x129c ; Host_RoomSettingUpdated + 8
        0x000012ac:    481f        .H      LDR      r0,[pc,#124] ; [0x132c] = 0x20000104
        0x000012ae:    210a        .!      MOVS     r1,#0xa
        0x000012b0:    3020         0      ADDS     r0,r0,#0x20
        0x000012b2:    7d00        .}      LDRB     r0,[r0,#0x14]
        0x000012b4:    f7feff2a    ..*.    BL       __aeabi_uidiv ; 0x10c
        0x000012b8:    4a1c        .J      LDR      r2,[pc,#112] ; [0x132c] = 0x20000104
        0x000012ba:    4b1d        .K      LDR      r3,[pc,#116] ; [0x1330] = 0x200002d4
        0x000012bc:    7950        Py      LDRB     r0,[r2,#5]
        0x000012be:    4d1d        .M      LDR      r5,[pc,#116] ; [0x1334] = 0x200000c5
        0x000012c0:    1a40        @.      SUBS     r0,r0,r1
        0x000012c2:    7018        .p      STRB     r0,[r3,#0]
        0x000012c4:    7990        .y      LDRB     r0,[r2,#6]
        0x000012c6:    7ad2        .z      LDRB     r2,[r2,#0xb]
        0x000012c8:    2400        .$      MOVS     r4,#0
        0x000012ca:    702c        ,p      STRB     r4,[r5,#0]
        0x000012cc:    1a40        @.      SUBS     r0,r0,r1
        0x000012ce:    4c1a        .L      LDR      r4,[pc,#104] ; [0x1338] = 0x2000009c
        0x000012d0:    4e1a        .N      LDR      r6,[pc,#104] ; [0x133c] = 0x2000002a
        0x000012d2:    1a52        R.      SUBS     r2,r2,r1
        0x000012d4:    7825        %x      LDRB     r5,[r4,#0]
        0x000012d6:    7834        4x      LDRB     r4,[r6,#0]
        0x000012d8:    b2c0        ..      UXTB     r0,r0
        0x000012da:    b2d2        ..      UXTB     r2,r2
        0x000012dc:    062f        /.      LSLS     r7,r5,#24
        0x000012de:    d517        ..      BPL      0x1310 ; Host_RoomSettingUpdated + 124
        0x000012e0:    0664        d.      LSLS     r4,r4,#25
        0x000012e2:    0e64        d.      LSRS     r4,r4,#25
        0x000012e4:    7034        4p      STRB     r4,[r6,#0]
        0x000012e6:    4d16        .M      LDR      r5,[pc,#88] ; [0x1340] = 0x200000a4
        0x000012e8:    2401        .$      MOVS     r4,#1
        0x000012ea:    70ac        .p      STRB     r4,[r5,#2]
        0x000012ec:    7058        Xp      STRB     r0,[r3,#1]
        0x000012ee:    480f        .H      LDR      r0,[pc,#60] ; [0x132c] = 0x20000104
        0x000012f0:    79c4        .y      LDRB     r4,[r0,#7]
        0x000012f2:    1a64        d.      SUBS     r4,r4,r1
        0x000012f4:    709c        .p      STRB     r4,[r3,#2]
        0x000012f6:    7a04        .z      LDRB     r4,[r0,#8]
        0x000012f8:    1a64        d.      SUBS     r4,r4,r1
        0x000012fa:    70dc        .p      STRB     r4,[r3,#3]
        0x000012fc:    7a44        Dz      LDRB     r4,[r0,#9]
        0x000012fe:    1a64        d.      SUBS     r4,r4,r1
        0x00001300:    711c        .q      STRB     r4,[r3,#4]
        0x00001302:    7a80        .z      LDRB     r0,[r0,#0xa]
        0x00001304:    1a40        @.      SUBS     r0,r0,r1
        0x00001306:    7158        Xq      STRB     r0,[r3,#5]
        0x00001308:    2a00        .*      CMP      r2,#0
        0x0000130a:    d000        ..      BEQ      0x130e ; Host_RoomSettingUpdated + 122
        0x0000130c:    719a        .q      STRB     r2,[r3,#6]
        0x0000130e:    bdf8        ..      POP      {r3-r7,pc}
        0x00001310:    07e9        ..      LSLS     r1,r5,#31
        0x00001312:    d0fc        ..      BEQ      0x130e ; Host_RoomSettingUpdated + 122
        0x00001314:    0861        a.      LSRS     r1,r4,#1
        0x00001316:    0049        I.      LSLS     r1,r1,#1
        0x00001318:    7031        1p      STRB     r1,[r6,#0]
        0x0000131a:    2a00        .*      CMP      r2,#0
        0x0000131c:    d000        ..      BEQ      0x1320 ; Host_RoomSettingUpdated + 140
        0x0000131e:    719a        .q      STRB     r2,[r3,#6]
        0x00001320:    f000fdae    ....    BL       RoomModeUpdateProcess ; 0x1e80
        0x00001324:    bdf8        ..      POP      {r3-r7,pc}
    $d
        0x00001326:    0000        ..      DCW    0
        0x00001328:    20000084    ...     DCD    536871044
        0x0000132c:    20000104    ...     DCD    536871172
        0x00001330:    200002d4    ...     DCD    536871636
        0x00001334:    200000c5    ...     DCD    536871109
        0x00001338:    2000009c    ...     DCD    536871068
        0x0000133c:    2000002a    *..     DCD    536870954
        0x00001340:    200000a4    ...     DCD    536871076
    $t
    i.Host_UserBalanceUpdated
    Host_UserBalanceUpdated
        0x00001344:    490a        .I      LDR      r1,[pc,#40] ; [0x1370] = 0x20000104
        0x00001346:    4a0b        .J      LDR      r2,[pc,#44] ; [0x1374] = 0x2000009c
        0x00001348:    78c8        .x      LDRB     r0,[r1,#3]
        0x0000134a:    7010        .p      STRB     r0,[r2,#0]
        0x0000134c:    480a        .H      LDR      r0,[pc,#40] ; [0x1378] = 0x200000a4
        0x0000134e:    790a        .y      LDRB     r2,[r1,#4]
        0x00001350:    70c2        .p      STRB     r2,[r0,#3]
        0x00001352:    794a        Jy      LDRB     r2,[r1,#5]
        0x00001354:    7102        .q      STRB     r2,[r0,#4]
        0x00001356:    798a        .y      LDRB     r2,[r1,#6]
        0x00001358:    7142        Bq      STRB     r2,[r0,#5]
        0x0000135a:    4b08        .K      LDR      r3,[pc,#32] ; [0x137c] = 0x20000084
        0x0000135c:    2000        .       MOVS     r0,#0
        0x0000135e:    180a        ..      ADDS     r2,r1,r0
        0x00001360:    3220         2      ADDS     r2,r2,#0x20
        0x00001362:    7bd2        .{      LDRB     r2,[r2,#0xf]
        0x00001364:    541a        .T      STRB     r2,[r3,r0]
        0x00001366:    1c40        @.      ADDS     r0,r0,#1
        0x00001368:    b2c0        ..      UXTB     r0,r0
        0x0000136a:    2806        .(      CMP      r0,#6
        0x0000136c:    d3f7        ..      BCC      0x135e ; Host_UserBalanceUpdated + 26
        0x0000136e:    4770        pG      BX       lr
    $d
        0x00001370:    20000104    ...     DCD    536871172
        0x00001374:    2000009c    ...     DCD    536871068
        0x00001378:    200000a4    ...     DCD    536871076
        0x0000137c:    20000084    ...     DCD    536871044
    $t
    i.Host_UserChangeMode
    Host_UserChangeMode
        0x00001380:    b570        p.      PUSH     {r4-r6,lr}
        0x00001382:    4917        .I      LDR      r1,[pc,#92] ; [0x13e0] = 0x200000c5
        0x00001384:    2000        .       MOVS     r0,#0
        0x00001386:    7008        .p      STRB     r0,[r1,#0]
        0x00001388:    4916        .I      LDR      r1,[pc,#88] ; [0x13e4] = 0x20000084
        0x0000138a:    4a17        .J      LDR      r2,[pc,#92] ; [0x13e8] = 0x20000104
        0x0000138c:    1813        ..      ADDS     r3,r2,r0
        0x0000138e:    3320         3      ADDS     r3,r3,#0x20
        0x00001390:    7bdb        .{      LDRB     r3,[r3,#0xf]
        0x00001392:    540b        .T      STRB     r3,[r1,r0]
        0x00001394:    1c40        @.      ADDS     r0,r0,#1
        0x00001396:    b2c0        ..      UXTB     r0,r0
        0x00001398:    2807        .(      CMP      r0,#7
        0x0000139a:    d3f7        ..      BCC      0x138c ; Host_UserChangeMode + 12
        0x0000139c:    7953        Sy      LDRB     r3,[r2,#5]
        0x0000139e:    2106        .!      MOVS     r1,#6
        0x000013a0:    4c12        .L      LDR      r4,[pc,#72] ; [0x13ec] = 0x2000008c
        0x000013a2:    2000        .       MOVS     r0,#0
        0x000013a4:    5c55        U\      LDRB     r5,[r2,r1]
        0x000013a6:    5425        %T      STRB     r5,[r4,r0]
        0x000013a8:    1c49        I.      ADDS     r1,r1,#1
        0x000013aa:    1c40        @.      ADDS     r0,r0,#1
        0x000013ac:    b2c0        ..      UXTB     r0,r0
        0x000013ae:    b2c9        ..      UXTB     r1,r1
        0x000013b0:    2804        .(      CMP      r0,#4
        0x000013b2:    d3f7        ..      BCC      0x13a4 ; Host_UserChangeMode + 36
        0x000013b4:    2001        .       MOVS     r0,#1
        0x000013b6:    490e        .I      LDR      r1,[pc,#56] ; [0x13f0] = 0x200000a4
        0x000013b8:    25fd        .%      MOVS     r5,#0xfd
        0x000013ba:    4c0e        .L      LDR      r4,[pc,#56] ; [0x13f4] = 0x200004d4
        0x000013bc:    2ba5        .+      CMP      r3,#0xa5
        0x000013be:    d009        ..      BEQ      0x13d4 ; Host_UserChangeMode + 84
        0x000013c0:    2b5a        Z+      CMP      r3,#0x5a
        0x000013c2:    d106        ..      BNE      0x13d2 ; Host_UserChangeMode + 82
        0x000013c4:    7288        .r      STRB     r0,[r1,#0xa]
        0x000013c6:    4809        .H      LDR      r0,[pc,#36] ; [0x13ec] = 0x2000008c
        0x000013c8:    f002f8bc    ....    BL       UserCGRModeExit ; 0x3544
        0x000013cc:    7e60        `~      LDRB     r0,[r4,#0x19]
        0x000013ce:    4028        (@      ANDS     r0,r0,r5
        0x000013d0:    7660        `v      STRB     r0,[r4,#0x19]
        0x000013d2:    bd70        p.      POP      {r4-r6,pc}
        0x000013d4:    7288        .r      STRB     r0,[r1,#0xa]
        0x000013d6:    4805        .H      LDR      r0,[pc,#20] ; [0x13ec] = 0x2000008c
        0x000013d8:    f002f920    .. .    BL       UserCGRModeJoin ; 0x361c
        0x000013dc:    e7f6        ..      B        0x13cc ; Host_UserChangeMode + 76
    $d
        0x000013de:    0000        ..      DCW    0
        0x000013e0:    200000c5    ...     DCD    536871109
        0x000013e4:    20000084    ...     DCD    536871044
        0x000013e8:    20000104    ...     DCD    536871172
        0x000013ec:    2000008c    ...     DCD    536871052
        0x000013f0:    200000a4    ...     DCD    536871076
        0x000013f4:    200004d4    ...     DCD    536872148
    $t
    i.Host_UserInfoUpdated
    Host_UserInfoUpdated
        0x000013f8:    b5f8        ..      PUSH     {r3-r7,lr}
        0x000013fa:    4834        4H      LDR      r0,[pc,#208] ; [0x14cc] = 0x200000a4
        0x000013fc:    4f34        4O      LDR      r7,[pc,#208] ; [0x14d0] = 0x20000104
        0x000013fe:    7ac1        .z      LDRB     r1,[r0,#0xb]
        0x00001400:    0849        I.      LSRS     r1,r1,#1
        0x00001402:    0049        I.      LSLS     r1,r1,#1
        0x00001404:    72c1        .r      STRB     r1,[r0,#0xb]
        0x00001406:    7978        xy      LDRB     r0,[r7,#5]
        0x00001408:    4932        2I      LDR      r1,[pc,#200] ; [0x14d4] = 0x200002d4
        0x0000140a:    0843        C.      LSRS     r3,r0,#1
        0x0000140c:    70c8        .p      STRB     r0,[r1,#3]
        0x0000140e:    79be        .y      LDRB     r6,[r7,#6]
        0x00001410:    07c0        ..      LSLS     r0,r0,#31
        0x00001412:    d000        ..      BEQ      0x1416 ; Host_UserInfoUpdated + 30
        0x00001414:    1c5b        [.      ADDS     r3,r3,#1
        0x00001416:    0670        p.      LSLS     r0,r6,#25
        0x00001418:    0e00        ..      LSRS     r0,r0,#24
        0x0000141a:    0142        B.      LSLS     r2,r0,#5
        0x0000141c:    482d        -H      LDR      r0,[pc,#180] ; [0x14d4] = 0x200002d4
        0x0000141e:    1812        ..      ADDS     r2,r2,r0
        0x00001420:    4614        .F      MOV      r4,r2
        0x00001422:    3418        .4      ADDS     r4,r4,#0x18
        0x00001424:    2007        .       MOVS     r0,#7
        0x00001426:    2100        .!      MOVS     r1,#0
        0x00001428:    5c3d        =\      LDRB     r5,[r7,r0]
        0x0000142a:    5465        eT      STRB     r5,[r4,r1]
        0x0000142c:    1c40        @.      ADDS     r0,r0,#1
        0x0000142e:    1c49        I.      ADDS     r1,r1,#1
        0x00001430:    b2c9        ..      UXTB     r1,r1
        0x00001432:    b2c0        ..      UXTB     r0,r0
        0x00001434:    2911        .)      CMP      r1,#0x11
        0x00001436:    d3f7        ..      BCC      0x1428 ; Host_UserInfoUpdated + 48
        0x00001438:    5c39        9\      LDRB     r1,[r7,r0]
        0x0000143a:    1c40        @.      ADDS     r0,r0,#1
        0x0000143c:    b2c0        ..      UXTB     r0,r0
        0x0000143e:    5c3c        <\      LDRB     r4,[r7,r0]
        0x00001440:    0609        ..      LSLS     r1,r1,#24
        0x00001442:    0424        $.      LSLS     r4,r4,#16
        0x00001444:    1c40        @.      ADDS     r0,r0,#1
        0x00001446:    430c        .C      ORRS     r4,r4,r1
        0x00001448:    b2c0        ..      UXTB     r0,r0
        0x0000144a:    5c39        9\      LDRB     r1,[r7,r0]
        0x0000144c:    1c40        @.      ADDS     r0,r0,#1
        0x0000144e:    0209        ..      LSLS     r1,r1,#8
        0x00001450:    4321        !C      ORRS     r1,r1,r4
        0x00001452:    b2c0        ..      UXTB     r0,r0
        0x00001454:    5c3c        <\      LDRB     r4,[r7,r0]
        0x00001456:    1c40        @.      ADDS     r0,r0,#1
        0x00001458:    1861        a.      ADDS     r1,r4,r1
        0x0000145a:    4614        .F      MOV      r4,r2
        0x0000145c:    3438        84      ADDS     r4,r4,#0x38
        0x0000145e:    6251        Qb      STR      r1,[r2,#0x24]
        0x00001460:    b2c0        ..      UXTB     r0,r0
        0x00001462:    2100        .!      MOVS     r1,#0
        0x00001464:    5c3d        =\      LDRB     r5,[r7,r0]
        0x00001466:    5465        eT      STRB     r5,[r4,r1]
        0x00001468:    1c40        @.      ADDS     r0,r0,#1
        0x0000146a:    1c49        I.      ADDS     r1,r1,#1
        0x0000146c:    b2c9        ..      UXTB     r1,r1
        0x0000146e:    b2c0        ..      UXTB     r0,r0
        0x00001470:    2911        .)      CMP      r1,#0x11
        0x00001472:    d3f7        ..      BCC      0x1464 ; Host_UserInfoUpdated + 108
        0x00001474:    5c39        9\      LDRB     r1,[r7,r0]
        0x00001476:    1c40        @.      ADDS     r0,r0,#1
        0x00001478:    b2c0        ..      UXTB     r0,r0
        0x0000147a:    5c3c        <\      LDRB     r4,[r7,r0]
        0x0000147c:    0609        ..      LSLS     r1,r1,#24
        0x0000147e:    0424        $.      LSLS     r4,r4,#16
        0x00001480:    1c40        @.      ADDS     r0,r0,#1
        0x00001482:    430c        .C      ORRS     r4,r4,r1
        0x00001484:    b2c0        ..      UXTB     r0,r0
        0x00001486:    5c39        9\      LDRB     r1,[r7,r0]
        0x00001488:    1c40        @.      ADDS     r0,r0,#1
        0x0000148a:    b2c0        ..      UXTB     r0,r0
        0x0000148c:    0209        ..      LSLS     r1,r1,#8
        0x0000148e:    5c38        8\      LDRB     r0,[r7,r0]
        0x00001490:    4321        !C      ORRS     r1,r1,r4
        0x00001492:    1840        @.      ADDS     r0,r0,r1
        0x00001494:    490f        .I      LDR      r1,[pc,#60] ; [0x14d4] = 0x200002d4
        0x00001496:    1c76        v.      ADDS     r6,r6,#1
        0x00001498:    6450        Pd      STR      r0,[r2,#0x44]
        0x0000149a:    429e        .B      CMP      r6,r3
        0x0000149c:    d30f        ..      BCC      0x14be ; Host_UserInfoUpdated + 198
        0x0000149e:    4a0e        .J      LDR      r2,[pc,#56] ; [0x14d8] = 0x2000009b
        0x000014a0:    2301        .#      MOVS     r3,#1
        0x000014a2:    7810        .x      LDRB     r0,[r2,#0]
        0x000014a4:    4318        .C      ORRS     r0,r0,r3
        0x000014a6:    7010        .p      STRB     r0,[r2,#0]
        0x000014a8:    2000        .       MOVS     r0,#0
        0x000014aa:    78ca        .x      LDRB     r2,[r1,#3]
        0x000014ac:    e00a        ..      B        0x14c4 ; Host_UserInfoUpdated + 204
        0x000014ae:    0143        C.      LSLS     r3,r0,#5
        0x000014b0:    185b        [.      ADDS     r3,r3,r1
        0x000014b2:    7e1b        .~      LDRB     r3,[r3,#0x18]
        0x000014b4:    07db        ..      LSLS     r3,r3,#31
        0x000014b6:    d003        ..      BEQ      0x14c0 ; Host_UserInfoUpdated + 200
        0x000014b8:    7508        .u      STRB     r0,[r1,#0x14]
        0x000014ba:    f000fc89    ....    BL       RecordJoinCGR ; 0x1dd0
        0x000014be:    bdf8        ..      POP      {r3-r7,pc}
        0x000014c0:    1c40        @.      ADDS     r0,r0,#1
        0x000014c2:    b2c0        ..      UXTB     r0,r0
        0x000014c4:    4282        .B      CMP      r2,r0
        0x000014c6:    d8f2        ..      BHI      0x14ae ; Host_UserInfoUpdated + 182
        0x000014c8:    bdf8        ..      POP      {r3-r7,pc}
    $d
        0x000014ca:    0000        ..      DCW    0
        0x000014cc:    200000a4    ...     DCD    536871076
        0x000014d0:    20000104    ...     DCD    536871172
        0x000014d4:    200002d4    ...     DCD    536871636
        0x000014d8:    2000009b    ...     DCD    536871067
    $t
    i.Host_UserStartRCDUpdated
    Host_UserStartRCDUpdated
        0x000014dc:    b5fe        ..      PUSH     {r1-r7,lr}
        0x000014de:    4938        8I      LDR      r1,[pc,#224] ; [0x15c0] = 0x20000104
        0x000014e0:    4a38        8J      LDR      r2,[pc,#224] ; [0x15c4] = 0x200002d4
        0x000014e2:    794b        Ky      LDRB     r3,[r1,#5]
        0x000014e4:    70d3        .p      STRB     r3,[r2,#3]
        0x000014e6:    4c38        8L      LDR      r4,[pc,#224] ; [0x15c8] = 0x20000092
        0x000014e8:    7988        .y      LDRB     r0,[r1,#6]
        0x000014ea:    7020         p      STRB     r0,[r4,#0]
        0x000014ec:    0640        @.      LSLS     r0,r0,#25
        0x000014ee:    0e07        ..      LSRS     r7,r0,#24
        0x000014f0:    4b36        6K      LDR      r3,[pc,#216] ; [0x15cc] = 0x20000084
        0x000014f2:    2000        .       MOVS     r0,#0
        0x000014f4:    180c        ..      ADDS     r4,r1,r0
        0x000014f6:    3420         4      ADDS     r4,r4,#0x20
        0x000014f8:    7be4        .{      LDRB     r4,[r4,#0xf]
        0x000014fa:    541c        .T      STRB     r4,[r3,r0]
        0x000014fc:    1c40        @.      ADDS     r0,r0,#1
        0x000014fe:    b2c0        ..      UXTB     r0,r0
        0x00001500:    2807        .(      CMP      r0,#7
        0x00001502:    d3f7        ..      BCC      0x14f4 ; Host_UserStartRCDUpdated + 24
        0x00001504:    2507        .%      MOVS     r5,#7
        0x00001506:    2000        .       MOVS     r0,#0
        0x00001508:    ac01        ..      ADD      r4,sp,#4
        0x0000150a:    9000        ..      STR      r0,[sp,#0]
        0x0000150c:    492c        ,I      LDR      r1,[pc,#176] ; [0x15c0] = 0x20000104
        0x0000150e:    5d48        H]      LDRB     r0,[r1,r5]
        0x00001510:    7020         p      STRB     r0,[r4,#0]
        0x00001512:    1c6d        m.      ADDS     r5,r5,#1
        0x00001514:    b2e8        ..      UXTB     r0,r5
        0x00001516:    5c0a        .\      LDRB     r2,[r1,r0]
        0x00001518:    1c40        @.      ADDS     r0,r0,#1
        0x0000151a:    7062        bp      STRB     r2,[r4,#1]
        0x0000151c:    b2c0        ..      UXTB     r0,r0
        0x0000151e:    5c0a        .\      LDRB     r2,[r1,r0]
        0x00001520:    1c40        @.      ADDS     r0,r0,#1
        0x00001522:    70a2        .p      STRB     r2,[r4,#2]
        0x00001524:    b2c0        ..      UXTB     r0,r0
        0x00001526:    5c09        .\      LDRB     r1,[r1,r0]
        0x00001528:    1c40        @.      ADDS     r0,r0,#1
        0x0000152a:    70e1        .p      STRB     r1,[r4,#3]
        0x0000152c:    b2c5        ..      UXTB     r5,r0
        0x0000152e:    9801        ..      LDR      r0,[sp,#4]
        0x00001530:    f7fefe09    ....    BL       __aeabi_f2uiz ; 0x146
        0x00001534:    4923        #I      LDR      r1,[pc,#140] ; [0x15c4] = 0x200002d4
        0x00001536:    017a        z.      LSLS     r2,r7,#5
        0x00001538:    1856        V.      ADDS     r6,r2,r1
        0x0000153a:    6270        pb      STR      r0,[r6,#0x24]
        0x0000153c:    4920         I      LDR      r1,[pc,#128] ; [0x15c0] = 0x20000104
        0x0000153e:    2000        .       MOVS     r0,#0
        0x00001540:    1833        3.      ADDS     r3,r6,r0
        0x00001542:    5d4a        J]      LDRB     r2,[r1,r5]
        0x00001544:    3320         3      ADDS     r3,r3,#0x20
        0x00001546:    1c6d        m.      ADDS     r5,r5,#1
        0x00001548:    1c40        @.      ADDS     r0,r0,#1
        0x0000154a:    b2c0        ..      UXTB     r0,r0
        0x0000154c:    721a        .r      STRB     r2,[r3,#8]
        0x0000154e:    b2ed        ..      UXTB     r5,r5
        0x00001550:    2806        .(      CMP      r0,#6
        0x00001552:    d3f5        ..      BCC      0x1540 ; Host_UserStartRCDUpdated + 100
        0x00001554:    5d48        H]      LDRB     r0,[r1,r5]
        0x00001556:    1c6d        m.      ADDS     r5,r5,#1
        0x00001558:    0602        ..      LSLS     r2,r0,#24
        0x0000155a:    b2e8        ..      UXTB     r0,r5
        0x0000155c:    5c0b        .\      LDRB     r3,[r1,r0]
        0x0000155e:    1c40        @.      ADDS     r0,r0,#1
        0x00001560:    041b        ..      LSLS     r3,r3,#16
        0x00001562:    4313        .C      ORRS     r3,r3,r2
        0x00001564:    b2c0        ..      UXTB     r0,r0
        0x00001566:    5c0a        .\      LDRB     r2,[r1,r0]
        0x00001568:    1c40        @.      ADDS     r0,r0,#1
        0x0000156a:    0212        ..      LSLS     r2,r2,#8
        0x0000156c:    431a        .C      ORRS     r2,r2,r3
        0x0000156e:    b2c0        ..      UXTB     r0,r0
        0x00001570:    5c0b        .\      LDRB     r3,[r1,r0]
        0x00001572:    1c40        @.      ADDS     r0,r0,#1
        0x00001574:    4313        .C      ORRS     r3,r3,r2
        0x00001576:    b2c0        ..      UXTB     r0,r0
        0x00001578:    6333        3c      STR      r3,[r6,#0x30]
        0x0000157a:    5c0a        .\      LDRB     r2,[r1,r0]
        0x0000157c:    1c40        @.      ADDS     r0,r0,#1
        0x0000157e:    7022        "p      STRB     r2,[r4,#0]
        0x00001580:    b2c0        ..      UXTB     r0,r0
        0x00001582:    5c0a        .\      LDRB     r2,[r1,r0]
        0x00001584:    1c40        @.      ADDS     r0,r0,#1
        0x00001586:    7062        bp      STRB     r2,[r4,#1]
        0x00001588:    b2c0        ..      UXTB     r0,r0
        0x0000158a:    5c0a        .\      LDRB     r2,[r1,r0]
        0x0000158c:    1c40        @.      ADDS     r0,r0,#1
        0x0000158e:    70a2        .p      STRB     r2,[r4,#2]
        0x00001590:    b2c0        ..      UXTB     r0,r0
        0x00001592:    5c09        .\      LDRB     r1,[r1,r0]
        0x00001594:    1c40        @.      ADDS     r0,r0,#1
        0x00001596:    70e1        .p      STRB     r1,[r4,#3]
        0x00001598:    b2c5        ..      UXTB     r5,r0
        0x0000159a:    9801        ..      LDR      r0,[sp,#4]
        0x0000159c:    f7fefdd3    ....    BL       __aeabi_f2uiz ; 0x146
        0x000015a0:    6370        pc      STR      r0,[r6,#0x34]
        0x000015a2:    9800        ..      LDR      r0,[sp,#0]
        0x000015a4:    1c7f        ..      ADDS     r7,r7,#1
        0x000015a6:    1c40        @.      ADDS     r0,r0,#1
        0x000015a8:    b2c0        ..      UXTB     r0,r0
        0x000015aa:    b2ff        ..      UXTB     r7,r7
        0x000015ac:    9000        ..      STR      r0,[sp,#0]
        0x000015ae:    2802        .(      CMP      r0,#2
        0x000015b0:    d3ac        ..      BCC      0x150c ; Host_UserStartRCDUpdated + 48
        0x000015b2:    4907        .I      LDR      r1,[pc,#28] ; [0x15d0] = 0x20000029
        0x000015b4:    2281        ."      MOVS     r2,#0x81
        0x000015b6:    7808        .x      LDRB     r0,[r1,#0]
        0x000015b8:    4310        .C      ORRS     r0,r0,r2
        0x000015ba:    7008        .p      STRB     r0,[r1,#0]
        0x000015bc:    bdfe        ..      POP      {r1-r7,pc}
    $d
        0x000015be:    0000        ..      DCW    0
        0x000015c0:    20000104    ...     DCD    536871172
        0x000015c4:    200002d4    ...     DCD    536871636
        0x000015c8:    20000092    ...     DCD    536871058
        0x000015cc:    20000084    ...     DCD    536871044
        0x000015d0:    20000029    )..     DCD    536870953
    $t
    i.LEDs_Process
    LEDs_Process
        0x000015d4:    480b        .H      LDR      r0,[pc,#44] ; [0x1604] = 0x2000004c
        0x000015d6:    2200        ."      MOVS     r2,#0
        0x000015d8:    7a83        .z      LDRB     r3,[r0,#0xa]
        0x000015da:    2101        .!      MOVS     r1,#1
        0x000015dc:    2b1e        .+      CMP      r3,#0x1e
        0x000015de:    d902        ..      BLS      0x15e6 ; LEDs_Process + 18
        0x000015e0:    4b09        .K      LDR      r3,[pc,#36] ; [0x1608] = 0x500042c0
        0x000015e2:    7282        .r      STRB     r2,[r0,#0xa]
        0x000015e4:    61d9        .a      STR      r1,[r3,#0x1c]
        0x000015e6:    7ac3        .z      LDRB     r3,[r0,#0xb]
        0x000015e8:    2b1e        .+      CMP      r3,#0x1e
        0x000015ea:    d903        ..      BLS      0x15f4 ; LEDs_Process + 32
        0x000015ec:    4b06        .K      LDR      r3,[pc,#24] ; [0x1608] = 0x500042c0
        0x000015ee:    72c2        .r      STRB     r2,[r0,#0xb]
        0x000015f0:    3340        @3      ADDS     r3,r3,#0x40
        0x000015f2:    6019        .`      STR      r1,[r3,#0]
        0x000015f4:    7b43        C{      LDRB     r3,[r0,#0xd]
        0x000015f6:    2b1e        .+      CMP      r3,#0x1e
        0x000015f8:    d903        ..      BLS      0x1602 ; LEDs_Process + 46
        0x000015fa:    7342        Bs      STRB     r2,[r0,#0xd]
        0x000015fc:    4802        .H      LDR      r0,[pc,#8] ; [0x1608] = 0x500042c0
        0x000015fe:    3840        @8      SUBS     r0,r0,#0x40
        0x00001600:    6101        .a      STR      r1,[r0,#0x10]
        0x00001602:    4770        pG      BX       lr
    $d
        0x00001604:    2000004c    L..     DCD    536870988
        0x00001608:    500042c0    .B.P    DCD    1342194368
    $t
    i.MODBUS_SendCmd
    MODBUS_SendCmd
        0x0000160c:    b510        ..      PUSH     {r4,lr}
        0x0000160e:    4905        .I      LDR      r1,[pc,#20] ; [0x1624] = 0x20000036
        0x00001610:    4a05        .J      LDR      r2,[pc,#20] ; [0x1628] = 0x20000174
        0x00001612:    7809        .x      LDRB     r1,[r1,#0]
        0x00001614:    7011        .p      STRB     r1,[r2,#0]
        0x00001616:    4a05        .J      LDR      r2,[pc,#20] ; [0x162c] = 0x200000a3
        0x00001618:    2188        .!      MOVS     r1,#0x88
        0x0000161a:    7011        .p      STRB     r1,[r2,#0]
        0x0000161c:    f7fffa84    ....    BL       CmdModBus_DEM5x0 ; 0xb28
        0x00001620:    bd10        ..      POP      {r4,pc}
    $d
        0x00001622:    0000        ..      DCW    0
        0x00001624:    20000036    6..     DCD    536870966
        0x00001628:    20000174    t..     DCD    536871284
        0x0000162c:    200000a3    ...     DCD    536871075
    $t
    i.MeterDataProcess
    MeterDataProcess
        0x00001630:    b500        ..      PUSH     {lr}
        0x00001632:    4804        .H      LDR      r0,[pc,#16] ; [0x1644] = 0x20000194
        0x00001634:    7840        @x      LDRB     r0,[r0,#1]
        0x00001636:    2803        .(      CMP      r0,#3
        0x00001638:    d103        ..      BNE      0x1642 ; MeterDataProcess + 18
        0x0000163a:    4803        .H      LDR      r0,[pc,#12] ; [0x1648] = 0x200000c0
        0x0000163c:    7800        .x      LDRB     r0,[r0,#0]
        0x0000163e:    f7fffc1f    ....    BL       GetMeterWattProc ; 0xe80
        0x00001642:    bd00        ..      POP      {pc}
    $d
        0x00001644:    20000194    ...     DCD    536871316
        0x00001648:    200000c0    ...     DCD    536871104
    $t
    i.MeterPolling
    MeterPolling
        0x0000164c:    b5f8        ..      PUSH     {r3-r7,lr}
        0x0000164e:    4c1c        .L      LDR      r4,[pc,#112] ; [0x16c0] = 0x20000035
        0x00001650:    2201        ."      MOVS     r2,#1
        0x00001652:    7820         x      LDRB     r0,[r4,#0]
        0x00001654:    2500        .%      MOVS     r5,#0
        0x00001656:    2800        .(      CMP      r0,#0
        0x00001658:    d005        ..      BEQ      0x1666 ; MeterPolling + 26
        0x0000165a:    4e1a        .N      LDR      r6,[pc,#104] ; [0x16c4] = 0x20000034
        0x0000165c:    2801        .(      CMP      r0,#1
        0x0000165e:    d00b        ..      BEQ      0x1678 ; MeterPolling + 44
        0x00001660:    2802        .(      CMP      r0,#2
        0x00001662:    d11a        ..      BNE      0x169a ; MeterPolling + 78
        0x00001664:    e00f        ..      B        0x1686 ; MeterPolling + 58
        0x00001666:    4818        .H      LDR      r0,[pc,#96] ; [0x16c8] = 0x20000060
        0x00001668:    4b18        .K      LDR      r3,[pc,#96] ; [0x16cc] = 0x20000062
        0x0000166a:    8801        ..      LDRH     r1,[r0,#0]
        0x0000166c:    881b        ..      LDRH     r3,[r3,#0]
        0x0000166e:    4299        .B      CMP      r1,r3
        0x00001670:    d301        ..      BCC      0x1676 ; MeterPolling + 42
        0x00001672:    8005        ..      STRH     r5,[r0,#0]
        0x00001674:    7022        "p      STRB     r2,[r4,#0]
        0x00001676:    bdf8        ..      POP      {r3-r7,pc}
        0x00001678:    2001        .       MOVS     r0,#1
        0x0000167a:    f7ffffc7    ....    BL       MODBUS_SendCmd ; 0x160c
        0x0000167e:    2002        .       MOVS     r0,#2
        0x00001680:    7020         p      STRB     r0,[r4,#0]
        0x00001682:    7035        5p      STRB     r5,[r6,#0]
        0x00001684:    bdf8        ..      POP      {r3-r7,pc}
        0x00001686:    4812        .H      LDR      r0,[pc,#72] ; [0x16d0] = 0x200000a3
        0x00001688:    4912        .I      LDR      r1,[pc,#72] ; [0x16d4] = 0x20000036
        0x0000168a:    7800        .x      LDRB     r0,[r0,#0]
        0x0000168c:    780f        .x      LDRB     r7,[r1,#0]
        0x0000168e:    4b12        .K      LDR      r3,[pc,#72] ; [0x16d8] = 0x200000a1
        0x00001690:    4912        .I      LDR      r1,[pc,#72] ; [0x16dc] = 0x200000b2
        0x00001692:    42b8        .B      CMP      r0,r7
        0x00001694:    d103        ..      BNE      0x169e ; MeterPolling + 82
        0x00001696:    701d        .p      STRB     r5,[r3,#0]
        0x00001698:    704d        Mp      STRB     r5,[r1,#1]
        0x0000169a:    7025        %p      STRB     r5,[r4,#0]
        0x0000169c:    bdf8        ..      POP      {r3-r7,pc}
        0x0000169e:    7830        0x      LDRB     r0,[r6,#0]
        0x000016a0:    28c8        .(      CMP      r0,#0xc8
        0x000016a2:    d9fb        ..      BLS      0x169c ; MeterPolling + 80
        0x000016a4:    7025        %p      STRB     r5,[r4,#0]
        0x000016a6:    7848        Hx      LDRB     r0,[r1,#1]
        0x000016a8:    1c40        @.      ADDS     r0,r0,#1
        0x000016aa:    b2c0        ..      UXTB     r0,r0
        0x000016ac:    7048        Hp      STRB     r0,[r1,#1]
        0x000016ae:    281e        .(      CMP      r0,#0x1e
        0x000016b0:    d9f4        ..      BLS      0x169c ; MeterPolling + 80
        0x000016b2:    704d        Mp      STRB     r5,[r1,#1]
        0x000016b4:    204b        K       MOVS     r0,#0x4b
        0x000016b6:    701a        .p      STRB     r2,[r3,#0]
        0x000016b8:    01c0        ..      LSLS     r0,r0,#7
        0x000016ba:    f001fe47    ..G.    BL       UART2_Init ; 0x334c
        0x000016be:    bdf8        ..      POP      {r3-r7,pc}
    $d
        0x000016c0:    20000035    5..     DCD    536870965
        0x000016c4:    20000034    4..     DCD    536870964
        0x000016c8:    20000060    `..     DCD    536871008
        0x000016cc:    20000062    b..     DCD    536871010
        0x000016d0:    200000a3    ...     DCD    536871075
        0x000016d4:    20000036    6..     DCD    536870966
        0x000016d8:    200000a1    ...     DCD    536871073
        0x000016dc:    200000b2    ...     DCD    536871090
    $t
    i.MeterProcess
    MeterProcess
        0x000016e0:    b570        p.      PUSH     {r4-r6,lr}
        0x000016e2:    4814        .H      LDR      r0,[pc,#80] ; [0x1734] = 0x20000033
        0x000016e4:    7801        .x      LDRB     r1,[r0,#0]
        0x000016e6:    2900        .)      CMP      r1,#0
        0x000016e8:    d01f        ..      BEQ      0x172a ; MeterProcess + 74
        0x000016ea:    2400        .$      MOVS     r4,#0
        0x000016ec:    4d12        .M      LDR      r5,[pc,#72] ; [0x1738] = 0x2000001f
        0x000016ee:    7004        .p      STRB     r4,[r0,#0]
        0x000016f0:    7828        (x      LDRB     r0,[r5,#0]
        0x000016f2:    1e80        ..      SUBS     r0,r0,#2
        0x000016f4:    b281        ..      UXTH     r1,r0
        0x000016f6:    4811        .H      LDR      r0,[pc,#68] ; [0x173c] = 0x20000194
        0x000016f8:    f7fff858    ..X.    BL       CRC16 ; 0x7ac
        0x000016fc:    490f        .I      LDR      r1,[pc,#60] ; [0x173c] = 0x20000194
        0x000016fe:    7828        (x      LDRB     r0,[r5,#0]
        0x00001700:    4b0f        .K      LDR      r3,[pc,#60] ; [0x1740] = 0x200000b9
        0x00001702:    1808        ..      ADDS     r0,r1,r0
        0x00001704:    3820         8      SUBS     r0,r0,#0x20
        0x00001706:    7f82        ..      LDRB     r2,[r0,#0x1e]
        0x00001708:    781b        .x      LDRB     r3,[r3,#0]
        0x0000170a:    429a        .B      CMP      r2,r3
        0x0000170c:    d10e        ..      BNE      0x172c ; MeterProcess + 76
        0x0000170e:    4a0d        .J      LDR      r2,[pc,#52] ; [0x1744] = 0x200000ba
        0x00001710:    7fc0        ..      LDRB     r0,[r0,#0x1f]
        0x00001712:    7812        .x      LDRB     r2,[r2,#0]
        0x00001714:    4290        .B      CMP      r0,r2
        0x00001716:    d109        ..      BNE      0x172c ; MeterProcess + 76
        0x00001718:    7808        .x      LDRB     r0,[r1,#0]
        0x0000171a:    490b        .I      LDR      r1,[pc,#44] ; [0x1748] = 0x200000a3
        0x0000171c:    7008        .p      STRB     r0,[r1,#0]
        0x0000171e:    480b        .H      LDR      r0,[pc,#44] ; [0x174c] = 0x50004300
        0x00001720:    6004        .`      STR      r4,[r0,#0]
        0x00001722:    480b        .H      LDR      r0,[pc,#44] ; [0x1750] = 0x20000057
        0x00001724:    7004        .p      STRB     r4,[r0,#0]
        0x00001726:    f7ffff83    ....    BL       MeterDataProcess ; 0x1630
        0x0000172a:    bd70        p.      POP      {r4-r6,pc}
        0x0000172c:    f000fb90    ....    BL       ResetMeterUART ; 0x1e50
        0x00001730:    bd70        p.      POP      {r4-r6,pc}
    $d
        0x00001732:    0000        ..      DCW    0
        0x00001734:    20000033    3..     DCD    536870963
        0x00001738:    2000001f    ...     DCD    536870943
        0x0000173c:    20000194    ...     DCD    536871316
        0x00001740:    200000b9    ...     DCD    536871097
        0x00001744:    200000ba    ...     DCD    536871098
        0x00001748:    200000a3    ...     DCD    536871075
        0x0000174c:    50004300    .C.P    DCD    1342194432
        0x00001750:    20000057    W..     DCD    536870999
    $t
    i.MeterValueReset
    MeterValueReset
        0x00001754:    b510        ..      PUSH     {r4,lr}
        0x00001756:    4904        .I      LDR      r1,[pc,#16] ; [0x1768] = 0x2000000c
        0x00001758:    2000        .       MOVS     r0,#0
        0x0000175a:    66c8        .f      STR      r0,[r1,#0x6c]
        0x0000175c:    4903        .I      LDR      r1,[pc,#12] ; [0x176c] = 0x200002d4
        0x0000175e:    60c8        .`      STR      r0,[r1,#0xc]
        0x00001760:    6108        .a      STR      r0,[r1,#0x10]
        0x00001762:    f002f825    ..%.    BL       WritePowerToEE ; 0x37b0
        0x00001766:    bd10        ..      POP      {r4,pc}
    $d
        0x00001768:    2000000c    ...     DCD    536870924
        0x0000176c:    200002d4    ...     DCD    536871636
    $t
    i.NVIC_EnableIRQ
    NVIC_EnableIRQ
        0x00001770:    06c1        ..      LSLS     r1,r0,#27
        0x00001772:    0ec9        ..      LSRS     r1,r1,#27
        0x00001774:    2001        .       MOVS     r0,#1
        0x00001776:    4088        .@      LSLS     r0,r0,r1
        0x00001778:    4901        .I      LDR      r1,[pc,#4] ; [0x1780] = 0xe000e100
        0x0000177a:    6008        .`      STR      r0,[r1,#0]
        0x0000177c:    4770        pG      BX       lr
    $d
        0x0000177e:    0000        ..      DCW    0
        0x00001780:    e000e100    ....    DCD    3758153984
    $t
    i.PowerRCD_AddNew
    PowerRCD_AddNew
        0x00001784:    b5fe        ..      PUSH     {r1-r7,lr}
        0x00001786:    4b2b        +K      LDR      r3,[pc,#172] ; [0x1834] = 0x2000000c
        0x00001788:    2201        ."      MOVS     r2,#1
        0x0000178a:    7f59        Y.      LDRB     r1,[r3,#0x1d]
        0x0000178c:    4e2a        *N      LDR      r6,[pc,#168] ; [0x1838] = 0x200004d4
        0x0000178e:    4311        .C      ORRS     r1,r1,r2
        0x00001790:    7759        Yw      STRB     r1,[r3,#0x1d]
        0x00001792:    9102        ..      STR      r1,[sp,#8]
        0x00001794:    7ed9        .~      LDRB     r1,[r3,#0x1b]
        0x00001796:    4f29        )O      LDR      r7,[pc,#164] ; [0x183c] = 0x200002d4
        0x00001798:    4311        .C      ORRS     r1,r1,r2
        0x0000179a:    76d9        .v      STRB     r1,[r3,#0x1b]
        0x0000179c:    7e71        q~      LDRB     r1,[r6,#0x19]
        0x0000179e:    2210        ."      MOVS     r2,#0x10
        0x000017a0:    4311        .C      ORRS     r1,r1,r2
        0x000017a2:    7671        qv      STRB     r1,[r6,#0x19]
        0x000017a4:    9101        ..      STR      r1,[sp,#4]
        0x000017a6:    7e59        Y~      LDRB     r1,[r3,#0x19]
        0x000017a8:    0144        D.      LSLS     r4,r0,#5
        0x000017aa:    1c49        I.      ADDS     r1,r1,#1
        0x000017ac:    7659        Yv      STRB     r1,[r3,#0x19]
        0x000017ae:    19e5        ..      ADDS     r5,r4,r7
        0x000017b0:    7e9c        .~      LDRB     r4,[r3,#0x1a]
        0x000017b2:    4632        2F      MOV      r2,r6
        0x000017b4:    9400        ..      STR      r4,[sp,#0]
        0x000017b6:    2100        .!      MOVS     r1,#0
        0x000017b8:    321c        .2      ADDS     r2,r2,#0x1c
        0x000017ba:    0164        d.      LSLS     r4,r4,#5
        0x000017bc:    18a4        ..      ADDS     r4,r4,r2
        0x000017be:    186a        j.      ADDS     r2,r5,r1
        0x000017c0:    7f52        R.      LDRB     r2,[r2,#0x1d]
        0x000017c2:    5462        bT      STRB     r2,[r4,r1]
        0x000017c4:    1c49        I.      ADDS     r1,r1,#1
        0x000017c6:    b2c9        ..      UXTB     r1,r1
        0x000017c8:    2904        .)      CMP      r1,#4
        0x000017ca:    d3f8        ..      BCC      0x17be ; PowerRCD_AddNew + 58
        0x000017cc:    4a1c        .J      LDR      r2,[pc,#112] ; [0x1840] = 0x20000648
        0x000017ce:    2100        .!      MOVS     r1,#0
        0x000017d0:    0100        ..      LSLS     r0,r0,#4
        0x000017d2:    1887        ..      ADDS     r7,r0,r2
        0x000017d4:    4817        .H      LDR      r0,[pc,#92] ; [0x1834] = 0x2000000c
        0x000017d6:    3078        x0      ADDS     r0,r0,#0x78
        0x000017d8:    5c42        B\      LDRB     r2,[r0,r1]
        0x000017da:    1860        `.      ADDS     r0,r4,r1
        0x000017dc:    7282        .r      STRB     r2,[r0,#0xa]
        0x000017de:    547a        zT      STRB     r2,[r7,r1]
        0x000017e0:    186a        j.      ADDS     r2,r5,r1
        0x000017e2:    3220         2      ADDS     r2,r2,#0x20
        0x000017e4:    1c49        I.      ADDS     r1,r1,#1
        0x000017e6:    7a12        .z      LDRB     r2,[r2,#8]
        0x000017e8:    b2c9        ..      UXTB     r1,r1
        0x000017ea:    7102        .q      STRB     r2,[r0,#4]
        0x000017ec:    2906        .)      CMP      r1,#6
        0x000017ee:    d3f1        ..      BCC      0x17d4 ; PowerRCD_AddNew + 80
        0x000017f0:    6b68        hk      LDR      r0,[r5,#0x34]
        0x000017f2:    f7fefca1    ....    BL       __aeabi_ui2f ; 0x138
        0x000017f6:    61a0        .a      STR      r0,[r4,#0x18]
        0x000017f8:    6b28        (k      LDR      r0,[r5,#0x30]
        0x000017fa:    6120         a      STR      r0,[r4,#0x10]
        0x000017fc:    6a68        hj      LDR      r0,[r5,#0x24]
        0x000017fe:    f7fefc9b    ....    BL       __aeabi_ui2f ; 0x138
        0x00001802:    61e0        .a      STR      r0,[r4,#0x1c]
        0x00001804:    480d        .H      LDR      r0,[pc,#52] ; [0x183c] = 0x200002d4
        0x00001806:    2101        .!      MOVS     r1,#1
        0x00001808:    6900        .i      LDR      r0,[r0,#0x10]
        0x0000180a:    6160        `a      STR      r0,[r4,#0x14]
        0x0000180c:    60b8        .`      STR      r0,[r7,#8]
        0x0000180e:    9801        ..      LDR      r0,[sp,#4]
        0x00001810:    4308        .C      ORRS     r0,r0,r1
        0x00001812:    7670        pv      STRB     r0,[r6,#0x19]
        0x00001814:    9802        ..      LDR      r0,[sp,#8]
        0x00001816:    2110        .!      MOVS     r1,#0x10
        0x00001818:    4308        .C      ORRS     r0,r0,r1
        0x0000181a:    4906        .I      LDR      r1,[pc,#24] ; [0x1834] = 0x2000000c
        0x0000181c:    7748        Hw      STRB     r0,[r1,#0x1d]
        0x0000181e:    9800        ..      LDR      r0,[sp,#0]
        0x00001820:    1c40        @.      ADDS     r0,r0,#1
        0x00001822:    b2c0        ..      UXTB     r0,r0
        0x00001824:    7688        .v      STRB     r0,[r1,#0x1a]
        0x00001826:    280a        .(      CMP      r0,#0xa
        0x00001828:    d302        ..      BCC      0x1830 ; PowerRCD_AddNew + 172
        0x0000182a:    4802        .H      LDR      r0,[pc,#8] ; [0x1834] = 0x2000000c
        0x0000182c:    2100        .!      MOVS     r1,#0
        0x0000182e:    7681        .v      STRB     r1,[r0,#0x1a]
        0x00001830:    bdfe        ..      POP      {r1-r7,pc}
    $d
        0x00001832:    0000        ..      DCW    0
        0x00001834:    2000000c    ...     DCD    536870924
        0x00001838:    200004d4    ...     DCD    536872148
        0x0000183c:    200002d4    ...     DCD    536871636
        0x00001840:    20000648    H..     DCD    536872520
    $t
    i.ROOM_POWER_Off
    ROOM_POWER_Off
        0x00001844:    490a        .I      LDR      r1,[pc,#40] ; [0x1870] = 0x200000b7
        0x00001846:    2002        .       MOVS     r0,#2
        0x00001848:    7008        .p      STRB     r0,[r1,#0]
        0x0000184a:    490a        .I      LDR      r1,[pc,#40] ; [0x1874] = 0x50004340
        0x0000184c:    2001        .       MOVS     r0,#1
        0x0000184e:    61c8        .a      STR      r0,[r1,#0x1c]
        0x00001850:    2000        .       MOVS     r0,#0
        0x00001852:    bf00        ..      NOP      
        0x00001854:    1c40        @.      ADDS     r0,r0,#1
        0x00001856:    b2c0        ..      UXTB     r0,r0
        0x00001858:    2832        2(      CMP      r0,#0x32
        0x0000185a:    d3fa        ..      BCC      0x1852 ; ROOM_POWER_Off + 14
        0x0000185c:    4906        .I      LDR      r1,[pc,#24] ; [0x1878] = 0x50004200
        0x0000185e:    2000        .       MOVS     r0,#0
        0x00001860:    60c8        .`      STR      r0,[r1,#0xc]
        0x00001862:    bf00        ..      NOP      
        0x00001864:    1c40        @.      ADDS     r0,r0,#1
        0x00001866:    b2c0        ..      UXTB     r0,r0
        0x00001868:    2832        2(      CMP      r0,#0x32
        0x0000186a:    d3fa        ..      BCC      0x1862 ; ROOM_POWER_Off + 30
        0x0000186c:    4770        pG      BX       lr
    $d
        0x0000186e:    0000        ..      DCW    0
        0x00001870:    200000b7    ...     DCD    536871095
        0x00001874:    50004340    @C.P    DCD    1342194496
        0x00001878:    50004200    .B.P    DCD    1342194176
    $t
    i.ROOM_POWER_On
    ROOM_POWER_On
        0x0000187c:    4809        .H      LDR      r0,[pc,#36] ; [0x18a4] = 0x200000b7
        0x0000187e:    2101        .!      MOVS     r1,#1
        0x00001880:    7001        .p      STRB     r1,[r0,#0]
        0x00001882:    4809        .H      LDR      r0,[pc,#36] ; [0x18a8] = 0x50004340
        0x00001884:    61c1        .a      STR      r1,[r0,#0x1c]
        0x00001886:    2000        .       MOVS     r0,#0
        0x00001888:    bf00        ..      NOP      
        0x0000188a:    1c40        @.      ADDS     r0,r0,#1
        0x0000188c:    b2c0        ..      UXTB     r0,r0
        0x0000188e:    2832        2(      CMP      r0,#0x32
        0x00001890:    d3fa        ..      BCC      0x1888 ; ROOM_POWER_On + 12
        0x00001892:    4806        .H      LDR      r0,[pc,#24] ; [0x18ac] = 0x50004200
        0x00001894:    60c1        .`      STR      r1,[r0,#0xc]
        0x00001896:    2000        .       MOVS     r0,#0
        0x00001898:    bf00        ..      NOP      
        0x0000189a:    1c40        @.      ADDS     r0,r0,#1
        0x0000189c:    b2c0        ..      UXTB     r0,r0
        0x0000189e:    2832        2(      CMP      r0,#0x32
        0x000018a0:    d3fa        ..      BCC      0x1898 ; ROOM_POWER_On + 28
        0x000018a2:    4770        pG      BX       lr
    $d
        0x000018a4:    200000b7    ...     DCD    536871095
        0x000018a8:    50004340    @C.P    DCD    1342194496
        0x000018ac:    50004200    .B.P    DCD    1342194176
    $t
    i.ReadMyMeterID
    ReadMyMeterID
        0x000018b0:    4916        .I      LDR      r1,[pc,#88] ; [0x190c] = 0x50004240
        0x000018b2:    688a        .h      LDR      r2,[r1,#8]
        0x000018b4:    4816        .H      LDR      r0,[pc,#88] ; [0x1910] = 0x2000000c
        0x000018b6:    2a00        .*      CMP      r2,#0
        0x000018b8:    d003        ..      BEQ      0x18c2 ; ReadMyMeterID + 18
        0x000018ba:    7802        .x      LDRB     r2,[r0,#0]
        0x000018bc:    2301        .#      MOVS     r3,#1
        0x000018be:    431a        .C      ORRS     r2,r2,r3
        0x000018c0:    7002        .p      STRB     r2,[r0,#0]
        0x000018c2:    68ca        .h      LDR      r2,[r1,#0xc]
        0x000018c4:    2a00        .*      CMP      r2,#0
        0x000018c6:    d003        ..      BEQ      0x18d0 ; ReadMyMeterID + 32
        0x000018c8:    7802        .x      LDRB     r2,[r0,#0]
        0x000018ca:    2302        .#      MOVS     r3,#2
        0x000018cc:    431a        .C      ORRS     r2,r2,r3
        0x000018ce:    7002        .p      STRB     r2,[r0,#0]
        0x000018d0:    690a        .i      LDR      r2,[r1,#0x10]
        0x000018d2:    2a00        .*      CMP      r2,#0
        0x000018d4:    d003        ..      BEQ      0x18de ; ReadMyMeterID + 46
        0x000018d6:    7802        .x      LDRB     r2,[r0,#0]
        0x000018d8:    2304        .#      MOVS     r3,#4
        0x000018da:    431a        .C      ORRS     r2,r2,r3
        0x000018dc:    7002        .p      STRB     r2,[r0,#0]
        0x000018de:    694a        Ji      LDR      r2,[r1,#0x14]
        0x000018e0:    2a00        .*      CMP      r2,#0
        0x000018e2:    d003        ..      BEQ      0x18ec ; ReadMyMeterID + 60
        0x000018e4:    7802        .x      LDRB     r2,[r0,#0]
        0x000018e6:    2308        .#      MOVS     r3,#8
        0x000018e8:    431a        .C      ORRS     r2,r2,r3
        0x000018ea:    7002        .p      STRB     r2,[r0,#0]
        0x000018ec:    698a        .i      LDR      r2,[r1,#0x18]
        0x000018ee:    2a00        .*      CMP      r2,#0
        0x000018f0:    d003        ..      BEQ      0x18fa ; ReadMyMeterID + 74
        0x000018f2:    7802        .x      LDRB     r2,[r0,#0]
        0x000018f4:    2310        .#      MOVS     r3,#0x10
        0x000018f6:    431a        .C      ORRS     r2,r2,r3
        0x000018f8:    7002        .p      STRB     r2,[r0,#0]
        0x000018fa:    69c9        .i      LDR      r1,[r1,#0x1c]
        0x000018fc:    2900        .)      CMP      r1,#0
        0x000018fe:    d003        ..      BEQ      0x1908 ; ReadMyMeterID + 88
        0x00001900:    7801        .x      LDRB     r1,[r0,#0]
        0x00001902:    2220         "      MOVS     r2,#0x20
        0x00001904:    4311        .C      ORRS     r1,r1,r2
        0x00001906:    7001        .p      STRB     r1,[r0,#0]
        0x00001908:    4770        pG      BX       lr
    $d
        0x0000190a:    0000        ..      DCW    0
        0x0000190c:    50004240    @B.P    DCD    1342194240
        0x00001910:    2000000c    ...     DCD    536870924
    $t
    i.ReaderPolling
    ReaderPolling
        0x00001914:    b5f0        ..      PUSH     {r4-r7,lr}
        0x00001916:    4c97        .L      LDR      r4,[pc,#604] ; [0x1b74] = 0x2000003b
        0x00001918:    4897        .H      LDR      r0,[pc,#604] ; [0x1b78] = 0x2000002c
        0x0000191a:    b08b        ..      SUB      sp,sp,#0x2c
        0x0000191c:    7827        'x      LDRB     r7,[r4,#0]
        0x0000191e:    7800        .x      LDRB     r0,[r0,#0]
        0x00001920:    9003        ..      STR      r0,[sp,#0xc]
        0x00001922:    4896        .H      LDR      r0,[pc,#600] ; [0x1b7c] = 0x200000a0
        0x00001924:    4997        .I      LDR      r1,[pc,#604] ; [0x1b84] = 0x200002d4
        0x00001926:    7800        .x      LDRB     r0,[r0,#0]
        0x00001928:    9002        ..      STR      r0,[sp,#8]
        0x0000192a:    4895        .H      LDR      r0,[pc,#596] ; [0x1b80] = 0x2000009e
        0x0000192c:    78c9        .x      LDRB     r1,[r1,#3]
        0x0000192e:    7802        .x      LDRB     r2,[r0,#0]
        0x00001930:    9109        ..      STR      r1,[sp,#0x24]
        0x00001932:    0849        I.      LSRS     r1,r1,#1
        0x00001934:    9105        ..      STR      r1,[sp,#0x14]
        0x00001936:    1c49        I.      ADDS     r1,r1,#1
        0x00001938:    9108        ..      STR      r1,[sp,#0x20]
        0x0000193a:    4993        .I      LDR      r1,[pc,#588] ; [0x1b88] = 0x2000002d
        0x0000193c:    4e93        .N      LDR      r6,[pc,#588] ; [0x1b8c] = 0x200000c2
        0x0000193e:    7809        .x      LDRB     r1,[r1,#0]
        0x00001940:    9101        ..      STR      r1,[sp,#4]
        0x00001942:    4993        .I      LDR      r1,[pc,#588] ; [0x1b90] = 0x2000009f
        0x00001944:    7933        3y      LDRB     r3,[r6,#4]
        0x00001946:    7809        .x      LDRB     r1,[r1,#0]
        0x00001948:    1c52        R.      ADDS     r2,r2,#1
        0x0000194a:    1c49        I.      ADDS     r1,r1,#1
        0x0000194c:    b2d2        ..      UXTB     r2,r2
        0x0000194e:    b2c9        ..      UXTB     r1,r1
        0x00001950:    9200        ..      STR      r2,[sp,#0]
        0x00001952:    9107        ..      STR      r1,[sp,#0x1c]
        0x00001954:    498f        .I      LDR      r1,[pc,#572] ; [0x1b94] = 0x2000009b
        0x00001956:    1c5b        [.      ADDS     r3,r3,#1
        0x00001958:    7809        .x      LDRB     r1,[r1,#0]
        0x0000195a:    9104        ..      STR      r1,[sp,#0x10]
        0x0000195c:    7831        1x      LDRB     r1,[r6,#0]
        0x0000195e:    b2da        ..      UXTB     r2,r3
        0x00001960:    9106        ..      STR      r1,[sp,#0x18]
        0x00001962:    2500        .%      MOVS     r5,#0
        0x00001964:    2101        .!      MOVS     r1,#1
        0x00001966:    003b        ;.      MOVS     r3,r7
        0x00001968:    f001ffec    ....    BL       __ARM_common_switch8 ; 0x3944
    $d
        0x0000196c:    3909280f    .(.9    DCD    956901391
        0x00001970:    91826355    Uc..    DCD    2441241429
        0x00001974:    2828c1b2    ..((    DCD    673759666
        0x00001978:    e9dc2828    ((..    DCD    3923519528
        0x0000197c:    0028        (.      DCW    40
    $t
        0x0000197e:    9a03        ..      LDR      r2,[sp,#0xc]
        0x00001980:    497d        }I      LDR      r1,[pc,#500] ; [0x1b78] = 0x2000002c
        0x00001982:    2a32        2*      CMP      r2,#0x32
        0x00001984:    d91a        ..      BLS      0x19bc ; ReaderPolling + 168
        0x00001986:    4a7d        }J      LDR      r2,[pc,#500] ; [0x1b7c] = 0x200000a0
        0x00001988:    7015        .p      STRB     r5,[r2,#0]
        0x0000198a:    700d        .p      STRB     r5,[r1,#0]
        0x0000198c:    9904        ..      LDR      r1,[sp,#0x10]
        0x0000198e:    07c9        ..      LSLS     r1,r1,#31
        0x00001990:    d004        ..      BEQ      0x199c ; ReaderPolling + 136
        0x00001992:    2103        .!      MOVS     r1,#3
        0x00001994:    7021        !p      STRB     r1,[r4,#0]
        0x00001996:    7075        up      STRB     r5,[r6,#1]
        0x00001998:    7005        .p      STRB     r5,[r0,#0]
        0x0000199a:    e057        W.      B        0x1a4c ; ReaderPolling + 312
        0x0000199c:    9904        ..      LDR      r1,[sp,#0x10]
        0x0000199e:    0749        I.      LSLS     r1,r1,#29
        0x000019a0:    d50e        ..      BPL      0x19c0 ; ReaderPolling + 172
        0x000019a2:    2107        .!      MOVS     r1,#7
        0x000019a4:    7021        !p      STRB     r1,[r4,#0]
        0x000019a6:    7005        .p      STRB     r5,[r0,#0]
        0x000019a8:    4876        vH      LDR      r0,[pc,#472] ; [0x1b84] = 0x200002d4
        0x000019aa:    210a        .!      MOVS     r1,#0xa
        0x000019ac:    7940        @y      LDRB     r0,[r0,#5]
        0x000019ae:    f7fefbad    ....    BL       __aeabi_uidiv ; 0x10c
        0x000019b2:    7030        0p      STRB     r0,[r6,#0]
        0x000019b4:    2900        .)      CMP      r1,#0
        0x000019b6:    d001        ..      BEQ      0x19bc ; ReaderPolling + 168
        0x000019b8:    1c40        @.      ADDS     r0,r0,#1
        0x000019ba:    7030        0p      STRB     r0,[r6,#0]
        0x000019bc:    b00b        ..      ADD      sp,sp,#0x2c
        0x000019be:    bdf0        ..      POP      {r4-r7,pc}
        0x000019c0:    9904        ..      LDR      r1,[sp,#0x10]
        0x000019c2:    0709        ..      LSLS     r1,r1,#28
        0x000019c4:    d503        ..      BPL      0x19ce ; ReaderPolling + 186
        0x000019c6:    210d        .!      MOVS     r1,#0xd
        0x000019c8:    7021        !p      STRB     r1,[r4,#0]
        0x000019ca:    7005        .p      STRB     r5,[r0,#0]
        0x000019cc:    e7f6        ..      B        0x19bc ; ReaderPolling + 168
        0x000019ce:    f000fa4b    ..K.    BL       ResetReaderUART ; 0x1e68
        0x000019d2:    f000feff    ....    BL       SendReader_Alive ; 0x27d4
        0x000019d6:    486c        lH      LDR      r0,[pc,#432] ; [0x1b88] = 0x2000002d
        0x000019d8:    7005        .p      STRB     r5,[r0,#0]
        0x000019da:    2002        .       MOVS     r0,#2
        0x000019dc:    e027        '.      B        0x1a2e ; ReaderPolling + 282
        0x000019de:    9b02        ..      LDR      r3,[sp,#8]
        0x000019e0:    2b00        .+      CMP      r3,#0
        0x000019e2:    d007        ..      BEQ      0x19f4 ; ReaderPolling + 224
        0x000019e4:    7135        5q      STRB     r5,[r6,#4]
        0x000019e6:    7005        .p      STRB     r5,[r0,#0]
        0x000019e8:    486b        kH      LDR      r0,[pc,#428] ; [0x1b98] = 0x2000002e
        0x000019ea:    7005        .p      STRB     r5,[r0,#0]
        0x000019ec:    4862        bH      LDR      r0,[pc,#392] ; [0x1b78] = 0x2000002c
        0x000019ee:    7005        .p      STRB     r5,[r0,#0]
        0x000019f0:    4867        gH      LDR      r0,[pc,#412] ; [0x1b90] = 0x2000009f
        0x000019f2:    e00e        ..      B        0x1a12 ; ReaderPolling + 254
        0x000019f4:    9b01        ..      LDR      r3,[sp,#4]
        0x000019f6:    2b1e        .+      CMP      r3,#0x1e
        0x000019f8:    d9e0        ..      BLS      0x19bc ; ReaderPolling + 168
        0x000019fa:    9b00        ..      LDR      r3,[sp,#0]
        0x000019fc:    7003        .p      STRB     r3,[r0,#0]
        0x000019fe:    2b05        .+      CMP      r3,#5
        0x00001a00:    d906        ..      BLS      0x1a10 ; ReaderPolling + 252
        0x00001a02:    7005        .p      STRB     r5,[r0,#0]
        0x00001a04:    7132        2q      STRB     r2,[r6,#4]
        0x00001a06:    2a03        .*      CMP      r2,#3
        0x00001a08:    d902        ..      BLS      0x1a10 ; ReaderPolling + 252
        0x00001a0a:    4863        cH      LDR      r0,[pc,#396] ; [0x1b98] = 0x2000002e
        0x00001a0c:    7135        5q      STRB     r5,[r6,#4]
        0x00001a0e:    7001        .p      STRB     r1,[r0,#0]
        0x00001a10:    4859        YH      LDR      r0,[pc,#356] ; [0x1b78] = 0x2000002c
        0x00001a12:    7005        .p      STRB     r5,[r0,#0]
        0x00001a14:    e02a        *.      B        0x1a6c ; ReaderPolling + 344
        0x00001a16:    9803        ..      LDR      r0,[sp,#0xc]
        0x00001a18:    280a        .(      CMP      r0,#0xa
        0x00001a1a:    d9cf        ..      BLS      0x19bc ; ReaderPolling + 168
        0x00001a1c:    4857        WH      LDR      r0,[pc,#348] ; [0x1b7c] = 0x200000a0
        0x00001a1e:    7005        .p      STRB     r5,[r0,#0]
        0x00001a20:    f000fa22    ..".    BL       ResetReaderUART ; 0x1e68
        0x00001a24:    f000ff82    ....    BL       SendReader_ChangeMode ; 0x292c
        0x00001a28:    4857        WH      LDR      r0,[pc,#348] ; [0x1b88] = 0x2000002d
        0x00001a2a:    7005        .p      STRB     r5,[r0,#0]
        0x00001a2c:    2004        .       MOVS     r0,#4
        0x00001a2e:    7020         p      STRB     r0,[r4,#0]
        0x00001a30:    e7c4        ..      B        0x19bc ; ReaderPolling + 168
        0x00001a32:    9b02        ..      LDR      r3,[sp,#8]
        0x00001a34:    2b00        .+      CMP      r3,#0
        0x00001a36:    d010        ..      BEQ      0x1a5a ; ReaderPolling + 326
        0x00001a38:    4957        WI      LDR      r1,[pc,#348] ; [0x1b98] = 0x2000002e
        0x00001a3a:    7135        5q      STRB     r5,[r6,#4]
        0x00001a3c:    700d        .p      STRB     r5,[r1,#0]
        0x00001a3e:    7005        .p      STRB     r5,[r0,#0]
        0x00001a40:    484d        MH      LDR      r0,[pc,#308] ; [0x1b78] = 0x2000002c
        0x00001a42:    7005        .p      STRB     r5,[r0,#0]
        0x00001a44:    4852        RH      LDR      r0,[pc,#328] ; [0x1b90] = 0x2000009f
        0x00001a46:    7005        .p      STRB     r5,[r0,#0]
        0x00001a48:    2005        .       MOVS     r0,#5
        0x00001a4a:    7020         p      STRB     r0,[r4,#0]
        0x00001a4c:    9805        ..      LDR      r0,[sp,#0x14]
        0x00001a4e:    7030        0p      STRB     r0,[r6,#0]
        0x00001a50:    9809        ..      LDR      r0,[sp,#0x24]
        0x00001a52:    07c0        ..      LSLS     r0,r0,#31
        0x00001a54:    d0b2        ..      BEQ      0x19bc ; ReaderPolling + 168
        0x00001a56:    9808        ..      LDR      r0,[sp,#0x20]
        0x00001a58:    e7af        ..      B        0x19ba ; ReaderPolling + 166
        0x00001a5a:    9b01        ..      LDR      r3,[sp,#4]
        0x00001a5c:    2b1e        .+      CMP      r3,#0x1e
        0x00001a5e:    d9ad        ..      BLS      0x19bc ; ReaderPolling + 168
        0x00001a60:    9b00        ..      LDR      r3,[sp,#0]
        0x00001a62:    7003        .p      STRB     r3,[r0,#0]
        0x00001a64:    2b05        .+      CMP      r3,#5
        0x00001a66:    d87a        z.      BHI      0x1b5e ; ReaderPolling + 586
        0x00001a68:    2003        .       MOVS     r0,#3
        0x00001a6a:    e7e0        ..      B        0x1a2e ; ReaderPolling + 282
        0x00001a6c:    7021        !p      STRB     r1,[r4,#0]
        0x00001a6e:    e7a5        ..      B        0x19bc ; ReaderPolling + 168
        0x00001a70:    9803        ..      LDR      r0,[sp,#0xc]
        0x00001a72:    280a        .(      CMP      r0,#0xa
        0x00001a74:    d9a2        ..      BLS      0x19bc ; ReaderPolling + 168
        0x00001a76:    4841        AH      LDR      r0,[pc,#260] ; [0x1b7c] = 0x200000a0
        0x00001a78:    7005        .p      STRB     r5,[r0,#0]
        0x00001a7a:    f000f9f5    ....    BL       ResetReaderUART ; 0x1e68
        0x00001a7e:    4844        DH      LDR      r0,[pc,#272] ; [0x1b90] = 0x2000009f
        0x00001a80:    7800        .x      LDRB     r0,[r0,#0]
        0x00001a82:    f000ffe7    ....    BL       SendReader_UserInformation ; 0x2a54
        0x00001a86:    4840        @H      LDR      r0,[pc,#256] ; [0x1b88] = 0x2000002d
        0x00001a88:    7005        .p      STRB     r5,[r0,#0]
        0x00001a8a:    2006        .       MOVS     r0,#6
        0x00001a8c:    e7cf        ..      B        0x1a2e ; ReaderPolling + 282
        0x00001a8e:    9b02        ..      LDR      r3,[sp,#8]
        0x00001a90:    2b00        .+      CMP      r3,#0
        0x00001a92:    d014        ..      BEQ      0x1abe ; ReaderPolling + 426
        0x00001a94:    7005        .p      STRB     r5,[r0,#0]
        0x00001a96:    4840        @H      LDR      r0,[pc,#256] ; [0x1b98] = 0x2000002e
        0x00001a98:    7135        5q      STRB     r5,[r6,#4]
        0x00001a9a:    7005        .p      STRB     r5,[r0,#0]
        0x00001a9c:    4836        6H      LDR      r0,[pc,#216] ; [0x1b78] = 0x2000002c
        0x00001a9e:    4a3c        <J      LDR      r2,[pc,#240] ; [0x1b90] = 0x2000009f
        0x00001aa0:    7005        .p      STRB     r5,[r0,#0]
        0x00001aa2:    9807        ..      LDR      r0,[sp,#0x1c]
        0x00001aa4:    7010        .p      STRB     r0,[r2,#0]
        0x00001aa6:    9b06        ..      LDR      r3,[sp,#0x18]
        0x00001aa8:    4298        .B      CMP      r0,r3
        0x00001aaa:    d30f        ..      BCC      0x1acc ; ReaderPolling + 440
        0x00001aac:    7071        qp      STRB     r1,[r6,#1]
        0x00001aae:    7021        !p      STRB     r1,[r4,#0]
        0x00001ab0:    7015        .p      STRB     r5,[r2,#0]
        0x00001ab2:    9904        ..      LDR      r1,[sp,#0x10]
        0x00001ab4:    4837        7H      LDR      r0,[pc,#220] ; [0x1b94] = 0x2000009b
        0x00001ab6:    0849        I.      LSRS     r1,r1,#1
        0x00001ab8:    0049        I.      LSLS     r1,r1,#1
        0x00001aba:    7001        .p      STRB     r1,[r0,#0]
        0x00001abc:    e77e        ~.      B        0x19bc ; ReaderPolling + 168
        0x00001abe:    9b01        ..      LDR      r3,[sp,#4]
        0x00001ac0:    2b1e        .+      CMP      r3,#0x1e
        0x00001ac2:    d9b5        ..      BLS      0x1a30 ; ReaderPolling + 284
        0x00001ac4:    9b00        ..      LDR      r3,[sp,#0]
        0x00001ac6:    7003        .p      STRB     r3,[r0,#0]
        0x00001ac8:    2b05        .+      CMP      r3,#5
        0x00001aca:    d848        H.      BHI      0x1b5e ; ReaderPolling + 586
        0x00001acc:    2005        .       MOVS     r0,#5
        0x00001ace:    e7ae        ..      B        0x1a2e ; ReaderPolling + 282
        0x00001ad0:    9803        ..      LDR      r0,[sp,#0xc]
        0x00001ad2:    280a        .(      CMP      r0,#0xa
        0x00001ad4:    d9ac        ..      BLS      0x1a30 ; ReaderPolling + 284
        0x00001ad6:    4829        )H      LDR      r0,[pc,#164] ; [0x1b7c] = 0x200000a0
        0x00001ad8:    7005        .p      STRB     r5,[r0,#0]
        0x00001ada:    f000f9c5    ....    BL       ResetReaderUART ; 0x1e68
        0x00001ade:    482c        ,H      LDR      r0,[pc,#176] ; [0x1b90] = 0x2000009f
        0x00001ae0:    7800        .x      LDRB     r0,[r0,#0]
        0x00001ae2:    f000fee9    ....    BL       SendReader_ChangeBalance ; 0x28b8
        0x00001ae6:    4828        (H      LDR      r0,[pc,#160] ; [0x1b88] = 0x2000002d
        0x00001ae8:    7005        .p      STRB     r5,[r0,#0]
        0x00001aea:    2008        .       MOVS     r0,#8
        0x00001aec:    e79f        ..      B        0x1a2e ; ReaderPolling + 282
        0x00001aee:    9b02        ..      LDR      r3,[sp,#8]
        0x00001af0:    2b00        .+      CMP      r3,#0
        0x00001af2:    d00e        ..      BEQ      0x1b12 ; ReaderPolling + 510
        0x00001af4:    4a28        (J      LDR      r2,[pc,#160] ; [0x1b98] = 0x2000002e
        0x00001af6:    7135        5q      STRB     r5,[r6,#4]
        0x00001af8:    7015        .p      STRB     r5,[r2,#0]
        0x00001afa:    7005        .p      STRB     r5,[r0,#0]
        0x00001afc:    481e        .H      LDR      r0,[pc,#120] ; [0x1b78] = 0x2000002c
        0x00001afe:    4a24        $J      LDR      r2,[pc,#144] ; [0x1b90] = 0x2000009f
        0x00001b00:    7005        .p      STRB     r5,[r0,#0]
        0x00001b02:    9807        ..      LDR      r0,[sp,#0x1c]
        0x00001b04:    7010        .p      STRB     r0,[r2,#0]
        0x00001b06:    9b06        ..      LDR      r3,[sp,#0x18]
        0x00001b08:    4298        .B      CMP      r0,r3
        0x00001b0a:    d309        ..      BCC      0x1b20 ; ReaderPolling + 524
        0x00001b0c:    7021        !p      STRB     r1,[r4,#0]
        0x00001b0e:    7015        .p      STRB     r5,[r2,#0]
        0x00001b10:    e754        T.      B        0x19bc ; ReaderPolling + 168
        0x00001b12:    9b01        ..      LDR      r3,[sp,#4]
        0x00001b14:    2b1e        .+      CMP      r3,#0x1e
        0x00001b16:    d98b        ..      BLS      0x1a30 ; ReaderPolling + 284
        0x00001b18:    9b00        ..      LDR      r3,[sp,#0]
        0x00001b1a:    7003        .p      STRB     r3,[r0,#0]
        0x00001b1c:    2b05        .+      CMP      r3,#5
        0x00001b1e:    d81e        ..      BHI      0x1b5e ; ReaderPolling + 586
        0x00001b20:    2007        .       MOVS     r0,#7
        0x00001b22:    e784        ..      B        0x1a2e ; ReaderPolling + 282
        0x00001b24:    9803        ..      LDR      r0,[sp,#0xc]
        0x00001b26:    280a        .(      CMP      r0,#0xa
        0x00001b28:    d9a1        ..      BLS      0x1a6e ; ReaderPolling + 346
        0x00001b2a:    4814        .H      LDR      r0,[pc,#80] ; [0x1b7c] = 0x200000a0
        0x00001b2c:    7005        .p      STRB     r5,[r0,#0]
        0x00001b2e:    f000f99b    ....    BL       ResetReaderUART ; 0x1e68
        0x00001b32:    f000ff3d    ..=.    BL       SendReader_GetDoorRCD ; 0x29b0
        0x00001b36:    4814        .H      LDR      r0,[pc,#80] ; [0x1b88] = 0x2000002d
        0x00001b38:    7005        .p      STRB     r5,[r0,#0]
        0x00001b3a:    200e        .       MOVS     r0,#0xe
        0x00001b3c:    e777        w.      B        0x1a2e ; ReaderPolling + 282
        0x00001b3e:    9b02        ..      LDR      r3,[sp,#8]
        0x00001b40:    2b00        .+      CMP      r3,#0
        0x00001b42:    d005        ..      BEQ      0x1b50 ; ReaderPolling + 572
        0x00001b44:    7005        .p      STRB     r5,[r0,#0]
        0x00001b46:    4814        .H      LDR      r0,[pc,#80] ; [0x1b98] = 0x2000002e
        0x00001b48:    7135        5q      STRB     r5,[r6,#4]
        0x00001b4a:    7005        .p      STRB     r5,[r0,#0]
        0x00001b4c:    e760        `.      B        0x1a10 ; ReaderPolling + 252
        0x00001b4e:    e006        ..      B        0x1b5e ; ReaderPolling + 586
        0x00001b50:    9b01        ..      LDR      r3,[sp,#4]
        0x00001b52:    2b1e        .+      CMP      r3,#0x1e
        0x00001b54:    d98b        ..      BLS      0x1a6e ; ReaderPolling + 346
        0x00001b56:    9b00        ..      LDR      r3,[sp,#0]
        0x00001b58:    7003        .p      STRB     r3,[r0,#0]
        0x00001b5a:    2b05        .+      CMP      r3,#5
        0x00001b5c:    d907        ..      BLS      0x1b6e ; ReaderPolling + 602
        0x00001b5e:    7005        .p      STRB     r5,[r0,#0]
        0x00001b60:    7132        2q      STRB     r2,[r6,#4]
        0x00001b62:    2a03        .*      CMP      r2,#3
        0x00001b64:    d982        ..      BLS      0x1a6c ; ReaderPolling + 344
        0x00001b66:    480c        .H      LDR      r0,[pc,#48] ; [0x1b98] = 0x2000002e
        0x00001b68:    7135        5q      STRB     r5,[r6,#4]
        0x00001b6a:    7001        .p      STRB     r1,[r0,#0]
        0x00001b6c:    e77e        ~.      B        0x1a6c ; ReaderPolling + 344
        0x00001b6e:    200d        .       MOVS     r0,#0xd
        0x00001b70:    e75d        ].      B        0x1a2e ; ReaderPolling + 282
    $d
        0x00001b72:    0000        ..      DCW    0
        0x00001b74:    2000003b    ;..     DCD    536870971
        0x00001b78:    2000002c    ,..     DCD    536870956
        0x00001b7c:    200000a0    ...     DCD    536871072
        0x00001b80:    2000009e    ...     DCD    536871070
        0x00001b84:    200002d4    ...     DCD    536871636
        0x00001b88:    2000002d    -..     DCD    536870957
        0x00001b8c:    200000c2    ...     DCD    536871106
        0x00001b90:    2000009f    ...     DCD    536871071
        0x00001b94:    2000009b    ...     DCD    536871067
        0x00001b98:    2000002e    ...     DCD    536870958
    $t
    i.ReaderProcess
    ReaderProcess
        0x00001b9c:    b510        ..      PUSH     {r4,lr}
        0x00001b9e:    4822        "H      LDR      r0,[pc,#136] ; [0x1c28] = 0x2000003d
        0x00001ba0:    7801        .x      LDRB     r1,[r0,#0]
        0x00001ba2:    2931        1)      CMP      r1,#0x31
        0x00001ba4:    d103        ..      BNE      0x1bae ; ReaderProcess + 18
        0x00001ba6:    2132        2!      MOVS     r1,#0x32
        0x00001ba8:    7001        .p      STRB     r1,[r0,#0]
        0x00001baa:    f000f95d    ..].    BL       ResetReaderUART ; 0x1e68
        0x00001bae:    481f        .H      LDR      r0,[pc,#124] ; [0x1c2c] = 0x20000031
        0x00001bb0:    7801        .x      LDRB     r1,[r0,#0]
        0x00001bb2:    2900        .)      CMP      r1,#0
        0x00001bb4:    d030        0.      BEQ      0x1c18 ; ReaderProcess + 124
        0x00001bb6:    2300        .#      MOVS     r3,#0
        0x00001bb8:    7003        .p      STRB     r3,[r0,#0]
        0x00001bba:    4a1d        .J      LDR      r2,[pc,#116] ; [0x1c30] = 0x2000013c
        0x00001bbc:    4619        .F      MOV      r1,r3
        0x00001bbe:    2001        .       MOVS     r0,#1
        0x00001bc0:    5c14        .\      LDRB     r4,[r2,r0]
        0x00001bc2:    1c40        @.      ADDS     r0,r0,#1
        0x00001bc4:    1861        a.      ADDS     r1,r4,r1
        0x00001bc6:    b2c0        ..      UXTB     r0,r0
        0x00001bc8:    b2c9        ..      UXTB     r1,r1
        0x00001bca:    2836        6(      CMP      r0,#0x36
        0x00001bcc:    d3f8        ..      BCC      0x1bc0 ; ReaderProcess + 36
        0x00001bce:    7810        .x      LDRB     r0,[r2,#0]
        0x00001bd0:    2855        U(      CMP      r0,#0x55
        0x00001bd2:    d11f        ..      BNE      0x1c14 ; ReaderProcess + 120
        0x00001bd4:    4816        .H      LDR      r0,[pc,#88] ; [0x1c30] = 0x2000013c
        0x00001bd6:    3020         0      ADDS     r0,r0,#0x20
        0x00001bd8:    7d80        .}      LDRB     r0,[r0,#0x16]
        0x00001bda:    4288        .B      CMP      r0,r1
        0x00001bdc:    d11a        ..      BNE      0x1c14 ; ReaderProcess + 120
        0x00001bde:    4815        .H      LDR      r0,[pc,#84] ; [0x1c34] = 0x50004280
        0x00001be0:    6103        .a      STR      r3,[r0,#0x10]
        0x00001be2:    4815        .H      LDR      r0,[pc,#84] ; [0x1c38] = 0x20000059
        0x00001be4:    4915        .I      LDR      r1,[pc,#84] ; [0x1c3c] = 0x2000009d
        0x00001be6:    7003        .p      STRB     r3,[r0,#0]
        0x00001be8:    78d0        .x      LDRB     r0,[r2,#3]
        0x00001bea:    7008        .p      STRB     r0,[r1,#0]
        0x00001bec:    4914        .I      LDR      r1,[pc,#80] ; [0x1c40] = 0x20000027
        0x00001bee:    7910        .y      LDRB     r0,[r2,#4]
        0x00001bf0:    780b        .x      LDRB     r3,[r1,#0]
        0x00001bf2:    4003        .@      ANDS     r3,r3,r0
        0x00001bf4:    700b        .p      STRB     r3,[r1,#0]
        0x00001bf6:    4913        .I      LDR      r1,[pc,#76] ; [0x1c44] = 0x20000028
        0x00001bf8:    20ff        .       MOVS     r0,#0xff
        0x00001bfa:    7008        .p      STRB     r0,[r1,#0]
        0x00001bfc:    7850        Px      LDRB     r0,[r2,#1]
        0x00001bfe:    2801        .(      CMP      r0,#1
        0x00001c00:    d10a        ..      BNE      0x1c18 ; ReaderProcess + 124
        0x00001c02:    4911        .I      LDR      r1,[pc,#68] ; [0x1c48] = 0x200000a0
        0x00001c04:    7008        .p      STRB     r0,[r1,#0]
        0x00001c06:    7890        .x      LDRB     r0,[r2,#2]
        0x00001c08:    2830        0(      CMP      r0,#0x30
        0x00001c0a:    d005        ..      BEQ      0x1c18 ; ReaderProcess + 124
        0x00001c0c:    2832        2(      CMP      r0,#0x32
        0x00001c0e:    d004        ..      BEQ      0x1c1a ; ReaderProcess + 126
        0x00001c10:    2834        4(      CMP      r0,#0x34
        0x00001c12:    d005        ..      BEQ      0x1c20 ; ReaderProcess + 132
        0x00001c14:    f000f928    ..(.    BL       ResetReaderUART ; 0x1e68
        0x00001c18:    bd10        ..      POP      {r4,pc}
        0x00001c1a:    f000f817    ....    BL       Reader_AliveAckProcess ; 0x1c4c
        0x00001c1e:    bd10        ..      POP      {r4,pc}
        0x00001c20:    f000f87e    ..~.    BL       Reader_DoorRCDProcess ; 0x1d20
        0x00001c24:    bd10        ..      POP      {r4,pc}
    $d
        0x00001c26:    0000        ..      DCW    0
        0x00001c28:    2000003d    =..     DCD    536870973
        0x00001c2c:    20000031    1..     DCD    536870961
        0x00001c30:    2000013c    <..     DCD    536871228
        0x00001c34:    50004280    .B.P    DCD    1342194304
        0x00001c38:    20000059    Y..     DCD    536871001
        0x00001c3c:    2000009d    ...     DCD    536871069
        0x00001c40:    20000027    '..     DCD    536870951
        0x00001c44:    20000028    (..     DCD    536870952
        0x00001c48:    200000a0    ...     DCD    536871072
    $t
    i.Reader_AliveAckProcess
    Reader_AliveAckProcess
        0x00001c4c:    b57c        |.      PUSH     {r2-r6,lr}
        0x00001c4e:    4c2c        ,L      LDR      r4,[pc,#176] ; [0x1d00] = 0x2000013c
        0x00001c50:    482c        ,H      LDR      r0,[pc,#176] ; [0x1d04] = 0x2000008c
        0x00001c52:    7b21        !{      LDRB     r1,[r4,#0xc]
        0x00001c54:    7001        .p      STRB     r1,[r0,#0]
        0x00001c56:    7b61        a{      LDRB     r1,[r4,#0xd]
        0x00001c58:    7041        Ap      STRB     r1,[r0,#1]
        0x00001c5a:    7ba1        .{      LDRB     r1,[r4,#0xe]
        0x00001c5c:    7081        .p      STRB     r1,[r0,#2]
        0x00001c5e:    7be1        .{      LDRB     r1,[r4,#0xf]
        0x00001c60:    4e29        )N      LDR      r6,[pc,#164] ; [0x1d08] = 0x2000009d
        0x00001c62:    70c1        .p      STRB     r1,[r0,#3]
        0x00001c64:    7830        0x      LDRB     r0,[r6,#0]
        0x00001c66:    4d29        )M      LDR      r5,[pc,#164] ; [0x1d0c] = 0x20000028
        0x00001c68:    07c1        ..      LSLS     r1,r0,#31
        0x00001c6a:    d006        ..      BEQ      0x1c7a ; Reader_AliveAckProcess + 46
        0x00001c6c:    4825        %H      LDR      r0,[pc,#148] ; [0x1d04] = 0x2000008c
        0x00001c6e:    f001fcd5    ....    BL       UserCGRModeJoin ; 0x361c
        0x00001c72:    7828        (x      LDRB     r0,[r5,#0]
        0x00001c74:    0840        @.      LSRS     r0,r0,#1
        0x00001c76:    0040        @.      LSLS     r0,r0,#1
        0x00001c78:    e007        ..      B        0x1c8a ; Reader_AliveAckProcess + 62
        0x00001c7a:    0780        ..      LSLS     r0,r0,#30
        0x00001c7c:    d506        ..      BPL      0x1c8c ; Reader_AliveAckProcess + 64
        0x00001c7e:    4821        !H      LDR      r0,[pc,#132] ; [0x1d04] = 0x2000008c
        0x00001c80:    f001fc60    ..`.    BL       UserCGRModeExit ; 0x3544
        0x00001c84:    7828        (x      LDRB     r0,[r5,#0]
        0x00001c86:    21fd        .!      MOVS     r1,#0xfd
        0x00001c88:    4008        .@      ANDS     r0,r0,r1
        0x00001c8a:    7028        (p      STRB     r0,[r5,#0]
        0x00001c8c:    7830        0x      LDRB     r0,[r6,#0]
        0x00001c8e:    4920         I      LDR      r1,[pc,#128] ; [0x1d10] = 0x2000009b
        0x00001c90:    0742        B.      LSLS     r2,r0,#29
        0x00001c92:    d507        ..      BPL      0x1ca4 ; Reader_AliveAckProcess + 88
        0x00001c94:    780a        .x      LDRB     r2,[r1,#0]
        0x00001c96:    2308        .#      MOVS     r3,#8
        0x00001c98:    431a        .C      ORRS     r2,r2,r3
        0x00001c9a:    700a        .p      STRB     r2,[r1,#0]
        0x00001c9c:    782a        *x      LDRB     r2,[r5,#0]
        0x00001c9e:    23fb        .#      MOVS     r3,#0xfb
        0x00001ca0:    401a        .@      ANDS     r2,r2,r3
        0x00001ca2:    702a        *p      STRB     r2,[r5,#0]
        0x00001ca4:    0600        ..      LSLS     r0,r0,#24
        0x00001ca6:    2201        ."      MOVS     r2,#1
        0x00001ca8:    2800        .(      CMP      r0,#0
        0x00001caa:    da06        ..      BGE      0x1cba ; Reader_AliveAckProcess + 110
        0x00001cac:    7808        .x      LDRB     r0,[r1,#0]
        0x00001cae:    4310        .C      ORRS     r0,r0,r2
        0x00001cb0:    7008        .p      STRB     r0,[r1,#0]
        0x00001cb2:    7828        (x      LDRB     r0,[r5,#0]
        0x00001cb4:    0640        @.      LSLS     r0,r0,#25
        0x00001cb6:    0e40        @.      LSRS     r0,r0,#25
        0x00001cb8:    7028        (p      STRB     r0,[r5,#0]
        0x00001cba:    2000        .       MOVS     r0,#0
        0x00001cbc:    4669        iF      MOV      r1,sp
        0x00001cbe:    1823        #.      ADDS     r3,r4,r0
        0x00001cc0:    795b        [y      LDRB     r3,[r3,#5]
        0x00001cc2:    540b        .T      STRB     r3,[r1,r0]
        0x00001cc4:    1c40        @.      ADDS     r0,r0,#1
        0x00001cc6:    b2c0        ..      UXTB     r0,r0
        0x00001cc8:    2807        .(      CMP      r0,#7
        0x00001cca:    d3f8        ..      BCC      0x1cbe ; Reader_AliveAckProcess + 114
        0x00001ccc:    4811        .H      LDR      r0,[pc,#68] ; [0x1d14] = 0x200002d4
        0x00001cce:    784c        Lx      LDRB     r4,[r1,#1]
        0x00001cd0:    7840        @x      LDRB     r0,[r0,#1]
        0x00001cd2:    2300        .#      MOVS     r3,#0
        0x00001cd4:    4910        .I      LDR      r1,[pc,#64] ; [0x1d18] = 0x200000c2
        0x00001cd6:    42a0        .B      CMP      r0,r4
        0x00001cd8:    d00f        ..      BEQ      0x1cfa ; Reader_AliveAckProcess + 174
        0x00001cda:    78c8        .x      LDRB     r0,[r1,#3]
        0x00001cdc:    1c40        @.      ADDS     r0,r0,#1
        0x00001cde:    b2c0        ..      UXTB     r0,r0
        0x00001ce0:    70c8        .p      STRB     r0,[r1,#3]
        0x00001ce2:    280a        .(      CMP      r0,#0xa
        0x00001ce4:    d908        ..      BLS      0x1cf8 ; Reader_AliveAckProcess + 172
        0x00001ce6:    70cb        .p      STRB     r3,[r1,#3]
        0x00001ce8:    490c        .I      LDR      r1,[pc,#48] ; [0x1d1c] = 0x20000027
        0x00001cea:    2302        .#      MOVS     r3,#2
        0x00001cec:    7808        .x      LDRB     r0,[r1,#0]
        0x00001cee:    4318        .C      ORRS     r0,r0,r3
        0x00001cf0:    4310        .C      ORRS     r0,r0,r2
        0x00001cf2:    2204        ."      MOVS     r2,#4
        0x00001cf4:    4310        .C      ORRS     r0,r0,r2
        0x00001cf6:    7008        .p      STRB     r0,[r1,#0]
        0x00001cf8:    bd7c        |.      POP      {r2-r6,pc}
        0x00001cfa:    70cb        .p      STRB     r3,[r1,#3]
        0x00001cfc:    bd7c        |.      POP      {r2-r6,pc}
    $d
        0x00001cfe:    0000        ..      DCW    0
        0x00001d00:    2000013c    <..     DCD    536871228
        0x00001d04:    2000008c    ...     DCD    536871052
        0x00001d08:    2000009d    ...     DCD    536871069
        0x00001d0c:    20000028    (..     DCD    536870952
        0x00001d10:    2000009b    ...     DCD    536871067
        0x00001d14:    200002d4    ...     DCD    536871636
        0x00001d18:    200000c2    ...     DCD    536871106
        0x00001d1c:    20000027    '..     DCD    536870951
    $t
    i.Reader_DoorRCDProcess
    Reader_DoorRCDProcess
        0x00001d20:    b570        p.      PUSH     {r4-r6,lr}
        0x00001d22:    4821        !H      LDR      r0,[pc,#132] ; [0x1da8] = 0x2000009d
        0x00001d24:    22fb        ."      MOVS     r2,#0xfb
        0x00001d26:    7801        .x      LDRB     r1,[r0,#0]
        0x00001d28:    4d20         M      LDR      r5,[pc,#128] ; [0x1dac] = 0x2000013c
        0x00001d2a:    4011        .@      ANDS     r1,r1,r2
        0x00001d2c:    7001        .p      STRB     r1,[r0,#0]
        0x00001d2e:    4820         H      LDR      r0,[pc,#128] ; [0x1db0] = 0x20000028
        0x00001d30:    796b        ky      LDRB     r3,[r5,#5]
        0x00001d32:    7801        .x      LDRB     r1,[r0,#0]
        0x00001d34:    4c20         L      LDR      r4,[pc,#128] ; [0x1db8] = 0x20000097
        0x00001d36:    4011        .@      ANDS     r1,r1,r2
        0x00001d38:    7001        .p      STRB     r1,[r0,#0]
        0x00001d3a:    481e        .H      LDR      r0,[pc,#120] ; [0x1db4] = 0x20000027
        0x00001d3c:    2210        ."      MOVS     r2,#0x10
        0x00001d3e:    7801        .x      LDRB     r1,[r0,#0]
        0x00001d40:    4311        .C      ORRS     r1,r1,r2
        0x00001d42:    7001        .p      STRB     r1,[r0,#0]
        0x00001d44:    7820         x      LDRB     r0,[r4,#0]
        0x00001d46:    220b        ."      MOVS     r2,#0xb
        0x00001d48:    4350        PC      MULS     r0,r2,r0
        0x00001d4a:    4a1c        .J      LDR      r2,[pc,#112] ; [0x1dbc] = 0x200007fe
        0x00001d4c:    2106        .!      MOVS     r1,#6
        0x00001d4e:    1882        ..      ADDS     r2,r0,r2
        0x00001d50:    2000        .       MOVS     r0,#0
        0x00001d52:    5c6e        n\      LDRB     r6,[r5,r1]
        0x00001d54:    5416        .T      STRB     r6,[r2,r0]
        0x00001d56:    1c49        I.      ADDS     r1,r1,#1
        0x00001d58:    1c40        @.      ADDS     r0,r0,#1
        0x00001d5a:    b2c0        ..      UXTB     r0,r0
        0x00001d5c:    b2c9        ..      UXTB     r1,r1
        0x00001d5e:    280b        .(      CMP      r0,#0xb
        0x00001d60:    d3f7        ..      BCC      0x1d52 ; Reader_DoorRCDProcess + 50
        0x00001d62:    7820         x      LDRB     r0,[r4,#0]
        0x00001d64:    1c40        @.      ADDS     r0,r0,#1
        0x00001d66:    b2c0        ..      UXTB     r0,r0
        0x00001d68:    7020         p      STRB     r0,[r4,#0]
        0x00001d6a:    2802        .(      CMP      r0,#2
        0x00001d6c:    d301        ..      BCC      0x1d72 ; Reader_DoorRCDProcess + 82
        0x00001d6e:    2000        .       MOVS     r0,#0
        0x00001d70:    7020         p      STRB     r0,[r4,#0]
        0x00001d72:    4813        .H      LDR      r0,[pc,#76] ; [0x1dc0] = 0x20000096
        0x00001d74:    2202        ."      MOVS     r2,#2
        0x00001d76:    7801        .x      LDRB     r1,[r0,#0]
        0x00001d78:    1e5b        [.      SUBS     r3,r3,#1
        0x00001d7a:    1c49        I.      ADDS     r1,r1,#1
        0x00001d7c:    7001        .p      STRB     r1,[r0,#0]
        0x00001d7e:    4811        .H      LDR      r0,[pc,#68] ; [0x1dc4] = 0x200004d4
        0x00001d80:    7e41        A~      LDRB     r1,[r0,#0x19]
        0x00001d82:    4311        .C      ORRS     r1,r1,r2
        0x00001d84:    7641        Av      STRB     r1,[r0,#0x19]
        0x00001d86:    4810        .H      LDR      r0,[pc,#64] ; [0x1dc8] = 0x20000029
        0x00001d88:    2220         "      MOVS     r2,#0x20
        0x00001d8a:    7801        .x      LDRB     r1,[r0,#0]
        0x00001d8c:    4311        .C      ORRS     r1,r1,r2
        0x00001d8e:    7001        .p      STRB     r1,[r0,#0]
        0x00001d90:    490e        .I      LDR      r1,[pc,#56] ; [0x1dcc] = 0x2000009b
        0x00001d92:    2b00        .+      CMP      r3,#0
        0x00001d94:    7808        .x      LDRB     r0,[r1,#0]
        0x00001d96:    dd02        ..      BLE      0x1d9e ; Reader_DoorRCDProcess + 126
        0x00001d98:    2208        ."      MOVS     r2,#8
        0x00001d9a:    4310        .C      ORRS     r0,r0,r2
        0x00001d9c:    e001        ..      B        0x1da2 ; Reader_DoorRCDProcess + 130
        0x00001d9e:    22f7        ."      MOVS     r2,#0xf7
        0x00001da0:    4010        .@      ANDS     r0,r0,r2
        0x00001da2:    7008        .p      STRB     r0,[r1,#0]
        0x00001da4:    bd70        p.      POP      {r4-r6,pc}
    $d
        0x00001da6:    0000        ..      DCW    0
        0x00001da8:    2000009d    ...     DCD    536871069
        0x00001dac:    2000013c    <..     DCD    536871228
        0x00001db0:    20000028    (..     DCD    536870952
        0x00001db4:    20000027    '..     DCD    536870951
        0x00001db8:    20000097    ...     DCD    536871063
        0x00001dbc:    200007fe    ...     DCD    536872958
        0x00001dc0:    20000096    ...     DCD    536871062
        0x00001dc4:    200004d4    ...     DCD    536872148
        0x00001dc8:    20000029    )..     DCD    536870953
        0x00001dcc:    2000009b    ...     DCD    536871067
    $t
    i.RecordJoinCGR
    RecordJoinCGR
        0x00001dd0:    4b0a        .K      LDR      r3,[pc,#40] ; [0x1dfc] = 0x200002d4
        0x00001dd2:    b510        ..      PUSH     {r4,lr}
        0x00001dd4:    2200        ."      MOVS     r2,#0
        0x00001dd6:    0141        A.      LSLS     r1,r0,#5
        0x00001dd8:    18c9        ..      ADDS     r1,r1,r3
        0x00001dda:    e005        ..      B        0x1de8 ; RecordJoinCGR + 24
        0x00001ddc:    7e0c        .~      LDRB     r4,[r1,#0x18]
        0x00001dde:    0864        d.      LSRS     r4,r4,#1
        0x00001de0:    0064        d.      LSLS     r4,r4,#1
        0x00001de2:    1c52        R.      ADDS     r2,r2,#1
        0x00001de4:    760c        .v      STRB     r4,[r1,#0x18]
        0x00001de6:    b2d2        ..      UXTB     r2,r2
        0x00001de8:    78dc        .x      LDRB     r4,[r3,#3]
        0x00001dea:    4294        .B      CMP      r4,r2
        0x00001dec:    d8f6        ..      BHI      0x1ddc ; RecordJoinCGR + 12
        0x00001dee:    7e0a        .~      LDRB     r2,[r1,#0x18]
        0x00001df0:    2301        .#      MOVS     r3,#1
        0x00001df2:    431a        .C      ORRS     r2,r2,r3
        0x00001df4:    760a        .v      STRB     r2,[r1,#0x18]
        0x00001df6:    f000fe7f    ....    BL       SetStartInfor ; 0x2af8
        0x00001dfa:    bd10        ..      POP      {r4,pc}
    $d
        0x00001dfc:    200002d4    ...     DCD    536871636
    $t
    i.RecoverSystemMoniter
    RecoverSystemMoniter
        0x00001e00:    b510        ..      PUSH     {r4,lr}
        0x00001e02:    4a0b        .J      LDR      r2,[pc,#44] ; [0x1e30] = 0x2000002c
        0x00001e04:    2300        .#      MOVS     r3,#0
        0x00001e06:    7dd0        .}      LDRB     r0,[r2,#0x17]
        0x00001e08:    2800        .(      CMP      r0,#0
        0x00001e0a:    d008        ..      BEQ      0x1e1e ; RecoverSystemMoniter + 30
        0x00001e0c:    4c09        .L      LDR      r4,[pc,#36] ; [0x1e34] = 0x500042c0
        0x00001e0e:    75d3        .u      STRB     r3,[r2,#0x17]
        0x00001e10:    61e3        .a      STR      r3,[r4,#0x1c]
        0x00001e12:    f000f811    ....    BL       ResetHostUART ; 0x1e38
        0x00001e16:    f000f827    ..'.    BL       ResetReaderUART ; 0x1e68
        0x00001e1a:    2001        .       MOVS     r0,#1
        0x00001e1c:    61e0        .a      STR      r0,[r4,#0x1c]
        0x00001e1e:    7e10        .~      LDRB     r0,[r2,#0x18]
        0x00001e20:    2800        .(      CMP      r0,#0
        0x00001e22:    d004        ..      BEQ      0x1e2e ; RecoverSystemMoniter + 46
        0x00001e24:    7613        .v      STRB     r3,[r2,#0x18]
        0x00001e26:    f000f807    ....    BL       ResetHostUART ; 0x1e38
        0x00001e2a:    f000f81d    ....    BL       ResetReaderUART ; 0x1e68
        0x00001e2e:    bd10        ..      POP      {r4,pc}
    $d
        0x00001e30:    2000002c    ,..     DCD    536870956
        0x00001e34:    500042c0    .B.P    DCD    1342194368
    $t
    i.ResetHostUART
    ResetHostUART
        0x00001e38:    4804        .H      LDR      r0,[pc,#16] ; [0x1e4c] = 0x2000000c
        0x00001e3a:    2100        .!      MOVS     r1,#0
        0x00001e3c:    70c1        .p      STRB     r1,[r0,#3]
        0x00001e3e:    7041        Ap      STRB     r1,[r0,#1]
        0x00001e40:    7081        .p      STRB     r1,[r0,#2]
        0x00001e42:    7241        Ar      STRB     r1,[r0,#9]
        0x00001e44:    71c1        .q      STRB     r1,[r0,#7]
        0x00001e46:    7201        .r      STRB     r1,[r0,#8]
        0x00001e48:    4770        pG      BX       lr
    $d
        0x00001e4a:    0000        ..      DCW    0
        0x00001e4c:    2000000c    ...     DCD    536870924
    $t
    i.ResetMeterUART
    ResetMeterUART
        0x00001e50:    4804        .H      LDR      r0,[pc,#16] ; [0x1e64] = 0x2000000c
        0x00001e52:    2100        .!      MOVS     r1,#0
        0x00001e54:    7401        .t      STRB     r1,[r0,#0x10]
        0x00001e56:    7441        At      STRB     r1,[r0,#0x11]
        0x00001e58:    7481        .t      STRB     r1,[r0,#0x12]
        0x00001e5a:    7341        As      STRB     r1,[r0,#0xd]
        0x00001e5c:    7381        .s      STRB     r1,[r0,#0xe]
        0x00001e5e:    73c1        .s      STRB     r1,[r0,#0xf]
        0x00001e60:    4770        pG      BX       lr
    $d
        0x00001e62:    0000        ..      DCW    0
        0x00001e64:    2000000c    ...     DCD    536870924
    $t
    i.ResetReaderUART
    ResetReaderUART
        0x00001e68:    4804        .H      LDR      r0,[pc,#16] ; [0x1e7c] = 0x2000000c
        0x00001e6a:    2100        .!      MOVS     r1,#0
        0x00001e6c:    7101        .q      STRB     r1,[r0,#4]
        0x00001e6e:    7141        Aq      STRB     r1,[r0,#5]
        0x00001e70:    7181        .q      STRB     r1,[r0,#6]
        0x00001e72:    7281        .r      STRB     r1,[r0,#0xa]
        0x00001e74:    72c1        .r      STRB     r1,[r0,#0xb]
        0x00001e76:    7301        .s      STRB     r1,[r0,#0xc]
        0x00001e78:    4770        pG      BX       lr
    $d
        0x00001e7a:    0000        ..      DCW    0
        0x00001e7c:    2000000c    ...     DCD    536870924
    $t
    i.RoomModeUpdateProcess
    RoomModeUpdateProcess
        0x00001e80:    b5fe        ..      PUSH     {r1-r7,lr}
        0x00001e82:    4a6a        jJ      LDR      r2,[pc,#424] ; [0x202c] = 0x200000c5
        0x00001e84:    2100        .!      MOVS     r1,#0
        0x00001e86:    7011        .p      STRB     r1,[r2,#0]
        0x00001e88:    4969        iI      LDR      r1,[pc,#420] ; [0x2030] = 0x200002d4
        0x00001e8a:    2402        .$      MOVS     r4,#2
        0x00001e8c:    784f        Ox      LDRB     r7,[r1,#1]
        0x00001e8e:    496a        jI      LDR      r1,[pc,#424] ; [0x2038] = 0x20000029
        0x00001e90:    2608        .&      MOVS     r6,#8
        0x00001e92:    780a        .x      LDRB     r2,[r1,#0]
        0x00001e94:    2102        .!      MOVS     r1,#2
        0x00001e96:    430a        .C      ORRS     r2,r2,r1
        0x00001e98:    4968        hI      LDR      r1,[pc,#416] ; [0x203c] = 0x20000027
        0x00001e9a:    4b66        fK      LDR      r3,[pc,#408] ; [0x2034] = 0x20000093
        0x00001e9c:    7809        .x      LDRB     r1,[r1,#0]
        0x00001e9e:    4321        !C      ORRS     r1,r1,r4
        0x00001ea0:    4c67        gL      LDR      r4,[pc,#412] ; [0x2040] = 0x200004d4
        0x00001ea2:    7e65        e~      LDRB     r5,[r4,#0x19]
        0x00001ea4:    9501        ..      STR      r5,[sp,#4]
        0x00001ea6:    4335        5C      ORRS     r5,r5,r6
        0x00001ea8:    9500        ..      STR      r5,[sp,#0]
        0x00001eaa:    781e        .x      LDRB     r6,[r3,#0]
        0x00001eac:    4b60        `K      LDR      r3,[pc,#384] ; [0x2030] = 0x200002d4
        0x00001eae:    0175        u.      LSLS     r5,r6,#5
        0x00001eb0:    18ed        ..      ADDS     r5,r5,r3
        0x00001eb2:    003b        ;.      MOVS     r3,r7
        0x00001eb4:    f001fd46    ..F.    BL       __ARM_common_switch8 ; 0x3944
    $d
        0x00001eb8:    34046805    .h.4    DCD    872704005
        0x00001ebc:    00686969    iih.    DCD    6842729
    $t
        0x00001ec0:    0003        ..      MOVS     r3,r0
        0x00001ec2:    f001fd3f    ..?.    BL       __ARM_common_switch8 ; 0x3944
    $d
        0x00001ec6:    6106        .a      DCW    24838
        0x00001ec8:    25250425    %.%%    DCD    623182885
        0x00001ecc:    6125        %a      DCW    24869
    $t
        0x00001ece:    4b58        XK      LDR      r3,[pc,#352] ; [0x2030] = 0x200002d4
        0x00001ed0:    2704        .'      MOVS     r7,#4
        0x00001ed2:    7058        Xp      STRB     r0,[r3,#1]
        0x00001ed4:    4858        XH      LDR      r0,[pc,#352] ; [0x2038] = 0x20000029
        0x00001ed6:    433a        :C      ORRS     r2,r2,r7
        0x00001ed8:    7002        .p      STRB     r2,[r0,#0]
        0x00001eda:    4858        XH      LDR      r0,[pc,#352] ; [0x203c] = 0x20000027
        0x00001edc:    4339        9C      ORRS     r1,r1,r7
        0x00001ede:    7001        .p      STRB     r1,[r0,#0]
        0x00001ee0:    9800        ..      LDR      r0,[sp,#0]
        0x00001ee2:    2110        .!      MOVS     r1,#0x10
        0x00001ee4:    4308        .C      ORRS     r0,r0,r1
        0x00001ee6:    7660        `v      STRB     r0,[r4,#0x19]
        0x00001ee8:    2000        .       MOVS     r0,#0
        0x00001eea:    e007        ..      B        0x1efc ; RoomModeUpdateProcess + 124
        0x00001eec:    0141        A.      LSLS     r1,r0,#5
        0x00001eee:    18c9        ..      ADDS     r1,r1,r3
        0x00001ef0:    7e0a        .~      LDRB     r2,[r1,#0x18]
        0x00001ef2:    0852        R.      LSRS     r2,r2,#1
        0x00001ef4:    0052        R.      LSLS     r2,r2,#1
        0x00001ef6:    1c40        @.      ADDS     r0,r0,#1
        0x00001ef8:    760a        .v      STRB     r2,[r1,#0x18]
        0x00001efa:    b2c0        ..      UXTB     r0,r0
        0x00001efc:    78d9        .x      LDRB     r1,[r3,#3]
        0x00001efe:    4281        .B      CMP      r1,r0
        0x00001f00:    d8f4        ..      BHI      0x1eec ; RoomModeUpdateProcess + 108
        0x00001f02:    2001        .       MOVS     r0,#1
        0x00001f04:    7098        .p      STRB     r0,[r3,#2]
        0x00001f06:    751e        .u      STRB     r6,[r3,#0x14]
        0x00001f08:    7e29        )~      LDRB     r1,[r5,#0x18]
        0x00001f0a:    4301        .C      ORRS     r1,r1,r0
        0x00001f0c:    7629        )v      STRB     r1,[r5,#0x18]
        0x00001f0e:    e073        s.      B        0x1ff8 ; RoomModeUpdateProcess + 376
        0x00001f10:    4b47        GK      LDR      r3,[pc,#284] ; [0x2030] = 0x200002d4
        0x00001f12:    7058        Xp      STRB     r0,[r3,#1]
        0x00001f14:    4849        IH      LDR      r0,[pc,#292] ; [0x203c] = 0x20000027
        0x00001f16:    7001        .p      STRB     r1,[r0,#0]
        0x00001f18:    4847        GH      LDR      r0,[pc,#284] ; [0x2038] = 0x20000029
        0x00001f1a:    7002        .p      STRB     r2,[r0,#0]
        0x00001f1c:    9801        ..      LDR      r0,[sp,#4]
        0x00001f1e:    e030        0.      B        0x1f82 ; RoomModeUpdateProcess + 258
        0x00001f20:    0003        ..      MOVS     r3,r0
        0x00001f22:    f001fd0f    ....    BL       __ARM_common_switch8 ; 0x3944
    $d
        0x00001f26:    3106        .1      DCW    12550
        0x00001f28:    04043104    .1..    DCD    67383556
        0x00001f2c:    3104        .1      DCW    12548
    $t
        0x00001f2e:    2100        .!      MOVS     r1,#0
        0x00001f30:    4b3f        ?K      LDR      r3,[pc,#252] ; [0x2030] = 0x200002d4
        0x00001f32:    e007        ..      B        0x1f44 ; RoomModeUpdateProcess + 196
        0x00001f34:    014a        J.      LSLS     r2,r1,#5
        0x00001f36:    18d2        ..      ADDS     r2,r2,r3
        0x00001f38:    7e15        .~      LDRB     r5,[r2,#0x18]
        0x00001f3a:    086d        m.      LSRS     r5,r5,#1
        0x00001f3c:    006d        m.      LSLS     r5,r5,#1
        0x00001f3e:    1c49        I.      ADDS     r1,r1,#1
        0x00001f40:    7615        .v      STRB     r5,[r2,#0x18]
        0x00001f42:    b2c9        ..      UXTB     r1,r1
        0x00001f44:    78da        .x      LDRB     r2,[r3,#3]
        0x00001f46:    428a        .B      CMP      r2,r1
        0x00001f48:    d8f4        ..      BHI      0x1f34 ; RoomModeUpdateProcess + 180
        0x00001f4a:    7058        Xp      STRB     r0,[r3,#1]
        0x00001f4c:    2000        .       MOVS     r0,#0
        0x00001f4e:    7098        .p      STRB     r0,[r3,#2]
        0x00001f50:    7d18        .}      LDRB     r0,[r3,#0x14]
        0x00001f52:    0140        @.      LSLS     r0,r0,#5
        0x00001f54:    18c0        ..      ADDS     r0,r0,r3
        0x00001f56:    7e01        .~      LDRB     r1,[r0,#0x18]
        0x00001f58:    0849        I.      LSRS     r1,r1,#1
        0x00001f5a:    0049        I.      LSLS     r1,r1,#1
        0x00001f5c:    7601        .v      STRB     r1,[r0,#0x18]
        0x00001f5e:    7d18        .}      LDRB     r0,[r3,#0x14]
        0x00001f60:    f7fffc10    ....    BL       PowerRCD_AddNew ; 0x1784
        0x00001f64:    4935        5I      LDR      r1,[pc,#212] ; [0x203c] = 0x20000027
        0x00001f66:    2302        .#      MOVS     r3,#2
        0x00001f68:    7808        .x      LDRB     r0,[r1,#0]
        0x00001f6a:    2204        ."      MOVS     r2,#4
        0x00001f6c:    4318        .C      ORRS     r0,r0,r3
        0x00001f6e:    4310        .C      ORRS     r0,r0,r2
        0x00001f70:    7008        .p      STRB     r0,[r1,#0]
        0x00001f72:    4931        1I      LDR      r1,[pc,#196] ; [0x2038] = 0x20000029
        0x00001f74:    7808        .x      LDRB     r0,[r1,#0]
        0x00001f76:    4318        .C      ORRS     r0,r0,r3
        0x00001f78:    4310        .C      ORRS     r0,r0,r2
        0x00001f7a:    7008        .p      STRB     r0,[r1,#0]
        0x00001f7c:    7e60        `~      LDRB     r0,[r4,#0x19]
        0x00001f7e:    2108        .!      MOVS     r1,#8
        0x00001f80:    4308        .C      ORRS     r0,r0,r1
        0x00001f82:    2110        .!      MOVS     r1,#0x10
        0x00001f84:    4308        .C      ORRS     r0,r0,r1
        0x00001f86:    7660        `v      STRB     r0,[r4,#0x19]
        0x00001f88:    bdfe        ..      POP      {r1-r7,pc}
        0x00001f8a:    0003        ..      MOVS     r3,r0
        0x00001f8c:    f001fcda    ....    BL       __ARM_common_switch8 ; 0x3944
    $d
        0x00001f90:    14050405    ....    DCD    335873029
        0x00001f94:    00043838    88..    DCD    276536
    $t
        0x00001f98:    e7f6        ..      B        0x1f88 ; RoomModeUpdateProcess + 264
        0x00001f9a:    2300        .#      MOVS     r3,#0
        0x00001f9c:    4f24        $O      LDR      r7,[pc,#144] ; [0x2030] = 0x200002d4
        0x00001f9e:    e007        ..      B        0x1fb0 ; RoomModeUpdateProcess + 304
        0x00001fa0:    015d        ].      LSLS     r5,r3,#5
        0x00001fa2:    19ed        ..      ADDS     r5,r5,r7
        0x00001fa4:    7e2e        .~      LDRB     r6,[r5,#0x18]
        0x00001fa6:    0876        v.      LSRS     r6,r6,#1
        0x00001fa8:    0076        v.      LSLS     r6,r6,#1
        0x00001faa:    1c5b        [.      ADDS     r3,r3,#1
        0x00001fac:    762e        .v      STRB     r6,[r5,#0x18]
        0x00001fae:    b2db        ..      UXTB     r3,r3
        0x00001fb0:    78fd        .x      LDRB     r5,[r7,#3]
        0x00001fb2:    429d        .B      CMP      r5,r3
        0x00001fb4:    d8f4        ..      BHI      0x1fa0 ; RoomModeUpdateProcess + 288
        0x00001fb6:    e031        1.      B        0x201c ; RoomModeUpdateProcess + 412
        0x00001fb8:    4b1d        .K      LDR      r3,[pc,#116] ; [0x2030] = 0x200002d4
        0x00001fba:    2704        .'      MOVS     r7,#4
        0x00001fbc:    7058        Xp      STRB     r0,[r3,#1]
        0x00001fbe:    481f        .H      LDR      r0,[pc,#124] ; [0x203c] = 0x20000027
        0x00001fc0:    4339        9C      ORRS     r1,r1,r7
        0x00001fc2:    7001        .p      STRB     r1,[r0,#0]
        0x00001fc4:    481c        .H      LDR      r0,[pc,#112] ; [0x2038] = 0x20000029
        0x00001fc6:    433a        :C      ORRS     r2,r2,r7
        0x00001fc8:    7002        .p      STRB     r2,[r0,#0]
        0x00001fca:    9800        ..      LDR      r0,[sp,#0]
        0x00001fcc:    2110        .!      MOVS     r1,#0x10
        0x00001fce:    4308        .C      ORRS     r0,r0,r1
        0x00001fd0:    7660        `v      STRB     r0,[r4,#0x19]
        0x00001fd2:    2000        .       MOVS     r0,#0
        0x00001fd4:    e007        ..      B        0x1fe6 ; RoomModeUpdateProcess + 358
        0x00001fd6:    0141        A.      LSLS     r1,r0,#5
        0x00001fd8:    18c9        ..      ADDS     r1,r1,r3
        0x00001fda:    7e0a        .~      LDRB     r2,[r1,#0x18]
        0x00001fdc:    0852        R.      LSRS     r2,r2,#1
        0x00001fde:    0052        R.      LSLS     r2,r2,#1
        0x00001fe0:    1c40        @.      ADDS     r0,r0,#1
        0x00001fe2:    760a        .v      STRB     r2,[r1,#0x18]
        0x00001fe4:    b2c0        ..      UXTB     r0,r0
        0x00001fe6:    78d9        .x      LDRB     r1,[r3,#3]
        0x00001fe8:    4281        .B      CMP      r1,r0
        0x00001fea:    d8f4        ..      BHI      0x1fd6 ; RoomModeUpdateProcess + 342
        0x00001fec:    2001        .       MOVS     r0,#1
        0x00001fee:    7098        .p      STRB     r0,[r3,#2]
        0x00001ff0:    7e29        )~      LDRB     r1,[r5,#0x18]
        0x00001ff2:    4301        .C      ORRS     r1,r1,r0
        0x00001ff4:    7629        )v      STRB     r1,[r5,#0x18]
        0x00001ff6:    751e        .u      STRB     r6,[r3,#0x14]
        0x00001ff8:    4630        0F      MOV      r0,r6
        0x00001ffa:    f000fd7d    ..}.    BL       SetStartInfor ; 0x2af8
        0x00001ffe:    bdfe        ..      POP      {r1-r7,pc}
        0x00002000:    2300        .#      MOVS     r3,#0
        0x00002002:    4f0b        .O      LDR      r7,[pc,#44] ; [0x2030] = 0x200002d4
        0x00002004:    e007        ..      B        0x2016 ; RoomModeUpdateProcess + 406
        0x00002006:    015d        ].      LSLS     r5,r3,#5
        0x00002008:    19ed        ..      ADDS     r5,r5,r7
        0x0000200a:    7e2e        .~      LDRB     r6,[r5,#0x18]
        0x0000200c:    0876        v.      LSRS     r6,r6,#1
        0x0000200e:    0076        v.      LSLS     r6,r6,#1
        0x00002010:    1c5b        [.      ADDS     r3,r3,#1
        0x00002012:    762e        .v      STRB     r6,[r5,#0x18]
        0x00002014:    b2db        ..      UXTB     r3,r3
        0x00002016:    78fd        .x      LDRB     r5,[r7,#3]
        0x00002018:    429d        .B      CMP      r5,r3
        0x0000201a:    d8f4        ..      BHI      0x2006 ; RoomModeUpdateProcess + 390
        0x0000201c:    7078        xp      STRB     r0,[r7,#1]
        0x0000201e:    4807        .H      LDR      r0,[pc,#28] ; [0x203c] = 0x20000027
        0x00002020:    7001        .p      STRB     r1,[r0,#0]
        0x00002022:    4805        .H      LDR      r0,[pc,#20] ; [0x2038] = 0x20000029
        0x00002024:    7002        .p      STRB     r2,[r0,#0]
        0x00002026:    7e60        `~      LDRB     r0,[r4,#0x19]
        0x00002028:    e7ab        ..      B        0x1f82 ; RoomModeUpdateProcess + 258
    $d
        0x0000202a:    0000        ..      DCW    0
        0x0000202c:    200000c5    ...     DCD    536871109
        0x00002030:    200002d4    ...     DCD    536871636
        0x00002034:    20000093    ...     DCD    536871059
        0x00002038:    20000029    )..     DCD    536870953
        0x0000203c:    20000027    '..     DCD    536870951
        0x00002040:    200004d4    ...     DCD    536872148
    $t
    i.RoomPowerManager_Digital
    RoomPowerManager_Digital
        0x00002044:    b570        p.      PUSH     {r4-r6,lr}
        0x00002046:    491e        .I      LDR      r1,[pc,#120] ; [0x20c0] = 0x2000002c
        0x00002048:    7f4a        J.      LDRB     r2,[r1,#0x1d]
        0x0000204a:    4608        .F      MOV      r0,r1
        0x0000204c:    3020         0      ADDS     r0,r0,#0x20
        0x0000204e:    2a00        .*      CMP      r2,#0
        0x00002050:    d102        ..      BNE      0x2058 ; RoomPowerManager_Digital + 20
        0x00002052:    7802        .x      LDRB     r2,[r0,#0]
        0x00002054:    2afa        .*      CMP      r2,#0xfa
        0x00002056:    d332        2.      BCC      0x20be ; RoomPowerManager_Digital + 122
        0x00002058:    2200        ."      MOVS     r2,#0
        0x0000205a:    774a        Jw      STRB     r2,[r1,#0x1d]
        0x0000205c:    4e19        .N      LDR      r6,[pc,#100] ; [0x20c4] = 0x200002d4
        0x0000205e:    7002        .p      STRB     r2,[r0,#0]
        0x00002060:    4b17        .K      LDR      r3,[pc,#92] ; [0x20c0] = 0x2000002c
        0x00002062:    7870        px      LDRB     r0,[r6,#1]
        0x00002064:    2402        .$      MOVS     r4,#2
        0x00002066:    3b20         ;      SUBS     r3,r3,#0x20
        0x00002068:    4a17        .J      LDR      r2,[pc,#92] ; [0x20c8] = 0x200000b7
        0x0000206a:    2801        .(      CMP      r0,#1
        0x0000206c:    d106        ..      BNE      0x207c ; RoomPowerManager_Digital + 56
        0x0000206e:    7810        .x      LDRB     r0,[r2,#0]
        0x00002070:    2801        .(      CMP      r0,#1
        0x00002072:    d124        $.      BNE      0x20be ; RoomPowerManager_Digital + 122
        0x00002074:    7014        .p      STRB     r4,[r2,#0]
        0x00002076:    751c        .u      STRB     r4,[r3,#0x14]
        0x00002078:    f7fffbe4    ....    BL       ROOM_POWER_Off ; 0x1844
        0x0000207c:    7870        px      LDRB     r0,[r6,#1]
        0x0000207e:    2501        .%      MOVS     r5,#1
        0x00002080:    2802        .(      CMP      r0,#2
        0x00002082:    d106        ..      BNE      0x2092 ; RoomPowerManager_Digital + 78
        0x00002084:    7810        .x      LDRB     r0,[r2,#0]
        0x00002086:    2802        .(      CMP      r0,#2
        0x00002088:    d119        ..      BNE      0x20be ; RoomPowerManager_Digital + 122
        0x0000208a:    7015        .p      STRB     r5,[r2,#0]
        0x0000208c:    751d        .u      STRB     r5,[r3,#0x14]
        0x0000208e:    f7fffbf5    ....    BL       ROOM_POWER_On ; 0x187c
        0x00002092:    7870        px      LDRB     r0,[r6,#1]
        0x00002094:    2803        .(      CMP      r0,#3
        0x00002096:    d001        ..      BEQ      0x209c ; RoomPowerManager_Digital + 88
        0x00002098:    2805        .(      CMP      r0,#5
        0x0000209a:    d106        ..      BNE      0x20aa ; RoomPowerManager_Digital + 102
        0x0000209c:    7810        .x      LDRB     r0,[r2,#0]
        0x0000209e:    2802        .(      CMP      r0,#2
        0x000020a0:    d103        ..      BNE      0x20aa ; RoomPowerManager_Digital + 102
        0x000020a2:    7015        .p      STRB     r5,[r2,#0]
        0x000020a4:    751d        .u      STRB     r5,[r3,#0x14]
        0x000020a6:    f7fffbe9    ....    BL       ROOM_POWER_On ; 0x187c
        0x000020aa:    7870        px      LDRB     r0,[r6,#1]
        0x000020ac:    2804        .(      CMP      r0,#4
        0x000020ae:    d106        ..      BNE      0x20be ; RoomPowerManager_Digital + 122
        0x000020b0:    7810        .x      LDRB     r0,[r2,#0]
        0x000020b2:    2801        .(      CMP      r0,#1
        0x000020b4:    d103        ..      BNE      0x20be ; RoomPowerManager_Digital + 122
        0x000020b6:    7014        .p      STRB     r4,[r2,#0]
        0x000020b8:    751c        .u      STRB     r4,[r3,#0x14]
        0x000020ba:    f7fffbc3    ....    BL       ROOM_POWER_Off ; 0x1844
        0x000020be:    bd70        p.      POP      {r4-r6,pc}
    $d
        0x000020c0:    2000002c    ,..     DCD    536870956
        0x000020c4:    200002d4    ...     DCD    536871636
        0x000020c8:    200000b7    ...     DCD    536871095
    $t
    i.SYS_Init
    SYS_Init
        0x000020cc:    b5f8        ..      PUSH     {r3-r7,lr}
        0x000020ce:    4c3b        ;L      LDR      r4,[pc,#236] ; [0x21bc] = 0x50000040
        0x000020d0:    69a0        .i      LDR      r0,[r4,#0x18]
        0x000020d2:    0900        ..      LSRS     r0,r0,#4
        0x000020d4:    0100        ..      LSLS     r0,r0,#4
        0x000020d6:    1c40        @.      ADDS     r0,r0,#1
        0x000020d8:    61a0        .a      STR      r0,[r4,#0x18]
        0x000020da:    69a0        .i      LDR      r0,[r4,#0x18]
        0x000020dc:    25f0        .%      MOVS     r5,#0xf0
        0x000020de:    43a8        .C      BICS     r0,r0,r5
        0x000020e0:    3010        .0      ADDS     r0,r0,#0x10
        0x000020e2:    61a0        .a      STR      r0,[r4,#0x18]
        0x000020e4:    2006        .       MOVS     r0,#6
        0x000020e6:    f7fefa6d    ..m.    BL       CLK_EnableXtalRC ; 0x5c4
        0x000020ea:    2012        .       MOVS     r0,#0x12
        0x000020ec:    f7fefb48    ..H.    BL       CLK_WaitClockReady ; 0x780
        0x000020f0:    2100        .!      MOVS     r1,#0
        0x000020f2:    2007        .       MOVS     r0,#7
        0x000020f4:    f7fefada    ....    BL       CLK_SetHCLK ; 0x6ac
        0x000020f8:    4831        1H      LDR      r0,[pc,#196] ; [0x21c0] = 0x44aa200
        0x000020fa:    f7fefa97    ....    BL       CLK_SetCoreClock ; 0x62c
        0x000020fe:    2018        .       MOVS     r0,#0x18
        0x00002100:    f7fefb34    ..4.    BL       CLK_SetSysTickClockSrc ; 0x76c
        0x00002104:    4e2f        /N      LDR      r6,[pc,#188] ; [0x21c4] = 0x57803d10
        0x00002106:    4630        0F      MOV      r0,r6
        0x00002108:    f7fef978    ..x.    BL       CLK_EnableModuleClock ; 0x3fc
        0x0000210c:    1c77        w.      ADDS     r7,r6,#1
        0x0000210e:    4638        8F      MOV      r0,r7
        0x00002110:    f7fef974    ..t.    BL       CLK_EnableModuleClock ; 0x3fc
        0x00002114:    1cb0        ..      ADDS     r0,r6,#2
        0x00002116:    f7fef971    ..q.    BL       CLK_EnableModuleClock ; 0x3fc
        0x0000211a:    2103        .!      MOVS     r1,#3
        0x0000211c:    2200        ."      MOVS     r2,#0
        0x0000211e:    0609        ..      LSLS     r1,r1,#24
        0x00002120:    4630        0F      MOV      r0,r6
        0x00002122:    f7fefae9    ....    BL       CLK_SetModuleClock ; 0x6f8
        0x00002126:    2103        .!      MOVS     r1,#3
        0x00002128:    2200        ."      MOVS     r2,#0
        0x0000212a:    0609        ..      LSLS     r1,r1,#24
        0x0000212c:    4638        8F      MOV      r0,r7
        0x0000212e:    f7fefae3    ....    BL       CLK_SetModuleClock ; 0x6f8
        0x00002132:    2103        .!      MOVS     r1,#3
        0x00002134:    2200        ."      MOVS     r2,#0
        0x00002136:    0609        ..      LSLS     r1,r1,#24
        0x00002138:    1cb0        ..      ADDS     r0,r6,#2
        0x0000213a:    f7fefadd    ....    BL       CLK_SetModuleClock ; 0x6f8
        0x0000213e:    481f        .H      LDR      r0,[pc,#124] ; [0x21bc] = 0x50000040
        0x00002140:    3040        @0      ADDS     r0,r0,#0x40
        0x00002142:    6801        .h      LDR      r1,[r0,#0]
        0x00002144:    0889        ..      LSRS     r1,r1,#2
        0x00002146:    0089        ..      LSLS     r1,r1,#2
        0x00002148:    1c49        I.      ADDS     r1,r1,#1
        0x0000214a:    6001        .`      STR      r1,[r0,#0]
        0x0000214c:    68a0        .h      LDR      r0,[r4,#8]
        0x0000214e:    0900        ..      LSRS     r0,r0,#4
        0x00002150:    0100        ..      LSLS     r0,r0,#4
        0x00002152:    1cc0        ..      ADDS     r0,r0,#3
        0x00002154:    60a0        .`      STR      r0,[r4,#8]
        0x00002156:    68a0        .h      LDR      r0,[r4,#8]
        0x00002158:    43a8        .C      BICS     r0,r0,r5
        0x0000215a:    3030        00      ADDS     r0,r0,#0x30
        0x0000215c:    60a0        .`      STR      r0,[r4,#8]
        0x0000215e:    6960        `i      LDR      r0,[r4,#0x14]
        0x00002160:    0429        ).      LSLS     r1,r5,#16
        0x00002162:    4388        .C      BICS     r0,r0,r1
        0x00002164:    2103        .!      MOVS     r1,#3
        0x00002166:    0509        ..      LSLS     r1,r1,#20
        0x00002168:    1840        @.      ADDS     r0,r0,r1
        0x0000216a:    6160        `a      STR      r0,[r4,#0x14]
        0x0000216c:    6960        `i      LDR      r0,[r4,#0x14]
        0x0000216e:    0329        ).      LSLS     r1,r5,#12
        0x00002170:    4388        .C      BICS     r0,r0,r1
        0x00002172:    2103        .!      MOVS     r1,#3
        0x00002174:    0409        ..      LSLS     r1,r1,#16
        0x00002176:    1840        @.      ADDS     r0,r0,r1
        0x00002178:    6160        `a      STR      r0,[r4,#0x14]
        0x0000217a:    6962        bi      LDR      r2,[r4,#0x14]
        0x0000217c:    0229        ).      LSLS     r1,r5,#8
        0x0000217e:    2003        .       MOVS     r0,#3
        0x00002180:    438a        .C      BICS     r2,r2,r1
        0x00002182:    0300        ..      LSLS     r0,r0,#12
        0x00002184:    1812        ..      ADDS     r2,r2,r0
        0x00002186:    6162        ba      STR      r2,[r4,#0x14]
        0x00002188:    6822        "h      LDR      r2,[r4,#0]
        0x0000218a:    438a        .C      BICS     r2,r2,r1
        0x0000218c:    1810        ..      ADDS     r0,r2,r0
        0x0000218e:    6020         `      STR      r0,[r4,#0]
        0x00002190:    6820         h      LDR      r0,[r4,#0]
        0x00002192:    1109        ..      ASRS     r1,r1,#4
        0x00002194:    4388        .C      BICS     r0,r0,r1
        0x00002196:    2103        .!      MOVS     r1,#3
        0x00002198:    0209        ..      LSLS     r1,r1,#8
        0x0000219a:    1840        @.      ADDS     r0,r0,r1
        0x0000219c:    6020         `      STR      r0,[r4,#0]
        0x0000219e:    6820         h      LDR      r0,[r4,#0]
        0x000021a0:    43a8        .C      BICS     r0,r0,r5
        0x000021a2:    3030        00      ADDS     r0,r0,#0x30
        0x000021a4:    6020         `      STR      r0,[r4,#0]
        0x000021a6:    69a0        .i      LDR      r0,[r4,#0x18]
        0x000021a8:    0900        ..      LSRS     r0,r0,#4
        0x000021aa:    0100        ..      LSLS     r0,r0,#4
        0x000021ac:    1c40        @.      ADDS     r0,r0,#1
        0x000021ae:    61a0        .a      STR      r0,[r4,#0x18]
        0x000021b0:    69a0        .i      LDR      r0,[r4,#0x18]
        0x000021b2:    43a8        .C      BICS     r0,r0,r5
        0x000021b4:    3010        .0      ADDS     r0,r0,#0x10
        0x000021b6:    61a0        .a      STR      r0,[r4,#0x18]
        0x000021b8:    bdf8        ..      POP      {r3-r7,pc}
    $d
        0x000021ba:    0000        ..      DCW    0
        0x000021bc:    50000040    @..P    DCD    1342177344
        0x000021c0:    044aa200    ..J.    DCD    72000000
        0x000021c4:    57803d10    .=.W    DCD    1468022032
    $t
    i.SYS_ResetModule
    SYS_ResetModule
        0x000021c8:    2105        .!      MOVS     r1,#5
        0x000021ca:    0e02        ..      LSRS     r2,r0,#24
        0x000021cc:    0709        ..      LSLS     r1,r1,#28
        0x000021ce:    1851        Q.      ADDS     r1,r2,r1
        0x000021d0:    688b        .h      LDR      r3,[r1,#8]
        0x000021d2:    2201        ."      MOVS     r2,#1
        0x000021d4:    4082        .@      LSLS     r2,r2,r0
        0x000021d6:    4313        .C      ORRS     r3,r3,r2
        0x000021d8:    608b        .`      STR      r3,[r1,#8]
        0x000021da:    6888        .h      LDR      r0,[r1,#8]
        0x000021dc:    4390        .C      BICS     r0,r0,r2
        0x000021de:    6088        .`      STR      r0,[r1,#8]
        0x000021e0:    4770        pG      BX       lr
        0x000021e2:    0000        ..      MOVS     r0,r0
    i.SYS_UnlockReg
    SYS_UnlockReg
        0x000021e4:    b510        ..      PUSH     {r4,lr}
        0x000021e6:    2159        Y!      MOVS     r1,#0x59
        0x000021e8:    4804        .H      LDR      r0,[pc,#16] ; [0x21fc] = 0x50000100
        0x000021ea:    2216        ."      MOVS     r2,#0x16
        0x000021ec:    2388        .#      MOVS     r3,#0x88
        0x000021ee:    6001        .`      STR      r1,[r0,#0]
        0x000021f0:    6002        .`      STR      r2,[r0,#0]
        0x000021f2:    6003        .`      STR      r3,[r0,#0]
        0x000021f4:    6804        .h      LDR      r4,[r0,#0]
        0x000021f6:    2c00        .,      CMP      r4,#0
        0x000021f8:    d0f9        ..      BEQ      0x21ee ; SYS_UnlockReg + 10
        0x000021fa:    bd10        ..      POP      {r4,pc}
    $d
        0x000021fc:    50000100    ...P    DCD    1342177536
    $t
    i.SendChar_ToUART
    SendChar_ToUART
        0x00002200:    4906        .I      LDR      r1,[pc,#24] ; [0x221c] = 0x40154000
        0x00002202:    698a        .i      LDR      r2,[r1,#0x18]
        0x00002204:    0212        ..      LSLS     r2,r2,#8
        0x00002206:    d4fc        ..      BMI      0x2202 ; SendChar_ToUART + 2
        0x00002208:    280a        .(      CMP      r0,#0xa
        0x0000220a:    d104        ..      BNE      0x2216 ; SendChar_ToUART + 22
        0x0000220c:    220d        ."      MOVS     r2,#0xd
        0x0000220e:    600a        .`      STR      r2,[r1,#0]
        0x00002210:    698a        .i      LDR      r2,[r1,#0x18]
        0x00002212:    0212        ..      LSLS     r2,r2,#8
        0x00002214:    d4fc        ..      BMI      0x2210 ; SendChar_ToUART + 16
        0x00002216:    6008        .`      STR      r0,[r1,#0]
        0x00002218:    4770        pG      BX       lr
    $d
        0x0000221a:    0000        ..      DCW    0
        0x0000221c:    40154000    .@.@    DCD    1075134464
    $t
    i.SendHost_Ack
    SendHost_Ack
        0x00002220:    b5f8        ..      PUSH     {r3-r7,lr}
        0x00002222:    4c21        !L      LDR      r4,[pc,#132] ; [0x22a8] = 0x200000cc
        0x00002224:    2030        0       MOVS     r0,#0x30
        0x00002226:    70a0        .p      STRB     r0,[r4,#2]
        0x00002228:    4820         H      LDR      r0,[pc,#128] ; [0x22ac] = 0x20000029
        0x0000222a:    4a23        #J      LDR      r2,[pc,#140] ; [0x22b8] = 0x200002d4
        0x0000222c:    7800        .x      LDRB     r0,[r0,#0]
        0x0000222e:    70e0        .p      STRB     r0,[r4,#3]
        0x00002230:    481f        .H      LDR      r0,[pc,#124] ; [0x22b0] = 0x2000002a
        0x00002232:    7800        .x      LDRB     r0,[r0,#0]
        0x00002234:    7120         q      STRB     r0,[r4,#4]
        0x00002236:    481f        .H      LDR      r0,[pc,#124] ; [0x22b4] = 0x20000090
        0x00002238:    7800        .x      LDRB     r0,[r0,#0]
        0x0000223a:    7160        `q      STRB     r0,[r4,#5]
        0x0000223c:    2006        .       MOVS     r0,#6
        0x0000223e:    2100        .!      MOVS     r1,#0
        0x00002240:    5c53        S\      LDRB     r3,[r2,r1]
        0x00002242:    5423        #T      STRB     r3,[r4,r0]
        0x00002244:    1c40        @.      ADDS     r0,r0,#1
        0x00002246:    1c49        I.      ADDS     r1,r1,#1
        0x00002248:    b2c9        ..      UXTB     r1,r1
        0x0000224a:    b2c0        ..      UXTB     r0,r0
        0x0000224c:    290d        .)      CMP      r1,#0xd
        0x0000224e:    d3f7        ..      BCC      0x2240 ; SendHost_Ack + 32
        0x00002250:    4e19        .N      LDR      r6,[pc,#100] ; [0x22b8] = 0x200002d4
        0x00002252:    2300        .#      MOVS     r3,#0
        0x00002254:    0159        Y.      LSLS     r1,r3,#5
        0x00002256:    198d        ..      ADDS     r5,r1,r6
        0x00002258:    2200        ."      MOVS     r2,#0
        0x0000225a:    4611        .F      MOV      r1,r2
        0x0000225c:    3518        .5      ADDS     r5,r5,#0x18
        0x0000225e:    5c6f        o\      LDRB     r7,[r5,r1]
        0x00002260:    1c49        I.      ADDS     r1,r1,#1
        0x00002262:    18ba        ..      ADDS     r2,r7,r2
        0x00002264:    b2c9        ..      UXTB     r1,r1
        0x00002266:    b2d2        ..      UXTB     r2,r2
        0x00002268:    2915        .)      CMP      r1,#0x15
        0x0000226a:    d3f8        ..      BCC      0x225e ; SendHost_Ack + 62
        0x0000226c:    5422        "T      STRB     r2,[r4,r0]
        0x0000226e:    1c40        @.      ADDS     r0,r0,#1
        0x00002270:    1c5b        [.      ADDS     r3,r3,#1
        0x00002272:    b2db        ..      UXTB     r3,r3
        0x00002274:    b2c0        ..      UXTB     r0,r0
        0x00002276:    2b10        .+      CMP      r3,#0x10
        0x00002278:    d3ec        ..      BCC      0x2254 ; SendHost_Ack + 52
        0x0000227a:    4a10        .J      LDR      r2,[pc,#64] ; [0x22bc] = 0x2000002e
        0x0000227c:    2100        .!      MOVS     r1,#0
        0x0000227e:    7812        .x      LDRB     r2,[r2,#0]
        0x00002280:    2a00        .*      CMP      r2,#0
        0x00002282:    d000        ..      BEQ      0x2286 ; SendHost_Ack + 102
        0x00002284:    2101        .!      MOVS     r1,#1
        0x00002286:    4a0e        .J      LDR      r2,[pc,#56] ; [0x22c0] = 0x200000a1
        0x00002288:    7812        .x      LDRB     r2,[r2,#0]
        0x0000228a:    2a00        .*      CMP      r2,#0
        0x0000228c:    d001        ..      BEQ      0x2292 ; SendHost_Ack + 114
        0x0000228e:    2202        ."      MOVS     r2,#2
        0x00002290:    4311        .C      ORRS     r1,r1,r2
        0x00002292:    4a0c        .J      LDR      r2,[pc,#48] ; [0x22c4] = 0x200000bf
        0x00002294:    7812        .x      LDRB     r2,[r2,#0]
        0x00002296:    2a00        .*      CMP      r2,#0
        0x00002298:    d001        ..      BEQ      0x229e ; SendHost_Ack + 126
        0x0000229a:    2204        ."      MOVS     r2,#4
        0x0000229c:    4311        .C      ORRS     r1,r1,r2
        0x0000229e:    5421        !T      STRB     r1,[r4,r0]
        0x000022a0:    f7fefaa6    ....    BL       CalChecksumH ; 0x7f0
        0x000022a4:    bdf8        ..      POP      {r3-r7,pc}
    $d
        0x000022a6:    0000        ..      DCW    0
        0x000022a8:    200000cc    ...     DCD    536871116
        0x000022ac:    20000029    )..     DCD    536870953
        0x000022b0:    2000002a    *..     DCD    536870954
        0x000022b4:    20000090    ...     DCD    536871056
        0x000022b8:    200002d4    ...     DCD    536871636
        0x000022bc:    2000002e    ...     DCD    536870958
        0x000022c0:    200000a1    ...     DCD    536871073
        0x000022c4:    200000bf    ...     DCD    536871103
    $t
    i.SendHost_MeterRCD
    SendHost_MeterRCD
        0x000022c8:    b5f8        ..      PUSH     {r3-r7,lr}
        0x000022ca:    489a        .H      LDR      r0,[pc,#616] ; [0x2534] = 0x200000cc
        0x000022cc:    2133        3!      MOVS     r1,#0x33
        0x000022ce:    7081        .p      STRB     r1,[r0,#2]
        0x000022d0:    4999        .I      LDR      r1,[pc,#612] ; [0x2538] = 0x20000029
        0x000022d2:    7809        .x      LDRB     r1,[r1,#0]
        0x000022d4:    70c1        .p      STRB     r1,[r0,#3]
        0x000022d6:    4999        .I      LDR      r1,[pc,#612] ; [0x253c] = 0x2000002a
        0x000022d8:    7809        .x      LDRB     r1,[r1,#0]
        0x000022da:    7101        .q      STRB     r1,[r0,#4]
        0x000022dc:    4998        .I      LDR      r1,[pc,#608] ; [0x2540] = 0x20000094
        0x000022de:    780d        .x      LDRB     r5,[r1,#0]
        0x000022e0:    7145        Eq      STRB     r5,[r0,#5]
        0x000022e2:    2007        .       MOVS     r0,#7
        0x000022e4:    2d01        .-      CMP      r5,#1
        0x000022e6:    d141        A.      BNE      0x236c ; SendHost_MeterRCD + 164
        0x000022e8:    4996        .I      LDR      r1,[pc,#600] ; [0x2544] = 0x20000096
        0x000022ea:    4c92        .L      LDR      r4,[pc,#584] ; [0x2534] = 0x200000cc
        0x000022ec:    7809        .x      LDRB     r1,[r1,#0]
        0x000022ee:    71a1        .q      STRB     r1,[r4,#6]
        0x000022f0:    2900        .)      CMP      r1,#0
        0x000022f2:    d108        ..      BNE      0x2306 ; SendHost_MeterRCD + 62
        0x000022f4:    4a93        .J      LDR      r2,[pc,#588] ; [0x2544] = 0x20000096
        0x000022f6:    2101        .!      MOVS     r1,#1
        0x000022f8:    7011        .p      STRB     r1,[r2,#0]
        0x000022fa:    4a93        .J      LDR      r2,[pc,#588] ; [0x2548] = 0x20000098
        0x000022fc:    7811        .x      LDRB     r1,[r2,#0]
        0x000022fe:    2900        .)      CMP      r1,#0
        0x00002300:    d039        9.      BEQ      0x2376 ; SendHost_MeterRCD + 174
        0x00002302:    1e49        I.      SUBS     r1,r1,#1
        0x00002304:    7011        .p      STRB     r1,[r2,#0]
        0x00002306:    4f90        .O      LDR      r7,[pc,#576] ; [0x2548] = 0x20000098
        0x00002308:    2300        .#      MOVS     r3,#0
        0x0000230a:    783a        :x      LDRB     r2,[r7,#0]
        0x0000230c:    4c8f        .L      LDR      r4,[pc,#572] ; [0x254c] = 0x200007fe
        0x0000230e:    4694        .F      MOV      r12,r2
        0x00002310:    260b        .&      MOVS     r6,#0xb
        0x00002312:    2100        .!      MOVS     r1,#0
        0x00002314:    4372        rC      MULS     r2,r6,r2
        0x00002316:    1912        ..      ADDS     r2,r2,r4
        0x00002318:    4c86        .L      LDR      r4,[pc,#536] ; [0x2534] = 0x200000cc
        0x0000231a:    5c56        V\      LDRB     r6,[r2,r1]
        0x0000231c:    5426        &T      STRB     r6,[r4,r0]
        0x0000231e:    1c40        @.      ADDS     r0,r0,#1
        0x00002320:    1c49        I.      ADDS     r1,r1,#1
        0x00002322:    b2c9        ..      UXTB     r1,r1
        0x00002324:    b2c0        ..      UXTB     r0,r0
        0x00002326:    2904        .)      CMP      r1,#4
        0x00002328:    d3f7        ..      BCC      0x231a ; SendHost_MeterRCD + 82
        0x0000232a:    2100        .!      MOVS     r1,#0
        0x0000232c:    1856        V.      ADDS     r6,r2,r1
        0x0000232e:    7936        6y      LDRB     r6,[r6,#4]
        0x00002330:    5426        &T      STRB     r6,[r4,r0]
        0x00002332:    1c40        @.      ADDS     r0,r0,#1
        0x00002334:    1c49        I.      ADDS     r1,r1,#1
        0x00002336:    b2c9        ..      UXTB     r1,r1
        0x00002338:    b2c0        ..      UXTB     r0,r0
        0x0000233a:    2906        .)      CMP      r1,#6
        0x0000233c:    d3f6        ..      BCC      0x232c ; SendHost_MeterRCD + 100
        0x0000233e:    7a91        .z      LDRB     r1,[r2,#0xa]
        0x00002340:    5421        !T      STRB     r1,[r4,r0]
        0x00002342:    4661        aF      MOV      r1,r12
        0x00002344:    1c49        I.      ADDS     r1,r1,#1
        0x00002346:    1c40        @.      ADDS     r0,r0,#1
        0x00002348:    b2c9        ..      UXTB     r1,r1
        0x0000234a:    b2c0        ..      UXTB     r0,r0
        0x0000234c:    7039        9p      STRB     r1,[r7,#0]
        0x0000234e:    2902        .)      CMP      r1,#2
        0x00002350:    d301        ..      BCC      0x2356 ; SendHost_MeterRCD + 142
        0x00002352:    2100        .!      MOVS     r1,#0
        0x00002354:    7039        9p      STRB     r1,[r7,#0]
        0x00002356:    4a7b        {J      LDR      r2,[pc,#492] ; [0x2544] = 0x20000096
        0x00002358:    7811        .x      LDRB     r1,[r2,#0]
        0x0000235a:    1e49        I.      SUBS     r1,r1,#1
        0x0000235c:    0609        ..      LSLS     r1,r1,#24
        0x0000235e:    0e09        ..      LSRS     r1,r1,#24
        0x00002360:    7011        .p      STRB     r1,[r2,#0]
        0x00002362:    d003        ..      BEQ      0x236c ; SendHost_MeterRCD + 164
        0x00002364:    1c5b        [.      ADDS     r3,r3,#1
        0x00002366:    b2db        ..      UXTB     r3,r3
        0x00002368:    2b04        .+      CMP      r3,#4
        0x0000236a:    d3ce        ..      BCC      0x230a ; SendHost_MeterRCD + 66
        0x0000236c:    4978        xI      LDR      r1,[pc,#480] ; [0x2550] = 0x20000095
        0x0000236e:    2d04        .-      CMP      r5,#4
        0x00002370:    780a        .x      LDRB     r2,[r1,#0]
        0x00002372:    d002        ..      BEQ      0x237a ; SendHost_MeterRCD + 178
        0x00002374:    e02d        -.      B        0x23d2 ; SendHost_MeterRCD + 266
        0x00002376:    2102        .!      MOVS     r1,#2
        0x00002378:    e7c4        ..      B        0x2304 ; SendHost_MeterRCD + 60
        0x0000237a:    496e        nI      LDR      r1,[pc,#440] ; [0x2534] = 0x200000cc
        0x0000237c:    2300        .#      MOVS     r3,#0
        0x0000237e:    718a        .q      STRB     r2,[r1,#6]
        0x00002380:    18d4        ..      ADDS     r4,r2,r3
        0x00002382:    2c02        .,      CMP      r4,#2
        0x00002384:    d225        %.      BCS      0x23d2 ; SendHost_MeterRCD + 266
        0x00002386:    260b        .&      MOVS     r6,#0xb
        0x00002388:    4374        tC      MULS     r4,r6,r4
        0x0000238a:    4e70        pN      LDR      r6,[pc,#448] ; [0x254c] = 0x200007fe
        0x0000238c:    2100        .!      MOVS     r1,#0
        0x0000238e:    19a4        ..      ADDS     r4,r4,r6
        0x00002390:    4e68        hN      LDR      r6,[pc,#416] ; [0x2534] = 0x200000cc
        0x00002392:    5c67        g\      LDRB     r7,[r4,r1]
        0x00002394:    5437        7T      STRB     r7,[r6,r0]
        0x00002396:    1c40        @.      ADDS     r0,r0,#1
        0x00002398:    1c49        I.      ADDS     r1,r1,#1
        0x0000239a:    b2c9        ..      UXTB     r1,r1
        0x0000239c:    b2c0        ..      UXTB     r0,r0
        0x0000239e:    2904        .)      CMP      r1,#4
        0x000023a0:    d3f7        ..      BCC      0x2392 ; SendHost_MeterRCD + 202
        0x000023a2:    2100        .!      MOVS     r1,#0
        0x000023a4:    1867        g.      ADDS     r7,r4,r1
        0x000023a6:    793f        ?y      LDRB     r7,[r7,#4]
        0x000023a8:    5437        7T      STRB     r7,[r6,r0]
        0x000023aa:    1c40        @.      ADDS     r0,r0,#1
        0x000023ac:    1c49        I.      ADDS     r1,r1,#1
        0x000023ae:    b2c9        ..      UXTB     r1,r1
        0x000023b0:    b2c0        ..      UXTB     r0,r0
        0x000023b2:    2906        .)      CMP      r1,#6
        0x000023b4:    d3f6        ..      BCC      0x23a4 ; SendHost_MeterRCD + 220
        0x000023b6:    4964        dI      LDR      r1,[pc,#400] ; [0x2548] = 0x20000098
        0x000023b8:    240b        .$      MOVS     r4,#0xb
        0x000023ba:    7809        .x      LDRB     r1,[r1,#0]
        0x000023bc:    1c5b        [.      ADDS     r3,r3,#1
        0x000023be:    4361        aC      MULS     r1,r4,r1
        0x000023c0:    4c62        bL      LDR      r4,[pc,#392] ; [0x254c] = 0x200007fe
        0x000023c2:    b2db        ..      UXTB     r3,r3
        0x000023c4:    1909        ..      ADDS     r1,r1,r4
        0x000023c6:    7a89        .z      LDRB     r1,[r1,#0xa]
        0x000023c8:    5431        1T      STRB     r1,[r6,r0]
        0x000023ca:    1c40        @.      ADDS     r0,r0,#1
        0x000023cc:    b2c0        ..      UXTB     r0,r0
        0x000023ce:    2b04        .+      CMP      r3,#4
        0x000023d0:    d3d6        ..      BCC      0x2380 ; SendHost_MeterRCD + 184
        0x000023d2:    2d02        .-      CMP      r5,#2
        0x000023d4:    d129        ).      BNE      0x242a ; SendHost_MeterRCD + 354
        0x000023d6:    4f5f        _O      LDR      r7,[pc,#380] ; [0x2554] = 0x20000025
        0x000023d8:    4c56        VL      LDR      r4,[pc,#344] ; [0x2534] = 0x200000cc
        0x000023da:    7839        9x      LDRB     r1,[r7,#0]
        0x000023dc:    4b5e        ^K      LDR      r3,[pc,#376] ; [0x2558] = 0x2000009a
        0x000023de:    71a1        .q      STRB     r1,[r4,#6]
        0x000023e0:    2900        .)      CMP      r1,#0
        0x000023e2:    d106        ..      BNE      0x23f2 ; SendHost_MeterRCD + 298
        0x000023e4:    2101        .!      MOVS     r1,#1
        0x000023e6:    7039        9p      STRB     r1,[r7,#0]
        0x000023e8:    7819        .x      LDRB     r1,[r3,#0]
        0x000023ea:    2900        .)      CMP      r1,#0
        0x000023ec:    d020         .      BEQ      0x2430 ; SendHost_MeterRCD + 360
        0x000023ee:    1e49        I.      SUBS     r1,r1,#1
        0x000023f0:    7019        .p      STRB     r1,[r3,#0]
        0x000023f2:    4959        YI      LDR      r1,[pc,#356] ; [0x2558] = 0x2000009a
        0x000023f4:    7809        .x      LDRB     r1,[r1,#0]
        0x000023f6:    468c        .F      MOV      r12,r1
        0x000023f8:    014b        K.      LSLS     r3,r1,#5
        0x000023fa:    4958        XI      LDR      r1,[pc,#352] ; [0x255c] = 0x200004f0
        0x000023fc:    185e        ^.      ADDS     r6,r3,r1
        0x000023fe:    2100        .!      MOVS     r1,#0
        0x00002400:    4623        #F      MOV      r3,r4
        0x00002402:    5c74        t\      LDRB     r4,[r6,r1]
        0x00002404:    541c        .T      STRB     r4,[r3,r0]
        0x00002406:    1c40        @.      ADDS     r0,r0,#1
        0x00002408:    1c49        I.      ADDS     r1,r1,#1
        0x0000240a:    b2c9        ..      UXTB     r1,r1
        0x0000240c:    b2c0        ..      UXTB     r0,r0
        0x0000240e:    2920         )      CMP      r1,#0x20
        0x00002410:    d3f7        ..      BCC      0x2402 ; SendHost_MeterRCD + 314
        0x00002412:    7839        9x      LDRB     r1,[r7,#0]
        0x00002414:    4b50        PK      LDR      r3,[pc,#320] ; [0x2558] = 0x2000009a
        0x00002416:    1e49        I.      SUBS     r1,r1,#1
        0x00002418:    7039        9p      STRB     r1,[r7,#0]
        0x0000241a:    4661        aF      MOV      r1,r12
        0x0000241c:    1c49        I.      ADDS     r1,r1,#1
        0x0000241e:    b2c9        ..      UXTB     r1,r1
        0x00002420:    7019        .p      STRB     r1,[r3,#0]
        0x00002422:    290a        .)      CMP      r1,#0xa
        0x00002424:    d301        ..      BCC      0x242a ; SendHost_MeterRCD + 354
        0x00002426:    2100        .!      MOVS     r1,#0
        0x00002428:    7019        .p      STRB     r1,[r3,#0]
        0x0000242a:    2d05        .-      CMP      r5,#5
        0x0000242c:    d002        ..      BEQ      0x2434 ; SendHost_MeterRCD + 364
        0x0000242e:    e011        ..      B        0x2454 ; SendHost_MeterRCD + 396
        0x00002430:    210a        .!      MOVS     r1,#0xa
        0x00002432:    e7dd        ..      B        0x23f0 ; SendHost_MeterRCD + 296
        0x00002434:    4b3f        ?K      LDR      r3,[pc,#252] ; [0x2534] = 0x200000cc
        0x00002436:    2a02        .*      CMP      r2,#2
        0x00002438:    719a        .q      STRB     r2,[r3,#6]
        0x0000243a:    d277        w.      BCS      0x252c ; SendHost_MeterRCD + 612
        0x0000243c:    4947        GI      LDR      r1,[pc,#284] ; [0x255c] = 0x200004f0
        0x0000243e:    0154        T.      LSLS     r4,r2,#5
        0x00002440:    1864        d.      ADDS     r4,r4,r1
        0x00002442:    2100        .!      MOVS     r1,#0
        0x00002444:    5c66        f\      LDRB     r6,[r4,r1]
        0x00002446:    541e        .T      STRB     r6,[r3,r0]
        0x00002448:    1c40        @.      ADDS     r0,r0,#1
        0x0000244a:    1c49        I.      ADDS     r1,r1,#1
        0x0000244c:    b2c9        ..      UXTB     r1,r1
        0x0000244e:    b2c0        ..      UXTB     r0,r0
        0x00002450:    2920         )      CMP      r1,#0x20
        0x00002452:    d3f7        ..      BCC      0x2444 ; SendHost_MeterRCD + 380
        0x00002454:    2d03        .-      CMP      r5,#3
        0x00002456:    d148        H.      BNE      0x24ea ; SendHost_MeterRCD + 546
        0x00002458:    4941        AI      LDR      r1,[pc,#260] ; [0x2560] = 0x20000023
        0x0000245a:    4e36        6N      LDR      r6,[pc,#216] ; [0x2534] = 0x200000cc
        0x0000245c:    7809        .x      LDRB     r1,[r1,#0]
        0x0000245e:    4c41        AL      LDR      r4,[pc,#260] ; [0x2564] = 0x20000099
        0x00002460:    71b1        .q      STRB     r1,[r6,#6]
        0x00002462:    2900        .)      CMP      r1,#0
        0x00002464:    d107        ..      BNE      0x2476 ; SendHost_MeterRCD + 430
        0x00002466:    4b3e        >K      LDR      r3,[pc,#248] ; [0x2560] = 0x20000023
        0x00002468:    2101        .!      MOVS     r1,#1
        0x0000246a:    7019        .p      STRB     r1,[r3,#0]
        0x0000246c:    7821        !x      LDRB     r1,[r4,#0]
        0x0000246e:    2900        .)      CMP      r1,#0
        0x00002470:    d03e        >.      BEQ      0x24f0 ; SendHost_MeterRCD + 552
        0x00002472:    1e49        I.      SUBS     r1,r1,#1
        0x00002474:    7021        !p      STRB     r1,[r4,#0]
        0x00002476:    2300        .#      MOVS     r3,#0
        0x00002478:    493a        :I      LDR      r1,[pc,#232] ; [0x2564] = 0x20000099
        0x0000247a:    4f3b        ;O      LDR      r7,[pc,#236] ; [0x2568] = 0x20000630
        0x0000247c:    780c        .x      LDRB     r4,[r1,#0]
        0x0000247e:    210c        .!      MOVS     r1,#0xc
        0x00002480:    46a4        .F      MOV      r12,r4
        0x00002482:    434c        LC      MULS     r4,r1,r4
        0x00002484:    5d39        9]      LDRB     r1,[r7,r4]
        0x00002486:    5431        1T      STRB     r1,[r6,r0]
        0x00002488:    1c40        @.      ADDS     r0,r0,#1
        0x0000248a:    2100        .!      MOVS     r1,#0
        0x0000248c:    b2c0        ..      UXTB     r0,r0
        0x0000248e:    19e4        ..      ADDS     r4,r4,r7
        0x00002490:    1867        g.      ADDS     r7,r4,r1
        0x00002492:    787f        .x      LDRB     r7,[r7,#1]
        0x00002494:    5437        7T      STRB     r7,[r6,r0]
        0x00002496:    1c40        @.      ADDS     r0,r0,#1
        0x00002498:    1c49        I.      ADDS     r1,r1,#1
        0x0000249a:    b2c9        ..      UXTB     r1,r1
        0x0000249c:    b2c0        ..      UXTB     r0,r0
        0x0000249e:    2906        .)      CMP      r1,#6
        0x000024a0:    d3f6        ..      BCC      0x2490 ; SendHost_MeterRCD + 456
        0x000024a2:    68a1        .h      LDR      r1,[r4,#8]
        0x000024a4:    5431        1T      STRB     r1,[r6,r0]
        0x000024a6:    1c40        @.      ADDS     r0,r0,#1
        0x000024a8:    b2c0        ..      UXTB     r0,r0
        0x000024aa:    0a0f        ..      LSRS     r7,r1,#8
        0x000024ac:    5437        7T      STRB     r7,[r6,r0]
        0x000024ae:    1c40        @.      ADDS     r0,r0,#1
        0x000024b0:    0c0f        ..      LSRS     r7,r1,#16
        0x000024b2:    b2c0        ..      UXTB     r0,r0
        0x000024b4:    5437        7T      STRB     r7,[r6,r0]
        0x000024b6:    1c40        @.      ADDS     r0,r0,#1
        0x000024b8:    b2c0        ..      UXTB     r0,r0
        0x000024ba:    0e09        ..      LSRS     r1,r1,#24
        0x000024bc:    5431        1T      STRB     r1,[r6,r0]
        0x000024be:    4661        aF      MOV      r1,r12
        0x000024c0:    1c49        I.      ADDS     r1,r1,#1
        0x000024c2:    1c40        @.      ADDS     r0,r0,#1
        0x000024c4:    b2c9        ..      UXTB     r1,r1
        0x000024c6:    4c27        'L      LDR      r4,[pc,#156] ; [0x2564] = 0x20000099
        0x000024c8:    b2c0        ..      UXTB     r0,r0
        0x000024ca:    7021        !p      STRB     r1,[r4,#0]
        0x000024cc:    2902        .)      CMP      r1,#2
        0x000024ce:    d301        ..      BCC      0x24d4 ; SendHost_MeterRCD + 524
        0x000024d0:    2100        .!      MOVS     r1,#0
        0x000024d2:    7021        !p      STRB     r1,[r4,#0]
        0x000024d4:    4c22        "L      LDR      r4,[pc,#136] ; [0x2560] = 0x20000023
        0x000024d6:    7821        !x      LDRB     r1,[r4,#0]
        0x000024d8:    1e49        I.      SUBS     r1,r1,#1
        0x000024da:    0609        ..      LSLS     r1,r1,#24
        0x000024dc:    0e09        ..      LSRS     r1,r1,#24
        0x000024de:    7021        !p      STRB     r1,[r4,#0]
        0x000024e0:    d003        ..      BEQ      0x24ea ; SendHost_MeterRCD + 546
        0x000024e2:    1c5b        [.      ADDS     r3,r3,#1
        0x000024e4:    b2db        ..      UXTB     r3,r3
        0x000024e6:    2b03        .+      CMP      r3,#3
        0x000024e8:    d3c6        ..      BCC      0x2478 ; SendHost_MeterRCD + 432
        0x000024ea:    2d06        .-      CMP      r5,#6
        0x000024ec:    d002        ..      BEQ      0x24f4 ; SendHost_MeterRCD + 556
        0x000024ee:    e01d        ..      B        0x252c ; SendHost_MeterRCD + 612
        0x000024f0:    2102        .!      MOVS     r1,#2
        0x000024f2:    e7bf        ..      B        0x2474 ; SendHost_MeterRCD + 428
        0x000024f4:    4d0f        .M      LDR      r5,[pc,#60] ; [0x2534] = 0x200000cc
        0x000024f6:    4f1c        .O      LDR      r7,[pc,#112] ; [0x2568] = 0x20000630
        0x000024f8:    71aa        .q      STRB     r2,[r5,#6]
        0x000024fa:    2300        .#      MOVS     r3,#0
        0x000024fc:    18d4        ..      ADDS     r4,r2,r3
        0x000024fe:    2c02        .,      CMP      r4,#2
        0x00002500:    d214        ..      BCS      0x252c ; SendHost_MeterRCD + 612
        0x00002502:    210c        .!      MOVS     r1,#0xc
        0x00002504:    434c        LC      MULS     r4,r1,r4
        0x00002506:    5d39        9]      LDRB     r1,[r7,r4]
        0x00002508:    5429        )T      STRB     r1,[r5,r0]
        0x0000250a:    1c40        @.      ADDS     r0,r0,#1
        0x0000250c:    2100        .!      MOVS     r1,#0
        0x0000250e:    b2c0        ..      UXTB     r0,r0
        0x00002510:    19e4        ..      ADDS     r4,r4,r7
        0x00002512:    1866        f.      ADDS     r6,r4,r1
        0x00002514:    7876        vx      LDRB     r6,[r6,#1]
        0x00002516:    542e        .T      STRB     r6,[r5,r0]
        0x00002518:    1c40        @.      ADDS     r0,r0,#1
        0x0000251a:    1c49        I.      ADDS     r1,r1,#1
        0x0000251c:    b2c9        ..      UXTB     r1,r1
        0x0000251e:    b2c0        ..      UXTB     r0,r0
        0x00002520:    2906        .)      CMP      r1,#6
        0x00002522:    d3f6        ..      BCC      0x2512 ; SendHost_MeterRCD + 586
        0x00002524:    1c5b        [.      ADDS     r3,r3,#1
        0x00002526:    b2db        ..      UXTB     r3,r3
        0x00002528:    2b04        .+      CMP      r3,#4
        0x0000252a:    d3e7        ..      BCC      0x24fc ; SendHost_MeterRCD + 564
        0x0000252c:    f7fef960    ..`.    BL       CalChecksumH ; 0x7f0
        0x00002530:    bdf8        ..      POP      {r3-r7,pc}
    $d
        0x00002532:    0000        ..      DCW    0
        0x00002534:    200000cc    ...     DCD    536871116
        0x00002538:    20000029    )..     DCD    536870953
        0x0000253c:    2000002a    *..     DCD    536870954
        0x00002540:    20000094    ...     DCD    536871060
        0x00002544:    20000096    ...     DCD    536871062
        0x00002548:    20000098    ...     DCD    536871064
        0x0000254c:    200007fe    ...     DCD    536872958
        0x00002550:    20000095    ...     DCD    536871061
        0x00002554:    20000025    %..     DCD    536870949
        0x00002558:    2000009a    ...     DCD    536871066
        0x0000255c:    200004f0    ...     DCD    536872176
        0x00002560:    20000023    #..     DCD    536870947
        0x00002564:    20000099    ...     DCD    536871065
        0x00002568:    20000630    0..     DCD    536872496
    $t
    i.SendHost_RspInit
    SendHost_RspInit
        0x0000256c:    b570        p.      PUSH     {r4-r6,lr}
        0x0000256e:    4c21        !L      LDR      r4,[pc,#132] ; [0x25f4] = 0x200000cc
        0x00002570:    2034        4       MOVS     r0,#0x34
        0x00002572:    70a0        .p      STRB     r0,[r4,#2]
        0x00002574:    4820         H      LDR      r0,[pc,#128] ; [0x25f8] = 0x20000029
        0x00002576:    4a23        #J      LDR      r2,[pc,#140] ; [0x2604] = 0x200002d4
        0x00002578:    7800        .x      LDRB     r0,[r0,#0]
        0x0000257a:    70e0        .p      STRB     r0,[r4,#3]
        0x0000257c:    481f        .H      LDR      r0,[pc,#124] ; [0x25fc] = 0x2000002a
        0x0000257e:    7800        .x      LDRB     r0,[r0,#0]
        0x00002580:    7120         q      STRB     r0,[r4,#4]
        0x00002582:    481f        .H      LDR      r0,[pc,#124] ; [0x2600] = 0x20000090
        0x00002584:    7800        .x      LDRB     r0,[r0,#0]
        0x00002586:    7160        `q      STRB     r0,[r4,#5]
        0x00002588:    2006        .       MOVS     r0,#6
        0x0000258a:    2100        .!      MOVS     r1,#0
        0x0000258c:    5c53        S\      LDRB     r3,[r2,r1]
        0x0000258e:    5423        #T      STRB     r3,[r4,r0]
        0x00002590:    1c40        @.      ADDS     r0,r0,#1
        0x00002592:    1c49        I.      ADDS     r1,r1,#1
        0x00002594:    b2c9        ..      UXTB     r1,r1
        0x00002596:    b2c0        ..      UXTB     r0,r0
        0x00002598:    290d        .)      CMP      r1,#0xd
        0x0000259a:    d3f7        ..      BCC      0x258c ; SendHost_RspInit + 32
        0x0000259c:    4e19        .N      LDR      r6,[pc,#100] ; [0x2604] = 0x200002d4
        0x0000259e:    2100        .!      MOVS     r1,#0
        0x000025a0:    014a        J.      LSLS     r2,r1,#5
        0x000025a2:    1995        ..      ADDS     r5,r2,r6
        0x000025a4:    2300        .#      MOVS     r3,#0
        0x000025a6:    3518        .5      ADDS     r5,r5,#0x18
        0x000025a8:    5c6d        m\      LDRB     r5,[r5,r1]
        0x000025aa:    461a        .F      MOV      r2,r3
        0x000025ac:    18eb        ..      ADDS     r3,r5,r3
        0x000025ae:    1c52        R.      ADDS     r2,r2,#1
        0x000025b0:    b2d2        ..      UXTB     r2,r2
        0x000025b2:    b2db        ..      UXTB     r3,r3
        0x000025b4:    2a15        .*      CMP      r2,#0x15
        0x000025b6:    d3f9        ..      BCC      0x25ac ; SendHost_RspInit + 64
        0x000025b8:    5423        #T      STRB     r3,[r4,r0]
        0x000025ba:    1c40        @.      ADDS     r0,r0,#1
        0x000025bc:    1c49        I.      ADDS     r1,r1,#1
        0x000025be:    b2c9        ..      UXTB     r1,r1
        0x000025c0:    b2c0        ..      UXTB     r0,r0
        0x000025c2:    2910        .)      CMP      r1,#0x10
        0x000025c4:    d3ec        ..      BCC      0x25a0 ; SendHost_RspInit + 52
        0x000025c6:    4a10        .J      LDR      r2,[pc,#64] ; [0x2608] = 0x2000002e
        0x000025c8:    2100        .!      MOVS     r1,#0
        0x000025ca:    7812        .x      LDRB     r2,[r2,#0]
        0x000025cc:    2a00        .*      CMP      r2,#0
        0x000025ce:    d000        ..      BEQ      0x25d2 ; SendHost_RspInit + 102
        0x000025d0:    2101        .!      MOVS     r1,#1
        0x000025d2:    4a0e        .J      LDR      r2,[pc,#56] ; [0x260c] = 0x200000a1
        0x000025d4:    7812        .x      LDRB     r2,[r2,#0]
        0x000025d6:    2a00        .*      CMP      r2,#0
        0x000025d8:    d001        ..      BEQ      0x25de ; SendHost_RspInit + 114
        0x000025da:    2202        ."      MOVS     r2,#2
        0x000025dc:    4311        .C      ORRS     r1,r1,r2
        0x000025de:    4a0c        .J      LDR      r2,[pc,#48] ; [0x2610] = 0x200000bf
        0x000025e0:    7812        .x      LDRB     r2,[r2,#0]
        0x000025e2:    2a00        .*      CMP      r2,#0
        0x000025e4:    d001        ..      BEQ      0x25ea ; SendHost_RspInit + 126
        0x000025e6:    2204        ."      MOVS     r2,#4
        0x000025e8:    4311        .C      ORRS     r1,r1,r2
        0x000025ea:    5421        !T      STRB     r1,[r4,r0]
        0x000025ec:    f7fef900    ....    BL       CalChecksumH ; 0x7f0
        0x000025f0:    bd70        p.      POP      {r4-r6,pc}
    $d
        0x000025f2:    0000        ..      DCW    0
        0x000025f4:    200000cc    ...     DCD    536871116
        0x000025f8:    20000029    )..     DCD    536870953
        0x000025fc:    2000002a    *..     DCD    536870954
        0x00002600:    20000090    ...     DCD    536871056
        0x00002604:    200002d4    ...     DCD    536871636
        0x00002608:    2000002e    ...     DCD    536870958
        0x0000260c:    200000a1    ...     DCD    536871073
        0x00002610:    200000bf    ...     DCD    536871103
    $t
    i.SendHost_SystemInformation
    SendHost_SystemInformation
        0x00002614:    b570        p.      PUSH     {r4-r6,lr}
        0x00002616:    4a36        6J      LDR      r2,[pc,#216] ; [0x26f0] = 0x200000cc
        0x00002618:    2031        1       MOVS     r0,#0x31
        0x0000261a:    7090        .p      STRB     r0,[r2,#2]
        0x0000261c:    4835        5H      LDR      r0,[pc,#212] ; [0x26f4] = 0x20000029
        0x0000261e:    4b37        7K      LDR      r3,[pc,#220] ; [0x26fc] = 0x200002d4
        0x00002620:    7800        .x      LDRB     r0,[r0,#0]
        0x00002622:    70d0        .p      STRB     r0,[r2,#3]
        0x00002624:    4834        4H      LDR      r0,[pc,#208] ; [0x26f8] = 0x2000002a
        0x00002626:    7800        .x      LDRB     r0,[r0,#0]
        0x00002628:    7110        .q      STRB     r0,[r2,#4]
        0x0000262a:    2005        .       MOVS     r0,#5
        0x0000262c:    2100        .!      MOVS     r1,#0
        0x0000262e:    5c5c        \\      LDRB     r4,[r3,r1]
        0x00002630:    5414        .T      STRB     r4,[r2,r0]
        0x00002632:    1c40        @.      ADDS     r0,r0,#1
        0x00002634:    1c49        I.      ADDS     r1,r1,#1
        0x00002636:    b2c9        ..      UXTB     r1,r1
        0x00002638:    b2c0        ..      UXTB     r0,r0
        0x0000263a:    2907        .)      CMP      r1,#7
        0x0000263c:    d3f7        ..      BCC      0x262e ; SendHost_SystemInformation + 26
        0x0000263e:    4c2f        /L      LDR      r4,[pc,#188] ; [0x26fc] = 0x200002d4
        0x00002640:    8921        !.      LDRH     r1,[r4,#8]
        0x00002642:    0a0b        ..      LSRS     r3,r1,#8
        0x00002644:    5413        .T      STRB     r3,[r2,r0]
        0x00002646:    1c40        @.      ADDS     r0,r0,#1
        0x00002648:    b2c0        ..      UXTB     r0,r0
        0x0000264a:    5411        .T      STRB     r1,[r2,r0]
        0x0000264c:    1c40        @.      ADDS     r0,r0,#1
        0x0000264e:    b2c1        ..      UXTB     r1,r0
        0x00002650:    68e0        .h      LDR      r0,[r4,#0xc]
        0x00002652:    0e03        ..      LSRS     r3,r0,#24
        0x00002654:    5453        ST      STRB     r3,[r2,r1]
        0x00002656:    1c49        I.      ADDS     r1,r1,#1
        0x00002658:    b2c9        ..      UXTB     r1,r1
        0x0000265a:    0c03        ..      LSRS     r3,r0,#16
        0x0000265c:    5453        ST      STRB     r3,[r2,r1]
        0x0000265e:    1c49        I.      ADDS     r1,r1,#1
        0x00002660:    b2c9        ..      UXTB     r1,r1
        0x00002662:    0a03        ..      LSRS     r3,r0,#8
        0x00002664:    5453        ST      STRB     r3,[r2,r1]
        0x00002666:    1c49        I.      ADDS     r1,r1,#1
        0x00002668:    b2c9        ..      UXTB     r1,r1
        0x0000266a:    5450        PT      STRB     r0,[r2,r1]
        0x0000266c:    1c49        I.      ADDS     r1,r1,#1
        0x0000266e:    b2c9        ..      UXTB     r1,r1
        0x00002670:    2000        .       MOVS     r0,#0
        0x00002672:    0143        C.      LSLS     r3,r0,#5
        0x00002674:    191d        ..      ADDS     r5,r3,r4
        0x00002676:    7e2b        +~      LDRB     r3,[r5,#0x18]
        0x00002678:    5453        ST      STRB     r3,[r2,r1]
        0x0000267a:    1c49        I.      ADDS     r1,r1,#1
        0x0000267c:    b2cb        ..      UXTB     r3,r1
        0x0000267e:    6a69        ij      LDR      r1,[r5,#0x24]
        0x00002680:    1c40        @.      ADDS     r0,r0,#1
        0x00002682:    0e0d        ..      LSRS     r5,r1,#24
        0x00002684:    54d5        .T      STRB     r5,[r2,r3]
        0x00002686:    1c5b        [.      ADDS     r3,r3,#1
        0x00002688:    b2db        ..      UXTB     r3,r3
        0x0000268a:    0c0d        ..      LSRS     r5,r1,#16
        0x0000268c:    54d5        .T      STRB     r5,[r2,r3]
        0x0000268e:    1c5b        [.      ADDS     r3,r3,#1
        0x00002690:    b2db        ..      UXTB     r3,r3
        0x00002692:    0a0d        ..      LSRS     r5,r1,#8
        0x00002694:    54d5        .T      STRB     r5,[r2,r3]
        0x00002696:    1c5b        [.      ADDS     r3,r3,#1
        0x00002698:    b2db        ..      UXTB     r3,r3
        0x0000269a:    54d1        .T      STRB     r1,[r2,r3]
        0x0000269c:    1c5b        [.      ADDS     r3,r3,#1
        0x0000269e:    b2c0        ..      UXTB     r0,r0
        0x000026a0:    b2d9        ..      UXTB     r1,r3
        0x000026a2:    2806        .(      CMP      r0,#6
        0x000026a4:    d3e5        ..      BCC      0x2672 ; SendHost_SystemInformation + 94
        0x000026a6:    4916        .I      LDR      r1,[pc,#88] ; [0x2700] = 0x2000002e
        0x000026a8:    2000        .       MOVS     r0,#0
        0x000026aa:    7809        .x      LDRB     r1,[r1,#0]
        0x000026ac:    2900        .)      CMP      r1,#0
        0x000026ae:    d000        ..      BEQ      0x26b2 ; SendHost_SystemInformation + 158
        0x000026b0:    2001        .       MOVS     r0,#1
        0x000026b2:    4914        .I      LDR      r1,[pc,#80] ; [0x2704] = 0x200000a1
        0x000026b4:    7809        .x      LDRB     r1,[r1,#0]
        0x000026b6:    2900        .)      CMP      r1,#0
        0x000026b8:    d001        ..      BEQ      0x26be ; SendHost_SystemInformation + 170
        0x000026ba:    2102        .!      MOVS     r1,#2
        0x000026bc:    4308        .C      ORRS     r0,r0,r1
        0x000026be:    4912        .I      LDR      r1,[pc,#72] ; [0x2708] = 0x200000bf
        0x000026c0:    7809        .x      LDRB     r1,[r1,#0]
        0x000026c2:    2900        .)      CMP      r1,#0
        0x000026c4:    d001        ..      BEQ      0x26ca ; SendHost_SystemInformation + 182
        0x000026c6:    2104        .!      MOVS     r1,#4
        0x000026c8:    4308        .C      ORRS     r0,r0,r1
        0x000026ca:    4b10        .K      LDR      r3,[pc,#64] ; [0x270c] = 0x20000055
        0x000026cc:    4908        .I      LDR      r1,[pc,#32] ; [0x26f0] = 0x200000cc
        0x000026ce:    781c        .x      LDRB     r4,[r3,#0]
        0x000026d0:    2200        ."      MOVS     r2,#0
        0x000026d2:    3120         1      ADDS     r1,r1,#0x20
        0x000026d4:    2c00        .,      CMP      r4,#0
        0x000026d6:    d001        ..      BEQ      0x26dc ; SendHost_SystemInformation + 200
        0x000026d8:    701a        .p      STRB     r2,[r3,#0]
        0x000026da:    225a        Z"      MOVS     r2,#0x5a
        0x000026dc:    74ca        .t      STRB     r2,[r1,#0x13]
        0x000026de:    7508        .u      STRB     r0,[r1,#0x14]
        0x000026e0:    480b        .H      LDR      r0,[pc,#44] ; [0x2710] = 0x200004d4
        0x000026e2:    7e40        @~      LDRB     r0,[r0,#0x19]
        0x000026e4:    7548        Hu      STRB     r0,[r1,#0x15]
        0x000026e6:    490b        .I      LDR      r1,[pc,#44] ; [0x2714] = 0x200000a4
        0x000026e8:    7308        .s      STRB     r0,[r1,#0xc]
        0x000026ea:    f7fef881    ....    BL       CalChecksumH ; 0x7f0
        0x000026ee:    bd70        p.      POP      {r4-r6,pc}
    $d
        0x000026f0:    200000cc    ...     DCD    536871116
        0x000026f4:    20000029    )..     DCD    536870953
        0x000026f8:    2000002a    *..     DCD    536870954
        0x000026fc:    200002d4    ...     DCD    536871636
        0x00002700:    2000002e    ...     DCD    536870958
        0x00002704:    200000a1    ...     DCD    536871073
        0x00002708:    200000bf    ...     DCD    536871103
        0x0000270c:    20000055    U..     DCD    536870997
        0x00002710:    200004d4    ...     DCD    536872148
        0x00002714:    200000a4    ...     DCD    536871076
    $t
    i.SendHost_UserBalance
    SendHost_UserBalance
        0x00002718:    b5f8        ..      PUSH     {r3-r7,lr}
        0x0000271a:    4c2a        *L      LDR      r4,[pc,#168] ; [0x27c4] = 0x200000cc
        0x0000271c:    2132        2!      MOVS     r1,#0x32
        0x0000271e:    70a1        .p      STRB     r1,[r4,#2]
        0x00002720:    4929        )I      LDR      r1,[pc,#164] ; [0x27c8] = 0x20000029
        0x00002722:    2306        .#      MOVS     r3,#6
        0x00002724:    7809        .x      LDRB     r1,[r1,#0]
        0x00002726:    70e1        .p      STRB     r1,[r4,#3]
        0x00002728:    4928        (I      LDR      r1,[pc,#160] ; [0x27cc] = 0x2000002a
        0x0000272a:    4f29        )O      LDR      r7,[pc,#164] ; [0x27d0] = 0x200002d4
        0x0000272c:    7809        .x      LDRB     r1,[r1,#0]
        0x0000272e:    7121        !q      STRB     r1,[r4,#4]
        0x00002730:    7160        `q      STRB     r0,[r4,#5]
        0x00002732:    0640        @.      LSLS     r0,r0,#25
        0x00002734:    0e05        ..      LSRS     r5,r0,#24
        0x00002736:    2000        .       MOVS     r0,#0
        0x00002738:    1829        ).      ADDS     r1,r5,r0
        0x0000273a:    0149        I.      LSLS     r1,r1,#5
        0x0000273c:    19c9        ..      ADDS     r1,r1,r7
        0x0000273e:    6a4a        Jj      LDR      r2,[r1,#0x24]
        0x00002740:    0e16        ..      LSRS     r6,r2,#24
        0x00002742:    54e6        .T      STRB     r6,[r4,r3]
        0x00002744:    1c5b        [.      ADDS     r3,r3,#1
        0x00002746:    b2db        ..      UXTB     r3,r3
        0x00002748:    0c16        ..      LSRS     r6,r2,#16
        0x0000274a:    54e6        .T      STRB     r6,[r4,r3]
        0x0000274c:    1c5b        [.      ADDS     r3,r3,#1
        0x0000274e:    b2db        ..      UXTB     r3,r3
        0x00002750:    0a16        ..      LSRS     r6,r2,#8
        0x00002752:    54e6        .T      STRB     r6,[r4,r3]
        0x00002754:    1c5b        [.      ADDS     r3,r3,#1
        0x00002756:    b2db        ..      UXTB     r3,r3
        0x00002758:    54e2        .T      STRB     r2,[r4,r3]
        0x0000275a:    1c5b        [.      ADDS     r3,r3,#1
        0x0000275c:    b2da        ..      UXTB     r2,r3
        0x0000275e:    2300        .#      MOVS     r3,#0
        0x00002760:    18ce        ..      ADDS     r6,r1,r3
        0x00002762:    3620         6      ADDS     r6,r6,#0x20
        0x00002764:    7a36        6z      LDRB     r6,[r6,#8]
        0x00002766:    54a6        .T      STRB     r6,[r4,r2]
        0x00002768:    1c52        R.      ADDS     r2,r2,#1
        0x0000276a:    1c5b        [.      ADDS     r3,r3,#1
        0x0000276c:    b2db        ..      UXTB     r3,r3
        0x0000276e:    b2d2        ..      UXTB     r2,r2
        0x00002770:    2b06        .+      CMP      r3,#6
        0x00002772:    d3f5        ..      BCC      0x2760 ; SendHost_UserBalance + 72
        0x00002774:    6b0b        .k      LDR      r3,[r1,#0x30]
        0x00002776:    1c40        @.      ADDS     r0,r0,#1
        0x00002778:    0e1e        ..      LSRS     r6,r3,#24
        0x0000277a:    54a6        .T      STRB     r6,[r4,r2]
        0x0000277c:    1c52        R.      ADDS     r2,r2,#1
        0x0000277e:    b2d2        ..      UXTB     r2,r2
        0x00002780:    0c1e        ..      LSRS     r6,r3,#16
        0x00002782:    54a6        .T      STRB     r6,[r4,r2]
        0x00002784:    1c52        R.      ADDS     r2,r2,#1
        0x00002786:    b2d2        ..      UXTB     r2,r2
        0x00002788:    0a1e        ..      LSRS     r6,r3,#8
        0x0000278a:    54a6        .T      STRB     r6,[r4,r2]
        0x0000278c:    1c52        R.      ADDS     r2,r2,#1
        0x0000278e:    b2d2        ..      UXTB     r2,r2
        0x00002790:    54a3        .T      STRB     r3,[r4,r2]
        0x00002792:    6b49        Ik      LDR      r1,[r1,#0x34]
        0x00002794:    1c52        R.      ADDS     r2,r2,#1
        0x00002796:    b2d2        ..      UXTB     r2,r2
        0x00002798:    0e0b        ..      LSRS     r3,r1,#24
        0x0000279a:    54a3        .T      STRB     r3,[r4,r2]
        0x0000279c:    1c52        R.      ADDS     r2,r2,#1
        0x0000279e:    b2d2        ..      UXTB     r2,r2
        0x000027a0:    0c0b        ..      LSRS     r3,r1,#16
        0x000027a2:    54a3        .T      STRB     r3,[r4,r2]
        0x000027a4:    1c52        R.      ADDS     r2,r2,#1
        0x000027a6:    b2d2        ..      UXTB     r2,r2
        0x000027a8:    0a0b        ..      LSRS     r3,r1,#8
        0x000027aa:    54a3        .T      STRB     r3,[r4,r2]
        0x000027ac:    1c52        R.      ADDS     r2,r2,#1
        0x000027ae:    b2d2        ..      UXTB     r2,r2
        0x000027b0:    54a1        .T      STRB     r1,[r4,r2]
        0x000027b2:    1c52        R.      ADDS     r2,r2,#1
        0x000027b4:    b2c0        ..      UXTB     r0,r0
        0x000027b6:    b2d3        ..      UXTB     r3,r2
        0x000027b8:    2802        .(      CMP      r0,#2
        0x000027ba:    d3bd        ..      BCC      0x2738 ; SendHost_UserBalance + 32
        0x000027bc:    f7fef818    ....    BL       CalChecksumH ; 0x7f0
        0x000027c0:    bdf8        ..      POP      {r3-r7,pc}
    $d
        0x000027c2:    0000        ..      DCW    0
        0x000027c4:    200000cc    ...     DCD    536871116
        0x000027c8:    20000029    )..     DCD    536870953
        0x000027cc:    2000002a    *..     DCD    536870954
        0x000027d0:    200002d4    ...     DCD    536871636
    $t
    i.SendReader_Alive
    SendReader_Alive
        0x000027d4:    b5f8        ..      PUSH     {r3-r7,lr}
        0x000027d6:    4d31        1M      LDR      r5,[pc,#196] ; [0x289c] = 0x200007c6
        0x000027d8:    2010        .       MOVS     r0,#0x10
        0x000027da:    70a8        .p      STRB     r0,[r5,#2]
        0x000027dc:    4830        0H      LDR      r0,[pc,#192] ; [0x28a0] = 0x20000027
        0x000027de:    4a32        2J      LDR      r2,[pc,#200] ; [0x28a8] = 0x20000084
        0x000027e0:    7806        .x      LDRB     r6,[r0,#0]
        0x000027e2:    4830        0H      LDR      r0,[pc,#192] ; [0x28a4] = 0x20000028
        0x000027e4:    70ee        .p      STRB     r6,[r5,#3]
        0x000027e6:    7800        .x      LDRB     r0,[r0,#0]
        0x000027e8:    7128        (q      STRB     r0,[r5,#4]
        0x000027ea:    2000        .       MOVS     r0,#0
        0x000027ec:    1829        ).      ADDS     r1,r5,r0
        0x000027ee:    5c13        .\      LDRB     r3,[r2,r0]
        0x000027f0:    3120         1      ADDS     r1,r1,#0x20
        0x000027f2:    1c40        @.      ADDS     r0,r0,#1
        0x000027f4:    b2c0        ..      UXTB     r0,r0
        0x000027f6:    73cb        .s      STRB     r3,[r1,#0xf]
        0x000027f8:    2807        .(      CMP      r0,#7
        0x000027fa:    d3f7        ..      BCC      0x27ec ; SendReader_Alive + 24
        0x000027fc:    4c27        'L      LDR      r4,[pc,#156] ; [0x289c] = 0x200007c6
        0x000027fe:    210a        .!      MOVS     r1,#0xa
        0x00002800:    3420         4      ADDS     r4,r4,#0x20
        0x00002802:    7d20         }      LDRB     r0,[r4,#0x14]
        0x00002804:    f7fdfc82    ....    BL       __aeabi_uidiv ; 0x10c
        0x00002808:    0730        0.      LSLS     r0,r6,#28
        0x0000280a:    d504        ..      BPL      0x2816 ; SendReader_Alive + 66
        0x0000280c:    4608        .F      MOV      r0,r1
        0x0000280e:    305a        Z0      ADDS     r0,r0,#0x5a
        0x00002810:    7168        hq      STRB     r0,[r5,#5]
        0x00002812:    304b        K0      ADDS     r0,r0,#0x4b
        0x00002814:    e001        ..      B        0x281a ; SendReader_Alive + 70
        0x00002816:    2000        .       MOVS     r0,#0
        0x00002818:    7168        hq      STRB     r0,[r5,#5]
        0x0000281a:    4b24        $K      LDR      r3,[pc,#144] ; [0x28ac] = 0x200002d4
        0x0000281c:    71a8        .q      STRB     r0,[r5,#6]
        0x0000281e:    7858        Xx      LDRB     r0,[r3,#1]
        0x00002820:    4d23        #M      LDR      r5,[pc,#140] ; [0x28b0] = 0x20000021
        0x00002822:    1842        B.      ADDS     r2,r0,r1
        0x00002824:    481d        .H      LDR      r0,[pc,#116] ; [0x289c] = 0x200007c6
        0x00002826:    71c2        .q      STRB     r2,[r0,#7]
        0x00002828:    789a        .x      LDRB     r2,[r3,#2]
        0x0000282a:    1852        R.      ADDS     r2,r2,r1
        0x0000282c:    7202        .r      STRB     r2,[r0,#8]
        0x0000282e:    799a        .y      LDRB     r2,[r3,#6]
        0x00002830:    1852        R.      ADDS     r2,r2,r1
        0x00002832:    7242        Br      STRB     r2,[r0,#9]
        0x00002834:    782e        .x      LDRB     r6,[r5,#0]
        0x00002836:    200a        .       MOVS     r0,#0xa
        0x00002838:    2200        ."      MOVS     r2,#0
        0x0000283a:    46b4        .F      MOV      r12,r6
        0x0000283c:    795f        _y      LDRB     r7,[r3,#5]
        0x0000283e:    e01d        ..      B        0x287c ; SendReader_Alive + 168
        0x00002840:    4663        cF      MOV      r3,r12
        0x00002842:    189b        ..      ADDS     r3,r3,r2
        0x00002844:    2b06        .+      CMP      r3,#6
        0x00002846:    d21c        ..      BCS      0x2882 ; SendReader_Alive + 174
        0x00002848:    015b        [.      LSLS     r3,r3,#5
        0x0000284a:    195e        ^.      ADDS     r6,r3,r5
        0x0000284c:    7e33        3~      LDRB     r3,[r6,#0x18]
        0x0000284e:    185d        ].      ADDS     r5,r3,r1
        0x00002850:    4b12        .K      LDR      r3,[pc,#72] ; [0x289c] = 0x200007c6
        0x00002852:    541d        .T      STRB     r5,[r3,r0]
        0x00002854:    1c40        @.      ADDS     r0,r0,#1
        0x00002856:    b2c5        ..      UXTB     r5,r0
        0x00002858:    6a70        pj      LDR      r0,[r6,#0x24]
        0x0000285a:    0e06        ..      LSRS     r6,r0,#24
        0x0000285c:    555e        ^U      STRB     r6,[r3,r5]
        0x0000285e:    1c6d        m.      ADDS     r5,r5,#1
        0x00002860:    b2ed        ..      UXTB     r5,r5
        0x00002862:    0c06        ..      LSRS     r6,r0,#16
        0x00002864:    555e        ^U      STRB     r6,[r3,r5]
        0x00002866:    1c6d        m.      ADDS     r5,r5,#1
        0x00002868:    b2ed        ..      UXTB     r5,r5
        0x0000286a:    0a06        ..      LSRS     r6,r0,#8
        0x0000286c:    555e        ^U      STRB     r6,[r3,r5]
        0x0000286e:    1c6d        m.      ADDS     r5,r5,#1
        0x00002870:    b2ed        ..      UXTB     r5,r5
        0x00002872:    5558        XU      STRB     r0,[r3,r5]
        0x00002874:    1c6d        m.      ADDS     r5,r5,#1
        0x00002876:    1c52        R.      ADDS     r2,r2,#1
        0x00002878:    b2e8        ..      UXTB     r0,r5
        0x0000287a:    b2d2        ..      UXTB     r2,r2
        0x0000287c:    4d0b        .M      LDR      r5,[pc,#44] ; [0x28ac] = 0x200002d4
        0x0000287e:    4297        .B      CMP      r7,r2
        0x00002880:    d8de        ..      BHI      0x2840 ; SendReader_Alive + 108
        0x00002882:    490b        .I      LDR      r1,[pc,#44] ; [0x28b0] = 0x20000021
        0x00002884:    2000        .       MOVS     r0,#0
        0x00002886:    7008        .p      STRB     r0,[r1,#0]
        0x00002888:    4808        .H      LDR      r0,[pc,#32] ; [0x28ac] = 0x200002d4
        0x0000288a:    7d00        .}      LDRB     r0,[r0,#0x14]
        0x0000288c:    7360        `s      STRB     r0,[r4,#0xd]
        0x0000288e:    4809        .H      LDR      r0,[pc,#36] ; [0x28b4] = 0x200000ad
        0x00002890:    7800        .x      LDRB     r0,[r0,#0]
        0x00002892:    73a0        .s      STRB     r0,[r4,#0xe]
        0x00002894:    f7fdffcc    ....    BL       CalChecksumR ; 0x830
        0x00002898:    bdf8        ..      POP      {r3-r7,pc}
    $d
        0x0000289a:    0000        ..      DCW    0
        0x0000289c:    200007c6    ...     DCD    536872902
        0x000028a0:    20000027    '..     DCD    536870951
        0x000028a4:    20000028    (..     DCD    536870952
        0x000028a8:    20000084    ...     DCD    536871044
        0x000028ac:    200002d4    ...     DCD    536871636
        0x000028b0:    20000021    !..     DCD    536870945
        0x000028b4:    200000ad    ...     DCD    536871085
    $t
    i.SendReader_ChangeBalance
    SendReader_ChangeBalance
        0x000028b8:    b5f8        ..      PUSH     {r3-r7,lr}
        0x000028ba:    4919        .I      LDR      r1,[pc,#100] ; [0x2920] = 0x200007c6
        0x000028bc:    2212        ."      MOVS     r2,#0x12
        0x000028be:    708a        .p      STRB     r2,[r1,#2]
        0x000028c0:    4a18        .J      LDR      r2,[pc,#96] ; [0x2924] = 0x20000027
        0x000028c2:    4f19        .O      LDR      r7,[pc,#100] ; [0x2928] = 0x200002d4
        0x000028c4:    7813        .x      LDRB     r3,[r2,#0]
        0x000028c6:    70cb        .p      STRB     r3,[r1,#3]
        0x000028c8:    2300        .#      MOVS     r3,#0
        0x000028ca:    7013        .p      STRB     r3,[r2,#0]
        0x000028cc:    7108        .q      STRB     r0,[r1,#4]
        0x000028ce:    78fa        .x      LDRB     r2,[r7,#3]
        0x000028d0:    714a        Jq      STRB     r2,[r1,#5]
        0x000028d2:    2506        .%      MOVS     r5,#6
        0x000028d4:    210a        .!      MOVS     r1,#0xa
        0x000028d6:    4348        HC      MULS     r0,r1,r0
        0x000028d8:    b2c4        ..      UXTB     r4,r0
        0x000028da:    797e        ~y      LDRB     r6,[r7,#5]
        0x000028dc:    e01a        ..      B        0x2914 ; SendReader_ChangeBalance + 92
        0x000028de:    0160        `.      LSLS     r0,r4,#5
        0x000028e0:    19c0        ..      ADDS     r0,r0,r7
        0x000028e2:    6a40        @j      LDR      r0,[r0,#0x24]
        0x000028e4:    4a0e        .J      LDR      r2,[pc,#56] ; [0x2920] = 0x200007c6
        0x000028e6:    0e01        ..      LSRS     r1,r0,#24
        0x000028e8:    5551        QU      STRB     r1,[r2,r5]
        0x000028ea:    1c6d        m.      ADDS     r5,r5,#1
        0x000028ec:    b2e9        ..      UXTB     r1,r5
        0x000028ee:    0c03        ..      LSRS     r3,r0,#16
        0x000028f0:    5453        ST      STRB     r3,[r2,r1]
        0x000028f2:    1c49        I.      ADDS     r1,r1,#1
        0x000028f4:    b2c9        ..      UXTB     r1,r1
        0x000028f6:    0a03        ..      LSRS     r3,r0,#8
        0x000028f8:    5453        ST      STRB     r3,[r2,r1]
        0x000028fa:    1c49        I.      ADDS     r1,r1,#1
        0x000028fc:    b2c9        ..      UXTB     r1,r1
        0x000028fe:    5450        PT      STRB     r0,[r2,r1]
        0x00002900:    1c49        I.      ADDS     r1,r1,#1
        0x00002902:    1c64        d.      ADDS     r4,r4,#1
        0x00002904:    b2cd        ..      UXTB     r5,r1
        0x00002906:    b2e4        ..      UXTB     r4,r4
        0x00002908:    210a        .!      MOVS     r1,#0xa
        0x0000290a:    4620         F      MOV      r0,r4
        0x0000290c:    f7fdfbfe    ....    BL       __aeabi_uidiv ; 0x10c
        0x00002910:    2900        .)      CMP      r1,#0
        0x00002912:    d001        ..      BEQ      0x2918 ; SendReader_ChangeBalance + 96
        0x00002914:    42a6        .B      CMP      r6,r4
        0x00002916:    d8e2        ..      BHI      0x28de ; SendReader_ChangeBalance + 38
        0x00002918:    f7fdff8a    ....    BL       CalChecksumR ; 0x830
        0x0000291c:    bdf8        ..      POP      {r3-r7,pc}
    $d
        0x0000291e:    0000        ..      DCW    0
        0x00002920:    200007c6    ...     DCD    536872902
        0x00002924:    20000027    '..     DCD    536870951
        0x00002928:    200002d4    ...     DCD    536871636
    $t
    i.SendReader_ChangeMode
    SendReader_ChangeMode
        0x0000292c:    b570        p.      PUSH     {r4-r6,lr}
        0x0000292e:    4c1b        .L      LDR      r4,[pc,#108] ; [0x299c] = 0x200007c6
        0x00002930:    2011        .       MOVS     r0,#0x11
        0x00002932:    70a0        .p      STRB     r0,[r4,#2]
        0x00002934:    481a        .H      LDR      r0,[pc,#104] ; [0x29a0] = 0x20000027
        0x00002936:    4a1c        .J      LDR      r2,[pc,#112] ; [0x29a8] = 0x20000084
        0x00002938:    7800        .x      LDRB     r0,[r0,#0]
        0x0000293a:    70e0        .p      STRB     r0,[r4,#3]
        0x0000293c:    4819        .H      LDR      r0,[pc,#100] ; [0x29a4] = 0x20000028
        0x0000293e:    7800        .x      LDRB     r0,[r0,#0]
        0x00002940:    7120         q      STRB     r0,[r4,#4]
        0x00002942:    2000        .       MOVS     r0,#0
        0x00002944:    1821        !.      ADDS     r1,r4,r0
        0x00002946:    5c13        .\      LDRB     r3,[r2,r0]
        0x00002948:    3120         1      ADDS     r1,r1,#0x20
        0x0000294a:    1c40        @.      ADDS     r0,r0,#1
        0x0000294c:    b2c0        ..      UXTB     r0,r0
        0x0000294e:    73cb        .s      STRB     r3,[r1,#0xf]
        0x00002950:    2807        .(      CMP      r0,#7
        0x00002952:    d3f7        ..      BCC      0x2944 ; SendReader_ChangeMode + 24
        0x00002954:    4811        .H      LDR      r0,[pc,#68] ; [0x299c] = 0x200007c6
        0x00002956:    210a        .!      MOVS     r1,#0xa
        0x00002958:    3020         0      ADDS     r0,r0,#0x20
        0x0000295a:    7d00        .}      LDRB     r0,[r0,#0x14]
        0x0000295c:    f7fdfbd6    ....    BL       __aeabi_uidiv ; 0x10c
        0x00002960:    4b12        .K      LDR      r3,[pc,#72] ; [0x29ac] = 0x200002d4
        0x00002962:    2005        .       MOVS     r0,#5
        0x00002964:    2200        ."      MOVS     r2,#0
        0x00002966:    5c9d        .\      LDRB     r5,[r3,r2]
        0x00002968:    1c52        R.      ADDS     r2,r2,#1
        0x0000296a:    186d        m.      ADDS     r5,r5,r1
        0x0000296c:    5425        %T      STRB     r5,[r4,r0]
        0x0000296e:    1c40        @.      ADDS     r0,r0,#1
        0x00002970:    b2d2        ..      UXTB     r2,r2
        0x00002972:    b2c0        ..      UXTB     r0,r0
        0x00002974:    2a07        .*      CMP      r2,#7
        0x00002976:    d3f6        ..      BCC      0x2966 ; SendReader_ChangeMode + 58
        0x00002978:    4d0c        .M      LDR      r5,[pc,#48] ; [0x29ac] = 0x200002d4
        0x0000297a:    2200        ."      MOVS     r2,#0
        0x0000297c:    78eb        .x      LDRB     r3,[r5,#3]
        0x0000297e:    e008        ..      B        0x2992 ; SendReader_ChangeMode + 102
        0x00002980:    0156        V.      LSLS     r6,r2,#5
        0x00002982:    1976        v.      ADDS     r6,r6,r5
        0x00002984:    7e36        6~      LDRB     r6,[r6,#0x18]
        0x00002986:    1876        v.      ADDS     r6,r6,r1
        0x00002988:    5426        &T      STRB     r6,[r4,r0]
        0x0000298a:    1c40        @.      ADDS     r0,r0,#1
        0x0000298c:    1c52        R.      ADDS     r2,r2,#1
        0x0000298e:    b2c0        ..      UXTB     r0,r0
        0x00002990:    b2d2        ..      UXTB     r2,r2
        0x00002992:    4293        .B      CMP      r3,r2
        0x00002994:    d8f4        ..      BHI      0x2980 ; SendReader_ChangeMode + 84
        0x00002996:    f7fdff4b    ..K.    BL       CalChecksumR ; 0x830
        0x0000299a:    bd70        p.      POP      {r4-r6,pc}
    $d
        0x0000299c:    200007c6    ...     DCD    536872902
        0x000029a0:    20000027    '..     DCD    536870951
        0x000029a4:    20000028    (..     DCD    536870952
        0x000029a8:    20000084    ...     DCD    536871044
        0x000029ac:    200002d4    ...     DCD    536871636
    $t
    i.SendReader_GetDoorRCD
    SendReader_GetDoorRCD
        0x000029b0:    b510        ..      PUSH     {r4,lr}
        0x000029b2:    4a10        .J      LDR      r2,[pc,#64] ; [0x29f4] = 0x200007c6
        0x000029b4:    2016        .       MOVS     r0,#0x16
        0x000029b6:    7090        .p      STRB     r0,[r2,#2]
        0x000029b8:    480f        .H      LDR      r0,[pc,#60] ; [0x29f8] = 0x20000027
        0x000029ba:    4b11        .K      LDR      r3,[pc,#68] ; [0x2a00] = 0x200002d4
        0x000029bc:    7800        .x      LDRB     r0,[r0,#0]
        0x000029be:    70d0        .p      STRB     r0,[r2,#3]
        0x000029c0:    480e        .H      LDR      r0,[pc,#56] ; [0x29fc] = 0x20000028
        0x000029c2:    2105        .!      MOVS     r1,#5
        0x000029c4:    7800        .x      LDRB     r0,[r0,#0]
        0x000029c6:    7110        .q      STRB     r0,[r2,#4]
        0x000029c8:    2000        .       MOVS     r0,#0
        0x000029ca:    5c1c        .\      LDRB     r4,[r3,r0]
        0x000029cc:    5454        TT      STRB     r4,[r2,r1]
        0x000029ce:    1c49        I.      ADDS     r1,r1,#1
        0x000029d0:    1c40        @.      ADDS     r0,r0,#1
        0x000029d2:    b2c0        ..      UXTB     r0,r0
        0x000029d4:    b2c9        ..      UXTB     r1,r1
        0x000029d6:    2809        .(      CMP      r0,#9
        0x000029d8:    d3f7        ..      BCC      0x29ca ; SendReader_GetDoorRCD + 26
        0x000029da:    490a        .I      LDR      r1,[pc,#40] ; [0x2a04] = 0x20000084
        0x000029dc:    2000        .       MOVS     r0,#0
        0x000029de:    1813        ..      ADDS     r3,r2,r0
        0x000029e0:    5c0c        .\      LDRB     r4,[r1,r0]
        0x000029e2:    3320         3      ADDS     r3,r3,#0x20
        0x000029e4:    1c40        @.      ADDS     r0,r0,#1
        0x000029e6:    b2c0        ..      UXTB     r0,r0
        0x000029e8:    73dc        .s      STRB     r4,[r3,#0xf]
        0x000029ea:    2807        .(      CMP      r0,#7
        0x000029ec:    d3f7        ..      BCC      0x29de ; SendReader_GetDoorRCD + 46
        0x000029ee:    f7fdff1f    ....    BL       CalChecksumR ; 0x830
        0x000029f2:    bd10        ..      POP      {r4,pc}
    $d
        0x000029f4:    200007c6    ...     DCD    536872902
        0x000029f8:    20000027    '..     DCD    536870951
        0x000029fc:    20000028    (..     DCD    536870952
        0x00002a00:    200002d4    ...     DCD    536871636
        0x00002a04:    20000084    ...     DCD    536871044
    $t
    i.SendReader_Reset
    SendReader_Reset
        0x00002a08:    b510        ..      PUSH     {r4,lr}
        0x00002a0a:    490e        .I      LDR      r1,[pc,#56] ; [0x2a44] = 0x200007c6
        0x00002a0c:    201a        .       MOVS     r0,#0x1a
        0x00002a0e:    7088        .p      STRB     r0,[r1,#2]
        0x00002a10:    480d        .H      LDR      r0,[pc,#52] ; [0x2a48] = 0x20000027
        0x00002a12:    4a0f        .J      LDR      r2,[pc,#60] ; [0x2a50] = 0x20000084
        0x00002a14:    7800        .x      LDRB     r0,[r0,#0]
        0x00002a16:    70c8        .p      STRB     r0,[r1,#3]
        0x00002a18:    480c        .H      LDR      r0,[pc,#48] ; [0x2a4c] = 0x20000028
        0x00002a1a:    7800        .x      LDRB     r0,[r0,#0]
        0x00002a1c:    7108        .q      STRB     r0,[r1,#4]
        0x00002a1e:    2000        .       MOVS     r0,#0
        0x00002a20:    180b        ..      ADDS     r3,r1,r0
        0x00002a22:    5c14        .\      LDRB     r4,[r2,r0]
        0x00002a24:    3320         3      ADDS     r3,r3,#0x20
        0x00002a26:    1c40        @.      ADDS     r0,r0,#1
        0x00002a28:    b2c0        ..      UXTB     r0,r0
        0x00002a2a:    73dc        .s      STRB     r4,[r3,#0xf]
        0x00002a2c:    2807        .(      CMP      r0,#7
        0x00002a2e:    d3f7        ..      BCC      0x2a20 ; SendReader_Reset + 24
        0x00002a30:    20a5        .       MOVS     r0,#0xa5
        0x00002a32:    7288        .r      STRB     r0,[r1,#0xa]
        0x00002a34:    205a        Z       MOVS     r0,#0x5a
        0x00002a36:    72c8        .r      STRB     r0,[r1,#0xb]
        0x00002a38:    20aa        .       MOVS     r0,#0xaa
        0x00002a3a:    7308        .s      STRB     r0,[r1,#0xc]
        0x00002a3c:    f7fdfef8    ....    BL       CalChecksumR ; 0x830
        0x00002a40:    bd10        ..      POP      {r4,pc}
    $d
        0x00002a42:    0000        ..      DCW    0
        0x00002a44:    200007c6    ...     DCD    536872902
        0x00002a48:    20000027    '..     DCD    536870951
        0x00002a4c:    20000028    (..     DCD    536870952
        0x00002a50:    20000084    ...     DCD    536871044
    $t
    i.SendReader_UserInformation
    SendReader_UserInformation
        0x00002a54:    b570        p.      PUSH     {r4-r6,lr}
        0x00002a56:    4a24        $J      LDR      r2,[pc,#144] ; [0x2ae8] = 0x200007c6
        0x00002a58:    2113        .!      MOVS     r1,#0x13
        0x00002a5a:    7091        .p      STRB     r1,[r2,#2]
        0x00002a5c:    4923        #I      LDR      r1,[pc,#140] ; [0x2aec] = 0x20000027
        0x00002a5e:    7809        .x      LDRB     r1,[r1,#0]
        0x00002a60:    70d1        .p      STRB     r1,[r2,#3]
        0x00002a62:    4923        #I      LDR      r1,[pc,#140] ; [0x2af0] = 0x20000028
        0x00002a64:    7809        .x      LDRB     r1,[r1,#0]
        0x00002a66:    7111        .q      STRB     r1,[r2,#4]
        0x00002a68:    7150        Pq      STRB     r0,[r2,#5]
        0x00002a6a:    4922        "I      LDR      r1,[pc,#136] ; [0x2af4] = 0x200002d4
        0x00002a6c:    0640        @.      LSLS     r0,r0,#25
        0x00002a6e:    78cb        .x      LDRB     r3,[r1,#3]
        0x00002a70:    0e00        ..      LSRS     r0,r0,#24
        0x00002a72:    7193        .q      STRB     r3,[r2,#6]
        0x00002a74:    0140        @.      LSLS     r0,r0,#5
        0x00002a76:    1843        C.      ADDS     r3,r0,r1
        0x00002a78:    461c        .F      MOV      r4,r3
        0x00002a7a:    3418        .4      ADDS     r4,r4,#0x18
        0x00002a7c:    2007        .       MOVS     r0,#7
        0x00002a7e:    2100        .!      MOVS     r1,#0
        0x00002a80:    5c65        e\      LDRB     r5,[r4,r1]
        0x00002a82:    5415        .T      STRB     r5,[r2,r0]
        0x00002a84:    1c40        @.      ADDS     r0,r0,#1
        0x00002a86:    1c49        I.      ADDS     r1,r1,#1
        0x00002a88:    b2c9        ..      UXTB     r1,r1
        0x00002a8a:    b2c0        ..      UXTB     r0,r0
        0x00002a8c:    2911        .)      CMP      r1,#0x11
        0x00002a8e:    d3f7        ..      BCC      0x2a80 ; SendReader_UserInformation + 44
        0x00002a90:    6a59        Yj      LDR      r1,[r3,#0x24]
        0x00002a92:    0e0c        ..      LSRS     r4,r1,#24
        0x00002a94:    5414        .T      STRB     r4,[r2,r0]
        0x00002a96:    1c40        @.      ADDS     r0,r0,#1
        0x00002a98:    b2c0        ..      UXTB     r0,r0
        0x00002a9a:    0c0c        ..      LSRS     r4,r1,#16
        0x00002a9c:    5414        .T      STRB     r4,[r2,r0]
        0x00002a9e:    1c40        @.      ADDS     r0,r0,#1
        0x00002aa0:    b2c0        ..      UXTB     r0,r0
        0x00002aa2:    0a0c        ..      LSRS     r4,r1,#8
        0x00002aa4:    5414        .T      STRB     r4,[r2,r0]
        0x00002aa6:    1c40        @.      ADDS     r0,r0,#1
        0x00002aa8:    b2c0        ..      UXTB     r0,r0
        0x00002aaa:    5411        .T      STRB     r1,[r2,r0]
        0x00002aac:    1c40        @.      ADDS     r0,r0,#1
        0x00002aae:    461c        .F      MOV      r4,r3
        0x00002ab0:    3438        84      ADDS     r4,r4,#0x38
        0x00002ab2:    b2c0        ..      UXTB     r0,r0
        0x00002ab4:    2100        .!      MOVS     r1,#0
        0x00002ab6:    5c65        e\      LDRB     r5,[r4,r1]
        0x00002ab8:    5415        .T      STRB     r5,[r2,r0]
        0x00002aba:    1c40        @.      ADDS     r0,r0,#1
        0x00002abc:    1c49        I.      ADDS     r1,r1,#1
        0x00002abe:    b2c9        ..      UXTB     r1,r1
        0x00002ac0:    b2c0        ..      UXTB     r0,r0
        0x00002ac2:    2911        .)      CMP      r1,#0x11
        0x00002ac4:    d3f7        ..      BCC      0x2ab6 ; SendReader_UserInformation + 98
        0x00002ac6:    6c59        Yl      LDR      r1,[r3,#0x44]
        0x00002ac8:    0e0b        ..      LSRS     r3,r1,#24
        0x00002aca:    5413        .T      STRB     r3,[r2,r0]
        0x00002acc:    1c40        @.      ADDS     r0,r0,#1
        0x00002ace:    b2c0        ..      UXTB     r0,r0
        0x00002ad0:    0c0b        ..      LSRS     r3,r1,#16
        0x00002ad2:    5413        .T      STRB     r3,[r2,r0]
        0x00002ad4:    1c40        @.      ADDS     r0,r0,#1
        0x00002ad6:    b2c0        ..      UXTB     r0,r0
        0x00002ad8:    0a0b        ..      LSRS     r3,r1,#8
        0x00002ada:    5413        .T      STRB     r3,[r2,r0]
        0x00002adc:    1c40        @.      ADDS     r0,r0,#1
        0x00002ade:    b2c0        ..      UXTB     r0,r0
        0x00002ae0:    5411        .T      STRB     r1,[r2,r0]
        0x00002ae2:    f7fdfea5    ....    BL       CalChecksumR ; 0x830
        0x00002ae6:    bd70        p.      POP      {r4-r6,pc}
    $d
        0x00002ae8:    200007c6    ...     DCD    536872902
        0x00002aec:    20000027    '..     DCD    536870951
        0x00002af0:    20000028    (..     DCD    536870952
        0x00002af4:    200002d4    ...     DCD    536871636
    $t
    i.SetStartInfor
    SetStartInfor
        0x00002af8:    b530        0.      PUSH     {r4,r5,lr}
        0x00002afa:    4a0c        .J      LDR      r2,[pc,#48] ; [0x2b2c] = 0x20000029
        0x00002afc:    2380        .#      MOVS     r3,#0x80
        0x00002afe:    7811        .x      LDRB     r1,[r2,#0]
        0x00002b00:    4c0b        .L      LDR      r4,[pc,#44] ; [0x2b30] = 0x200002d4
        0x00002b02:    4319        .C      ORRS     r1,r1,r3
        0x00002b04:    7011        .p      STRB     r1,[r2,#0]
        0x00002b06:    0140        @.      LSLS     r0,r0,#5
        0x00002b08:    1901        ..      ADDS     r1,r0,r4
        0x00002b0a:    6a48        Hj      LDR      r0,[r1,#0x24]
        0x00002b0c:    6348        Hc      STR      r0,[r1,#0x34]
        0x00002b0e:    68e0        .h      LDR      r0,[r4,#0xc]
        0x00002b10:    6308        .c      STR      r0,[r1,#0x30]
        0x00002b12:    4b08        .K      LDR      r3,[pc,#32] ; [0x2b34] = 0x20000084
        0x00002b14:    2000        .       MOVS     r0,#0
        0x00002b16:    180a        ..      ADDS     r2,r1,r0
        0x00002b18:    5c1d        .\      LDRB     r5,[r3,r0]
        0x00002b1a:    3220         2      ADDS     r2,r2,#0x20
        0x00002b1c:    1c40        @.      ADDS     r0,r0,#1
        0x00002b1e:    b2c0        ..      UXTB     r0,r0
        0x00002b20:    7215        .r      STRB     r5,[r2,#8]
        0x00002b22:    2806        .(      CMP      r0,#6
        0x00002b24:    d3f7        ..      BCC      0x2b16 ; SetStartInfor + 30
        0x00002b26:    68e0        .h      LDR      r0,[r4,#0xc]
        0x00002b28:    6120         a      STR      r0,[r4,#0x10]
        0x00002b2a:    bd30        0.      POP      {r4,r5,pc}
    $d
        0x00002b2c:    20000029    )..     DCD    536870953
        0x00002b30:    200002d4    ...     DCD    536871636
        0x00002b34:    20000084    ...     DCD    536871044
    $t
    i.SoftI2cMasterInit
    SoftI2cMasterInit
        0x00002b38:    b510        ..      PUSH     {r4,lr}
        0x00002b3a:    4809        .H      LDR      r0,[pc,#36] ; [0x2b60] = 0x50004140
        0x00002b3c:    6801        .h      LDR      r1,[r0,#0]
        0x00002b3e:    22c0        ."      MOVS     r2,#0xc0
        0x00002b40:    4391        .C      BICS     r1,r1,r2
        0x00002b42:    3140        @1      ADDS     r1,r1,#0x40
        0x00002b44:    6001        .`      STR      r1,[r0,#0]
        0x00002b46:    4a07        .J      LDR      r2,[pc,#28] ; [0x2b64] = 0x50004340
        0x00002b48:    2101        .!      MOVS     r1,#1
        0x00002b4a:    60d1        .`      STR      r1,[r2,#0xc]
        0x00002b4c:    6803        .h      LDR      r3,[r0,#0]
        0x00002b4e:    2403        .$      MOVS     r4,#3
        0x00002b50:    0224        $.      LSLS     r4,r4,#8
        0x00002b52:    43a3        .C      BICS     r3,r3,r4
        0x00002b54:    33ff        .3      ADDS     r3,r3,#0xff
        0x00002b56:    3301        .3      ADDS     r3,#1
        0x00002b58:    6003        .`      STR      r3,[r0,#0]
        0x00002b5a:    6111        .a      STR      r1,[r2,#0x10]
        0x00002b5c:    bd10        ..      POP      {r4,pc}
    $d
        0x00002b5e:    0000        ..      DCW    0
        0x00002b60:    50004140    @A.P    DCD    1342193984
        0x00002b64:    50004340    @C.P    DCD    1342194496
    $t
    i.SoftI2cMasterStart
    SoftI2cMasterStart
        0x00002b68:    b530        0.      PUSH     {r4,r5,lr}
        0x00002b6a:    490d        .I      LDR      r1,[pc,#52] ; [0x2ba0] = 0x50004140
        0x00002b6c:    4605        .F      MOV      r5,r0
        0x00002b6e:    6808        .h      LDR      r0,[r1,#0]
        0x00002b70:    22c0        ."      MOVS     r2,#0xc0
        0x00002b72:    4390        .C      BICS     r0,r0,r2
        0x00002b74:    3040        @0      ADDS     r0,r0,#0x40
        0x00002b76:    6008        .`      STR      r0,[r1,#0]
        0x00002b78:    6808        .h      LDR      r0,[r1,#0]
        0x00002b7a:    0092        ..      LSLS     r2,r2,#2
        0x00002b7c:    4390        .C      BICS     r0,r0,r2
        0x00002b7e:    30ff        .0      ADDS     r0,r0,#0xff
        0x00002b80:    3001        .0      ADDS     r0,#1
        0x00002b82:    6008        .`      STR      r0,[r1,#0]
        0x00002b84:    4b07        .K      LDR      r3,[pc,#28] ; [0x2ba4] = 0x50004340
        0x00002b86:    2400        .$      MOVS     r4,#0
        0x00002b88:    611c        .a      STR      r4,[r3,#0x10]
        0x00002b8a:    2002        .       MOVS     r0,#2
        0x00002b8c:    f001f864    ..d.    BL       a_delay_us ; 0x3c58
        0x00002b90:    60dc        .`      STR      r4,[r3,#0xc]
        0x00002b92:    2002        .       MOVS     r0,#2
        0x00002b94:    f001f860    ..`.    BL       a_delay_us ; 0x3c58
        0x00002b98:    4628        (F      MOV      r0,r5
        0x00002b9a:    f000f823    ..#.    BL       SoftI2cMasterWrite ; 0x2be4
        0x00002b9e:    bd30        0.      POP      {r4,r5,pc}
    $d
        0x00002ba0:    50004140    @A.P    DCD    1342193984
        0x00002ba4:    50004340    @C.P    DCD    1342194496
    $t
    i.SoftI2cMasterStop
    SoftI2cMasterStop
        0x00002ba8:    b510        ..      PUSH     {r4,lr}
        0x00002baa:    490c        .I      LDR      r1,[pc,#48] ; [0x2bdc] = 0x50004140
        0x00002bac:    6808        .h      LDR      r0,[r1,#0]
        0x00002bae:    2203        ."      MOVS     r2,#3
        0x00002bb0:    0212        ..      LSLS     r2,r2,#8
        0x00002bb2:    4390        .C      BICS     r0,r0,r2
        0x00002bb4:    30ff        .0      ADDS     r0,r0,#0xff
        0x00002bb6:    3001        .0      ADDS     r0,#1
        0x00002bb8:    6008        .`      STR      r0,[r1,#0]
        0x00002bba:    4b09        .K      LDR      r3,[pc,#36] ; [0x2be0] = 0x50004340
        0x00002bbc:    2000        .       MOVS     r0,#0
        0x00002bbe:    6118        .a      STR      r0,[r3,#0x10]
        0x00002bc0:    2002        .       MOVS     r0,#2
        0x00002bc2:    f001f849    ..I.    BL       a_delay_us ; 0x3c58
        0x00002bc6:    2401        .$      MOVS     r4,#1
        0x00002bc8:    60dc        .`      STR      r4,[r3,#0xc]
        0x00002bca:    2002        .       MOVS     r0,#2
        0x00002bcc:    f001f844    ..D.    BL       a_delay_us ; 0x3c58
        0x00002bd0:    611c        .a      STR      r4,[r3,#0x10]
        0x00002bd2:    2002        .       MOVS     r0,#2
        0x00002bd4:    f001f840    ..@.    BL       a_delay_us ; 0x3c58
        0x00002bd8:    bd10        ..      POP      {r4,pc}
    $d
        0x00002bda:    0000        ..      DCW    0
        0x00002bdc:    50004140    @A.P    DCD    1342193984
        0x00002be0:    50004340    @C.P    DCD    1342194496
    $t
    i.SoftI2cMasterWrite
    SoftI2cMasterWrite
        0x00002be4:    b5f0        ..      PUSH     {r4-r7,lr}
        0x00002be6:    4607        .F      MOV      r7,r0
        0x00002be8:    481d        .H      LDR      r0,[pc,#116] ; [0x2c60] = 0x50004140
        0x00002bea:    6802        .h      LDR      r2,[r0,#0]
        0x00002bec:    2103        .!      MOVS     r1,#3
        0x00002bee:    0209        ..      LSLS     r1,r1,#8
        0x00002bf0:    438a        .C      BICS     r2,r2,r1
        0x00002bf2:    32ff        .2      ADDS     r2,r2,#0xff
        0x00002bf4:    3201        .2      ADDS     r2,#1
        0x00002bf6:    6002        .`      STR      r2,[r0,#0]
        0x00002bf8:    2380        .#      MOVS     r3,#0x80
        0x00002bfa:    2500        .%      MOVS     r5,#0
        0x00002bfc:    4c19        .L      LDR      r4,[pc,#100] ; [0x2c64] = 0x50004340
        0x00002bfe:    2601        .&      MOVS     r6,#1
        0x00002c00:    2002        .       MOVS     r0,#2
        0x00002c02:    f001f829    ..).    BL       a_delay_us ; 0x3c58
        0x00002c06:    423b        ;B      TST      r3,r7
        0x00002c08:    d001        ..      BEQ      0x2c0e ; SoftI2cMasterWrite + 42
        0x00002c0a:    6126        &a      STR      r6,[r4,#0x10]
        0x00002c0c:    e000        ..      B        0x2c10 ; SoftI2cMasterWrite + 44
        0x00002c0e:    6125        %a      STR      r5,[r4,#0x10]
        0x00002c10:    2002        .       MOVS     r0,#2
        0x00002c12:    f001f821    ..!.    BL       a_delay_us ; 0x3c58
        0x00002c16:    60e6        .`      STR      r6,[r4,#0xc]
        0x00002c18:    2002        .       MOVS     r0,#2
        0x00002c1a:    f001f81d    ....    BL       a_delay_us ; 0x3c58
        0x00002c1e:    60e5        .`      STR      r5,[r4,#0xc]
        0x00002c20:    085b        [.      LSRS     r3,r3,#1
        0x00002c22:    d1ed        ..      BNE      0x2c00 ; SoftI2cMasterWrite + 28
        0x00002c24:    6126        &a      STR      r6,[r4,#0x10]
        0x00002c26:    4b0e        .K      LDR      r3,[pc,#56] ; [0x2c60] = 0x50004140
        0x00002c28:    6818        .h      LDR      r0,[r3,#0]
        0x00002c2a:    2703        .'      MOVS     r7,#3
        0x00002c2c:    023f        ?.      LSLS     r7,r7,#8
        0x00002c2e:    43b8        .C      BICS     r0,r0,r7
        0x00002c30:    6018        .`      STR      r0,[r3,#0]
        0x00002c32:    60e6        .`      STR      r6,[r4,#0xc]
        0x00002c34:    2002        .       MOVS     r0,#2
        0x00002c36:    f001f80f    ....    BL       a_delay_us ; 0x3c58
        0x00002c3a:    6920         i      LDR      r0,[r4,#0x10]
        0x00002c3c:    60e5        .`      STR      r5,[r4,#0xc]
        0x00002c3e:    b2c6        ..      UXTB     r6,r0
        0x00002c40:    6818        .h      LDR      r0,[r3,#0]
        0x00002c42:    43b8        .C      BICS     r0,r0,r7
        0x00002c44:    30ff        .0      ADDS     r0,r0,#0xff
        0x00002c46:    3001        .0      ADDS     r0,#1
        0x00002c48:    6018        .`      STR      r0,[r3,#0]
        0x00002c4a:    6125        %a      STR      r5,[r4,#0x10]
        0x00002c4c:    2002        .       MOVS     r0,#2
        0x00002c4e:    f001f803    ....    BL       a_delay_us ; 0x3c58
        0x00002c52:    2e00        ..      CMP      r6,#0
        0x00002c54:    d001        ..      BEQ      0x2c5a ; SoftI2cMasterWrite + 118
        0x00002c56:    2000        .       MOVS     r0,#0
        0x00002c58:    bdf0        ..      POP      {r4-r7,pc}
        0x00002c5a:    2001        .       MOVS     r0,#1
        0x00002c5c:    bdf0        ..      POP      {r4-r7,pc}
    $d
        0x00002c5e:    0000        ..      DCW    0
        0x00002c60:    50004140    @A.P    DCD    1342193984
        0x00002c64:    50004340    @C.P    DCD    1342194496
    $t
    i.SysTick_Handler
    SysTick_Handler
        0x00002c68:    b570        p.      PUSH     {r4-r6,lr}
        0x00002c6a:    4854        TH      LDR      r0,[pc,#336] ; [0x2dbc] = 0x2000004c
        0x00002c6c:    8a81        ..      LDRH     r1,[r0,#0x14]
        0x00002c6e:    4604        .F      MOV      r4,r0
        0x00002c70:    1c49        I.      ADDS     r1,r1,#1
        0x00002c72:    8281        ..      STRH     r1,[r0,#0x14]
        0x00002c74:    3c20         <      SUBS     r4,r4,#0x20
        0x00002c76:    7a21        !z      LDRB     r1,[r4,#8]
        0x00002c78:    4606        .F      MOV      r6,r0
        0x00002c7a:    1c49        I.      ADDS     r1,r1,#1
        0x00002c7c:    7221        !r      STRB     r1,[r4,#8]
        0x00002c7e:    7801        .x      LDRB     r1,[r0,#0]
        0x00002c80:    1c49        I.      ADDS     r1,r1,#1
        0x00002c82:    7001        .p      STRB     r1,[r0,#0]
        0x00002c84:    7841        Ax      LDRB     r1,[r0,#1]
        0x00002c86:    1c49        I.      ADDS     r1,r1,#1
        0x00002c88:    7041        Ap      STRB     r1,[r0,#1]
        0x00002c8a:    7e61        a~      LDRB     r1,[r4,#0x19]
        0x00002c8c:    1c49        I.      ADDS     r1,r1,#1
        0x00002c8e:    7661        av      STRB     r1,[r4,#0x19]
        0x00002c90:    7b21        !{      LDRB     r1,[r4,#0xc]
        0x00002c92:    1c49        I.      ADDS     r1,r1,#1
        0x00002c94:    b2c9        ..      UXTB     r1,r1
        0x00002c96:    7321        !s      STRB     r1,[r4,#0xc]
        0x00002c98:    3e40        @>      SUBS     r6,r6,#0x40
        0x00002c9a:    6eb2        .n      LDR      r2,[r6,#0x68]
        0x00002c9c:    1c52        R.      ADDS     r2,r2,#1
        0x00002c9e:    66b2        .f      STR      r2,[r6,#0x68]
        0x00002ca0:    8c02        ..      LDRH     r2,[r0,#0x20]
        0x00002ca2:    2301        .#      MOVS     r3,#1
        0x00002ca4:    1c52        R.      ADDS     r2,r2,#1
        0x00002ca6:    8402        ..      STRH     r2,[r0,#0x20]
        0x00002ca8:    7a82        .z      LDRB     r2,[r0,#0xa]
        0x00002caa:    2500        .%      MOVS     r5,#0
        0x00002cac:    1c52        R.      ADDS     r2,r2,#1
        0x00002cae:    7282        .r      STRB     r2,[r0,#0xa]
        0x00002cb0:    7ac2        .z      LDRB     r2,[r0,#0xb]
        0x00002cb2:    1c52        R.      ADDS     r2,r2,#1
        0x00002cb4:    72c2        .r      STRB     r2,[r0,#0xb]
        0x00002cb6:    7b02        .{      LDRB     r2,[r0,#0xc]
        0x00002cb8:    1c52        R.      ADDS     r2,r2,#1
        0x00002cba:    7302        .s      STRB     r2,[r0,#0xc]
        0x00002cbc:    7b42        B{      LDRB     r2,[r0,#0xd]
        0x00002cbe:    1c52        R.      ADDS     r2,r2,#1
        0x00002cc0:    7342        Bs      STRB     r2,[r0,#0xd]
        0x00002cc2:    7862        bx      LDRB     r2,[r4,#1]
        0x00002cc4:    1c52        R.      ADDS     r2,r2,#1
        0x00002cc6:    7062        bp      STRB     r2,[r4,#1]
        0x00002cc8:    8c42        B.      LDRH     r2,[r0,#0x22]
        0x00002cca:    1c52        R.      ADDS     r2,r2,#1
        0x00002ccc:    8442        B.      STRH     r2,[r0,#0x22]
        0x00002cce:    2964        d)      CMP      r1,#0x64
        0x00002cd0:    d321        !.      BCC      0x2d16 ; SysTick_Handler + 174
        0x00002cd2:    493b        ;I      LDR      r1,[pc,#236] ; [0x2dc0] = 0x200000b7
        0x00002cd4:    7325        %s      STRB     r5,[r4,#0xc]
        0x00002cd6:    7809        .x      LDRB     r1,[r1,#0]
        0x00002cd8:    2902        .)      CMP      r1,#2
        0x00002cda:    d105        ..      BNE      0x2ce8 ; SysTick_Handler + 128
        0x00002cdc:    4a39        9J      LDR      r2,[pc,#228] ; [0x2dc4] = 0x50004340
        0x00002cde:    6891        .h      LDR      r1,[r2,#8]
        0x00002ce0:    4059        Y@      EORS     r1,r1,r3
        0x00002ce2:    6091        .`      STR      r1,[r2,#8]
        0x00002ce4:    4938        8I      LDR      r1,[pc,#224] ; [0x2dc8] = 0x50004200
        0x00002ce6:    60cd        .`      STR      r5,[r1,#0xc]
        0x00002ce8:    4a34        4J      LDR      r2,[pc,#208] ; [0x2dbc] = 0x2000004c
        0x00002cea:    3238        82      ADDS     r2,r2,#0x38
        0x00002cec:    7951        Qy      LDRB     r1,[r2,#5]
        0x00002cee:    1c49        I.      ADDS     r1,r1,#1
        0x00002cf0:    b2c9        ..      UXTB     r1,r1
        0x00002cf2:    7151        Qq      STRB     r1,[r2,#5]
        0x00002cf4:    293c        <)      CMP      r1,#0x3c
        0x00002cf6:    d30e        ..      BCC      0x2d16 ; SysTick_Handler + 174
        0x00002cf8:    7155        Uq      STRB     r5,[r2,#5]
        0x00002cfa:    7911        .y      LDRB     r1,[r2,#4]
        0x00002cfc:    1c49        I.      ADDS     r1,r1,#1
        0x00002cfe:    b2c9        ..      UXTB     r1,r1
        0x00002d00:    7111        .q      STRB     r1,[r2,#4]
        0x00002d02:    293c        <)      CMP      r1,#0x3c
        0x00002d04:    d307        ..      BCC      0x2d16 ; SysTick_Handler + 174
        0x00002d06:    7115        .q      STRB     r5,[r2,#4]
        0x00002d08:    78d1        .x      LDRB     r1,[r2,#3]
        0x00002d0a:    1c49        I.      ADDS     r1,r1,#1
        0x00002d0c:    b2c9        ..      UXTB     r1,r1
        0x00002d0e:    70d1        .p      STRB     r1,[r2,#3]
        0x00002d10:    2918        .)      CMP      r1,#0x18
        0x00002d12:    d300        ..      BCC      0x2d16 ; SysTick_Handler + 174
        0x00002d14:    70d5        .p      STRB     r5,[r2,#3]
        0x00002d16:    7c61        a|      LDRB     r1,[r4,#0x11]
        0x00002d18:    22fa        ."      MOVS     r2,#0xfa
        0x00002d1a:    1c49        I.      ADDS     r1,r1,#1
        0x00002d1c:    b2c9        ..      UXTB     r1,r1
        0x00002d1e:    7461        at      STRB     r1,[r4,#0x11]
        0x00002d20:    29fa        .)      CMP      r1,#0xfa
        0x00002d22:    d900        ..      BLS      0x2d26 ; SysTick_Handler + 190
        0x00002d24:    7462        bt      STRB     r2,[r4,#0x11]
        0x00002d26:    7d21        !}      LDRB     r1,[r4,#0x14]
        0x00002d28:    1c49        I.      ADDS     r1,r1,#1
        0x00002d2a:    b2c9        ..      UXTB     r1,r1
        0x00002d2c:    7521        !u      STRB     r1,[r4,#0x14]
        0x00002d2e:    29fa        .)      CMP      r1,#0xfa
        0x00002d30:    d300        ..      BCC      0x2d34 ; SysTick_Handler + 204
        0x00002d32:    7522        "u      STRB     r2,[r4,#0x14]
        0x00002d34:    7ba1        .{      LDRB     r1,[r4,#0xe]
        0x00002d36:    1c49        I.      ADDS     r1,r1,#1
        0x00002d38:    73a1        .s      STRB     r1,[r4,#0xe]
        0x00002d3a:    78e1        .x      LDRB     r1,[r4,#3]
        0x00002d3c:    1c49        I.      ADDS     r1,r1,#1
        0x00002d3e:    70e1        .p      STRB     r1,[r4,#3]
        0x00002d40:    7ca1        .|      LDRB     r1,[r4,#0x12]
        0x00002d42:    1c49        I.      ADDS     r1,r1,#1
        0x00002d44:    74a1        .t      STRB     r1,[r4,#0x12]
        0x00002d46:    7921        !y      LDRB     r1,[r4,#4]
        0x00002d48:    1c49        I.      ADDS     r1,r1,#1
        0x00002d4a:    7121        !q      STRB     r1,[r4,#4]
        0x00002d4c:    7821        !x      LDRB     r1,[r4,#0]
        0x00002d4e:    1c49        I.      ADDS     r1,r1,#1
        0x00002d50:    7021        !p      STRB     r1,[r4,#0]
        0x00002d52:    7f21        !.      LDRB     r1,[r4,#0x1c]
        0x00002d54:    1c49        I.      ADDS     r1,r1,#1
        0x00002d56:    7721        !w      STRB     r1,[r4,#0x1c]
        0x00002d58:    78e1        .x      LDRB     r1,[r4,#3]
        0x00002d5a:    2964        d)      CMP      r1,#0x64
        0x00002d5c:    d309        ..      BCC      0x2d72 ; SysTick_Handler + 266
        0x00002d5e:    70e5        .p      STRB     r5,[r4,#3]
        0x00002d60:    7b61        a{      LDRB     r1,[r4,#0xd]
        0x00002d62:    1c49        I.      ADDS     r1,r1,#1
        0x00002d64:    7361        as      STRB     r1,[r4,#0xd]
        0x00002d66:    8b01        ..      LDRH     r1,[r0,#0x18]
        0x00002d68:    1c49        I.      ADDS     r1,r1,#1
        0x00002d6a:    8301        ..      STRH     r1,[r0,#0x18]
        0x00002d6c:    7a01        .z      LDRB     r1,[r0,#8]
        0x00002d6e:    1c49        I.      ADDS     r1,r1,#1
        0x00002d70:    7201        .r      STRB     r1,[r0,#8]
        0x00002d72:    8a41        A.      LDRH     r1,[r0,#0x12]
        0x00002d74:    1c49        I.      ADDS     r1,r1,#1
        0x00002d76:    b289        ..      UXTH     r1,r1
        0x00002d78:    8241        A.      STRH     r1,[r0,#0x12]
        0x00002d7a:    20ff        .       MOVS     r0,#0xff
        0x00002d7c:    30f5        .0      ADDS     r0,r0,#0xf5
        0x00002d7e:    4281        .B      CMP      r1,r0
        0x00002d80:    d902        ..      BLS      0x2d88 ; SysTick_Handler + 288
        0x00002d82:    75e3        .u      STRB     r3,[r4,#0x17]
        0x00002d84:    f7fff83c    ..<.    BL       RecoverSystemMoniter ; 0x1e00
        0x00002d88:    78f0        .x      LDRB     r0,[r6,#3]
        0x00002d8a:    2800        .(      CMP      r0,#0
        0x00002d8c:    d008        ..      BEQ      0x2da0 ; SysTick_Handler + 312
        0x00002d8e:    7d60        `}      LDRB     r0,[r4,#0x15]
        0x00002d90:    1c40        @.      ADDS     r0,r0,#1
        0x00002d92:    b2c0        ..      UXTB     r0,r0
        0x00002d94:    7560        `u      STRB     r0,[r4,#0x15]
        0x00002d96:    2864        d(      CMP      r0,#0x64
        0x00002d98:    d902        ..      BLS      0x2da0 ; SysTick_Handler + 312
        0x00002d9a:    7565        eu      STRB     r5,[r4,#0x15]
        0x00002d9c:    f7fff84c    ..L.    BL       ResetHostUART ; 0x1e38
        0x00002da0:    79b0        .y      LDRB     r0,[r6,#6]
        0x00002da2:    2800        .(      CMP      r0,#0
        0x00002da4:    d008        ..      BEQ      0x2db8 ; SysTick_Handler + 336
        0x00002da6:    7da0        .}      LDRB     r0,[r4,#0x16]
        0x00002da8:    1c40        @.      ADDS     r0,r0,#1
        0x00002daa:    b2c0        ..      UXTB     r0,r0
        0x00002dac:    75a0        .u      STRB     r0,[r4,#0x16]
        0x00002dae:    2864        d(      CMP      r0,#0x64
        0x00002db0:    d902        ..      BLS      0x2db8 ; SysTick_Handler + 336
        0x00002db2:    75a5        .u      STRB     r5,[r4,#0x16]
        0x00002db4:    f7fff858    ..X.    BL       ResetReaderUART ; 0x1e68
        0x00002db8:    bd70        p.      POP      {r4-r6,pc}
    $d
        0x00002dba:    0000        ..      DCW    0
        0x00002dbc:    2000004c    L..     DCD    536870988
        0x00002dc0:    200000b7    ...     DCD    536871095
        0x00002dc4:    50004340    @C.P    DCD    1342194496
        0x00002dc8:    50004200    .B.P    DCD    1342194176
    $t
    i.SystemCoreClockUpdate
    SystemCoreClockUpdate
        0x00002dcc:    b5f8        ..      PUSH     {r3-r7,lr}
        0x00002dce:    4d1c        .M      LDR      r5,[pc,#112] ; [0x2e40] = 0x50000200
        0x00002dd0:    6928        (i      LDR      r0,[r5,#0x10]
        0x00002dd2:    0744        D.      LSLS     r4,r0,#29
        0x00002dd4:    a01b        ..      ADR      r0,{pc}+0x70 ; 0x2e44
        0x00002dd6:    6800        .h      LDR      r0,[r0,#0]
        0x00002dd8:    9000        ..      STR      r0,[sp,#0]
        0x00002dda:    6a29        )j      LDR      r1,[r5,#0x20]
        0x00002ddc:    0f64        d.      LSRS     r4,r4,#29
        0x00002dde:    1328        (.      ASRS     r0,r5,#12
        0x00002de0:    4201        .B      TST      r1,r0
        0x00002de2:    d001        ..      BEQ      0x2de8 ; SystemCoreClockUpdate + 28
        0x00002de4:    2000        .       MOVS     r0,#0
        0x00002de6:    e016        ..      B        0x2e16 ; SystemCoreClockUpdate + 74
        0x00002de8:    0308        ..      LSLS     r0,r1,#12
        0x00002dea:    d501        ..      BPL      0x2df0 ; SystemCoreClockUpdate + 36
        0x00002dec:    4816        .H      LDR      r0,[pc,#88] ; [0x2e48] = 0x1518000
        0x00002dee:    e000        ..      B        0x2df2 ; SystemCoreClockUpdate + 38
        0x00002df0:    4816        .H      LDR      r0,[pc,#88] ; [0x2e4c] = 0xb71b00
        0x00002df2:    038a        ..      LSLS     r2,r1,#14
        0x00002df4:    d40f        ..      BMI      0x2e16 ; SystemCoreClockUpdate + 74
        0x00002df6:    040a        ..      LSLS     r2,r1,#16
        0x00002df8:    0f92        ..      LSRS     r2,r2,#30
        0x00002dfa:    466b        kF      MOV      r3,sp
        0x00002dfc:    5c9b        .\      LDRB     r3,[r3,r2]
        0x00002dfe:    05ca        ..      LSLS     r2,r1,#23
        0x00002e00:    0489        ..      LSLS     r1,r1,#18
        0x00002e02:    0dd2        ..      LSRS     r2,r2,#23
        0x00002e04:    0ec9        ..      LSRS     r1,r1,#27
        0x00002e06:    1c89        ..      ADDS     r1,r1,#2
        0x00002e08:    0880        ..      LSRS     r0,r0,#2
        0x00002e0a:    1c92        ..      ADDS     r2,r2,#2
        0x00002e0c:    4359        YC      MULS     r1,r3,r1
        0x00002e0e:    4350        PC      MULS     r0,r2,r0
        0x00002e10:    f7fdf97c    ..|.    BL       __aeabi_uidiv ; 0x10c
        0x00002e14:    0080        ..      LSLS     r0,r0,#2
        0x00002e16:    4e0e        .N      LDR      r6,[pc,#56] ; [0x2e50] = 0x20000000
        0x00002e18:    2c02        .,      CMP      r4,#2
        0x00002e1a:    60b0        .`      STR      r0,[r6,#8]
        0x00002e1c:    d002        ..      BEQ      0x2e24 ; SystemCoreClockUpdate + 88
        0x00002e1e:    490d        .I      LDR      r1,[pc,#52] ; [0x2e54] = 0x3f48
        0x00002e20:    00a0        ..      LSLS     r0,r4,#2
        0x00002e22:    5808        .X      LDR      r0,[r1,r0]
        0x00002e24:    69a9        .i      LDR      r1,[r5,#0x18]
        0x00002e26:    0709        ..      LSLS     r1,r1,#28
        0x00002e28:    0f09        ..      LSRS     r1,r1,#28
        0x00002e2a:    1c49        I.      ADDS     r1,r1,#1
        0x00002e2c:    f7fdf96e    ..n.    BL       __aeabi_uidiv ; 0x10c
        0x00002e30:    4909        .I      LDR      r1,[pc,#36] ; [0x2e58] = 0xf4240
        0x00002e32:    6030        0`      STR      r0,[r6,#0]
        0x00002e34:    104a        J.      ASRS     r2,r1,#1
        0x00002e36:    1880        ..      ADDS     r0,r0,r2
        0x00002e38:    f7fdf968    ..h.    BL       __aeabi_uidiv ; 0x10c
        0x00002e3c:    6070        p`      STR      r0,[r6,#4]
        0x00002e3e:    bdf8        ..      POP      {r3-r7,pc}
    $d
        0x00002e40:    50000200    ...P    DCD    1342177792
        0x00002e44:    04020201    ....    DCD    67240449
        0x00002e48:    01518000    ..Q.    DCD    22118400
        0x00002e4c:    00b71b00    ....    DCD    12000000
        0x00002e50:    20000000    ...     DCD    536870912
        0x00002e54:    00003f48    H?..    DCD    16200
        0x00002e58:    000f4240    @B..    DCD    1000000
    $t
    i.SystemInit
    SystemInit
        0x00002e5c:    4770        pG      BX       lr
        0x00002e5e:    0000        ..      MOVS     r0,r0
    i.SystemSwitchProcess
    SystemSwitchProcess
        0x00002e60:    b570        p.      PUSH     {r4-r6,lr}
        0x00002e62:    4e29        )N      LDR      r6,[pc,#164] ; [0x2f08] = 0x20000104
        0x00002e64:    78f0        .x      LDRB     r0,[r6,#3]
        0x00002e66:    28a5        .(      CMP      r0,#0xa5
        0x00002e68:    d111        ..      BNE      0x2e8e ; SystemSwitchProcess + 46
        0x00002e6a:    7930        0y      LDRB     r0,[r6,#4]
        0x00002e6c:    2400        .$      MOVS     r4,#0
        0x00002e6e:    4927        'I      LDR      r1,[pc,#156] ; [0x2f0c] = 0x500042c0
        0x00002e70:    2805        .(      CMP      r0,#5
        0x00002e72:    d00b        ..      BEQ      0x2e8c ; SystemSwitchProcess + 44
        0x00002e74:    2501        .%      MOVS     r5,#1
        0x00002e76:    2850        P(      CMP      r0,#0x50
        0x00002e78:    d00a        ..      BEQ      0x2e90 ; SystemSwitchProcess + 48
        0x00002e7a:    4924        $I      LDR      r1,[pc,#144] ; [0x2f0c] = 0x500042c0
        0x00002e7c:    39c0        .9      SUBS     r1,r1,#0xc0
        0x00002e7e:    2806        .(      CMP      r0,#6
        0x00002e80:    d008        ..      BEQ      0x2e94 ; SystemSwitchProcess + 52
        0x00002e82:    2860        `(      CMP      r0,#0x60
        0x00002e84:    d008        ..      BEQ      0x2e98 ; SystemSwitchProcess + 56
        0x00002e86:    2870        p(      CMP      r0,#0x70
        0x00002e88:    d008        ..      BEQ      0x2e9c ; SystemSwitchProcess + 60
        0x00002e8a:    e009        ..      B        0x2ea0 ; SystemSwitchProcess + 64
        0x00002e8c:    61cc        .a      STR      r4,[r1,#0x1c]
        0x00002e8e:    bd70        p.      POP      {r4-r6,pc}
        0x00002e90:    61cd        .a      STR      r5,[r1,#0x1c]
        0x00002e92:    bd70        p.      POP      {r4-r6,pc}
        0x00002e94:    60cd        .`      STR      r5,[r1,#0xc]
        0x00002e96:    bd70        p.      POP      {r4-r6,pc}
        0x00002e98:    60cc        .`      STR      r4,[r1,#0xc]
        0x00002e9a:    bd70        p.      POP      {r4-r6,pc}
        0x00002e9c:    f7fefc5a    ..Z.    BL       MeterValueReset ; 0x1754
        0x00002ea0:    7930        0y      LDRB     r0,[r6,#4]
        0x00002ea2:    2877        w(      CMP      r0,#0x77
        0x00002ea4:    d013        ..      BEQ      0x2ece ; SystemSwitchProcess + 110
        0x00002ea6:    2885        .(      CMP      r0,#0x85
        0x00002ea8:    d01a        ..      BEQ      0x2ee0 ; SystemSwitchProcess + 128
        0x00002eaa:    2886        .(      CMP      r0,#0x86
        0x00002eac:    d01f        ..      BEQ      0x2eee ; SystemSwitchProcess + 142
        0x00002eae:    285b        [(      CMP      r0,#0x5b
        0x00002eb0:    d024        $.      BEQ      0x2efc ; SystemSwitchProcess + 156
        0x00002eb2:    285a        Z(      CMP      r0,#0x5a
        0x00002eb4:    d1f1        ..      BNE      0x2e9a ; SystemSwitchProcess + 58
        0x00002eb6:    7970        py      LDRB     r0,[r6,#5]
        0x00002eb8:    28bb        .(      CMP      r0,#0xbb
        0x00002eba:    d1ee        ..      BNE      0x2e9a ; SystemSwitchProcess + 58
        0x00002ebc:    f3bf8f4f    ..O.    DSB      
        0x00002ec0:    4914        .I      LDR      r1,[pc,#80] ; [0x2f14] = 0xe000ed00
        0x00002ec2:    4813        .H      LDR      r0,[pc,#76] ; [0x2f10] = 0x5fa0004
        0x00002ec4:    60c8        .`      STR      r0,[r1,#0xc]
        0x00002ec6:    f3bf8f4f    ..O.    DSB      
        0x00002eca:    bf00        ..      NOP      
        0x00002ecc:    e7fd        ..      B        0x2eca ; SystemSwitchProcess + 106
        0x00002ece:    7970        py      LDRB     r0,[r6,#5]
        0x00002ed0:    28bb        .(      CMP      r0,#0xbb
        0x00002ed2:    d1e2        ..      BNE      0x2e9a ; SystemSwitchProcess + 58
        0x00002ed4:    480d        .H      LDR      r0,[pc,#52] ; [0x2f0c] = 0x500042c0
        0x00002ed6:    3880        .8      SUBS     r0,r0,#0x80
        0x00002ed8:    6004        .`      STR      r4,[r0,#0]
        0x00002eda:    480f        .H      LDR      r0,[pc,#60] ; [0x2f18] = 0x20000054
        0x00002edc:    7004        .p      STRB     r4,[r0,#0]
        0x00002ede:    bd70        p.      POP      {r4-r6,pc}
        0x00002ee0:    7970        py      LDRB     r0,[r6,#5]
        0x00002ee2:    28bb        .(      CMP      r0,#0xbb
        0x00002ee4:    d1fb        ..      BNE      0x2ede ; SystemSwitchProcess + 126
        0x00002ee6:    480d        .H      LDR      r0,[pc,#52] ; [0x2f1c] = 0x20000062
        0x00002ee8:    79b1        .y      LDRB     r1,[r6,#6]
        0x00002eea:    8001        ..      STRH     r1,[r0,#0]
        0x00002eec:    bd70        p.      POP      {r4-r6,pc}
        0x00002eee:    7970        py      LDRB     r0,[r6,#5]
        0x00002ef0:    28bb        .(      CMP      r0,#0xbb
        0x00002ef2:    d1fb        ..      BNE      0x2eec ; SystemSwitchProcess + 140
        0x00002ef4:    490a        .I      LDR      r1,[pc,#40] ; [0x2f20] = 0x20000047
        0x00002ef6:    79b0        .y      LDRB     r0,[r6,#6]
        0x00002ef8:    7008        .p      STRB     r0,[r1,#0]
        0x00002efa:    bd70        p.      POP      {r4-r6,pc}
        0x00002efc:    7970        py      LDRB     r0,[r6,#5]
        0x00002efe:    28cc        .(      CMP      r0,#0xcc
        0x00002f00:    d1fb        ..      BNE      0x2efa ; SystemSwitchProcess + 154
        0x00002f02:    4808        .H      LDR      r0,[pc,#32] ; [0x2f24] = 0x20000044
        0x00002f04:    7005        .p      STRB     r5,[r0,#0]
        0x00002f06:    bd70        p.      POP      {r4-r6,pc}
    $d
        0x00002f08:    20000104    ...     DCD    536871172
        0x00002f0c:    500042c0    .B.P    DCD    1342194368
        0x00002f10:    05fa0004    ....    DCD    100270084
        0x00002f14:    e000ed00    ....    DCD    3758157056
        0x00002f18:    20000054    T..     DCD    536870996
        0x00002f1c:    20000062    b..     DCD    536871010
        0x00002f20:    20000047    G..     DCD    536870983
        0x00002f24:    20000044    D..     DCD    536870980
    $t
    i.UART02_IRQHandler
    UART02_IRQHandler
        0x00002f28:    b5f8        ..      PUSH     {r3-r7,lr}
        0x00002f2a:    486e        nH      LDR      r0,[pc,#440] ; [0x30e4] = 0x40154000
        0x00002f2c:    69c0        .i      LDR      r0,[r0,#0x1c]
        0x00002f2e:    4d6f        oM      LDR      r5,[pc,#444] ; [0x30ec] = 0x2000000c
        0x00002f30:    4686        .F      MOV      lr,r0
        0x00002f32:    462c        ,F      MOV      r4,r5
        0x00002f34:    05c0        ..      LSLS     r0,r0,#23
        0x00002f36:    4f6c        lO      LDR      r7,[pc,#432] ; [0x30e8] = 0x20000294
        0x00002f38:    2600        .&      MOVS     r6,#0
        0x00002f3a:    3420         4      ADDS     r4,r4,#0x20
        0x00002f3c:    2800        .(      CMP      r0,#0
        0x00002f3e:    db39        9.      BLT      0x2fb4 ; UART02_IRQHandler + 140
        0x00002f40:    e03c        <.      B        0x2fbc ; UART02_IRQHandler + 148
        0x00002f42:    6801        .h      LDR      r1,[r0,#0]
        0x00002f44:    75a6        .u      STRB     r6,[r4,#0x16]
        0x00002f46:    7c28        (|      LDRB     r0,[r5,#0x10]
        0x00002f48:    5439        9T      STRB     r1,[r7,r0]
        0x00002f4a:    1c40        @.      ADDS     r0,r0,#1
        0x00002f4c:    b2c1        ..      UXTB     r1,r0
        0x00002f4e:    7429        )t      STRB     r1,[r5,#0x10]
        0x00002f50:    7ca8        .|      LDRB     r0,[r5,#0x12]
        0x00002f52:    1c40        @.      ADDS     r0,r0,#1
        0x00002f54:    b2c0        ..      UXTB     r0,r0
        0x00002f56:    74a8        .t      STRB     r0,[r5,#0x12]
        0x00002f58:    2920         )      CMP      r1,#0x20
        0x00002f5a:    d300        ..      BCC      0x2f5e ; UART02_IRQHandler + 54
        0x00002f5c:    742e        .t      STRB     r6,[r5,#0x10]
        0x00002f5e:    7839        9x      LDRB     r1,[r7,#0]
        0x00002f60:    7aa2        .z      LDRB     r2,[r4,#0xa]
        0x00002f62:    4291        .B      CMP      r1,r2
        0x00002f64:    d003        ..      BEQ      0x2f6e ; UART02_IRQHandler + 70
        0x00002f66:    742e        .t      STRB     r6,[r5,#0x10]
        0x00002f68:    74ae        .t      STRB     r6,[r5,#0x12]
        0x00002f6a:    746e        nt      STRB     r6,[r5,#0x11]
        0x00002f6c:    bdf8        ..      POP      {r3-r7,pc}
        0x00002f6e:    7879        yx      LDRB     r1,[r7,#1]
        0x00002f70:    2903        .)      CMP      r1,#3
        0x00002f72:    d008        ..      BEQ      0x2f86 ; UART02_IRQHandler + 94
        0x00002f74:    2108        .!      MOVS     r1,#8
        0x00002f76:    74e9        .t      STRB     r1,[r5,#0x13]
        0x00002f78:    b2c9        ..      UXTB     r1,r1
        0x00002f7a:    468c        .F      MOV      r12,r1
        0x00002f7c:    4288        .B      CMP      r0,r1
        0x00002f7e:    d319        ..      BCC      0x2fb4 ; UART02_IRQHandler + 140
        0x00002f80:    2000        .       MOVS     r0,#0
        0x00002f82:    4a5b        [J      LDR      r2,[pc,#364] ; [0x30f0] = 0x20000194
        0x00002f84:    e00f        ..      B        0x2fa6 ; UART02_IRQHandler + 126
        0x00002f86:    2109        .!      MOVS     r1,#9
        0x00002f88:    e7f5        ..      B        0x2f76 ; UART02_IRQHandler + 78
        0x00002f8a:    7c69        i|      LDRB     r1,[r5,#0x11]
        0x00002f8c:    5c7b        {\      LDRB     r3,[r7,r1]
        0x00002f8e:    5413        .T      STRB     r3,[r2,r0]
        0x00002f90:    7cab        .|      LDRB     r3,[r5,#0x12]
        0x00002f92:    1c49        I.      ADDS     r1,r1,#1
        0x00002f94:    1e5b        [.      SUBS     r3,r3,#1
        0x00002f96:    b2c9        ..      UXTB     r1,r1
        0x00002f98:    74ab        .t      STRB     r3,[r5,#0x12]
        0x00002f9a:    7469        it      STRB     r1,[r5,#0x11]
        0x00002f9c:    2920         )      CMP      r1,#0x20
        0x00002f9e:    d300        ..      BCC      0x2fa2 ; UART02_IRQHandler + 122
        0x00002fa0:    746e        nt      STRB     r6,[r5,#0x11]
        0x00002fa2:    1c40        @.      ADDS     r0,r0,#1
        0x00002fa4:    b2c0        ..      UXTB     r0,r0
        0x00002fa6:    4560        `E      CMP      r0,r12
        0x00002fa8:    d3ef        ..      BCC      0x2f8a ; UART02_IRQHandler + 98
        0x00002faa:    742e        .t      STRB     r6,[r5,#0x10]
        0x00002fac:    74ae        .t      STRB     r6,[r5,#0x12]
        0x00002fae:    746e        nt      STRB     r6,[r5,#0x11]
        0x00002fb0:    2001        .       MOVS     r0,#1
        0x00002fb2:    71e0        .q      STRB     r0,[r4,#7]
        0x00002fb4:    484b        KH      LDR      r0,[pc,#300] ; [0x30e4] = 0x40154000
        0x00002fb6:    69c1        .i      LDR      r1,[r0,#0x1c]
        0x00002fb8:    07c9        ..      LSLS     r1,r1,#31
        0x00002fba:    d1c2        ..      BNE      0x2f42 ; UART02_IRQHandler + 26
        0x00002fbc:    4670        pF      MOV      r0,lr
        0x00002fbe:    0581        ..      LSLS     r1,r0,#22
        0x00002fc0:    484a        JH      LDR      r0,[pc,#296] ; [0x30ec] = 0x2000000c
        0x00002fc2:    3040        @0      ADDS     r0,r0,#0x40
        0x00002fc4:    9000        ..      STR      r0,[sp,#0]
        0x00002fc6:    2900        .)      CMP      r1,#0
        0x00002fc8:    da24        $.      BGE      0x3014 ; UART02_IRQHandler + 236
        0x00002fca:    7bea        .{      LDRB     r2,[r5,#0xf]
        0x00002fcc:    2a00        .*      CMP      r2,#0
        0x00002fce:    d011        ..      BEQ      0x2ff4 ; UART02_IRQHandler + 204
        0x00002fd0:    4944        DI      LDR      r1,[pc,#272] ; [0x30e4] = 0x40154000
        0x00002fd2:    6988        .i      LDR      r0,[r1,#0x18]
        0x00002fd4:    0200        ..      LSLS     r0,r0,#8
        0x00002fd6:    d4fc        ..      BMI      0x2fd2 ; UART02_IRQHandler + 170
        0x00002fd8:    4b43        CK      LDR      r3,[pc,#268] ; [0x30e8] = 0x20000294
        0x00002fda:    7ba8        .{      LDRB     r0,[r5,#0xe]
        0x00002fdc:    3320         3      ADDS     r3,r3,#0x20
        0x00002fde:    5c1b        .\      LDRB     r3,[r3,r0]
        0x00002fe0:    600b        .`      STR      r3,[r1,#0]
        0x00002fe2:    1e52        R.      SUBS     r2,r2,#1
        0x00002fe4:    1c40        @.      ADDS     r0,r0,#1
        0x00002fe6:    b2c0        ..      UXTB     r0,r0
        0x00002fe8:    73ea        .s      STRB     r2,[r5,#0xf]
        0x00002fea:    73a8        .s      STRB     r0,[r5,#0xe]
        0x00002fec:    2820         (      CMP      r0,#0x20
        0x00002fee:    d311        ..      BCC      0x3014 ; UART02_IRQHandler + 236
        0x00002ff0:    73ae        .s      STRB     r6,[r5,#0xe]
        0x00002ff2:    e00f        ..      B        0x3014 ; UART02_IRQHandler + 236
        0x00002ff4:    4f3b        ;O      LDR      r7,[pc,#236] ; [0x30e4] = 0x40154000
        0x00002ff6:    2102        .!      MOVS     r1,#2
        0x00002ff8:    4638        8F      MOV      r0,r7
        0x00002ffa:    f000fa01    ....    BL       UART_DisableInt ; 0x3400
        0x00002ffe:    2101        .!      MOVS     r1,#1
        0x00003000:    4638        8F      MOV      r0,r7
        0x00003002:    f000fa15    ....    BL       UART_EnableInt ; 0x3430
        0x00003006:    200c        .       MOVS     r0,#0xc
        0x00003008:    f7fefbb2    ....    BL       NVIC_EnableIRQ ; 0x1770
        0x0000300c:    9900        ..      LDR      r1,[sp,#0]
        0x0000300e:    2001        .       MOVS     r0,#1
        0x00003010:    7188        .q      STRB     r0,[r1,#6]
        0x00003012:    838e        ..      STRH     r6,[r1,#0x1c]
        0x00003014:    4837        7H      LDR      r0,[pc,#220] ; [0x30f4] = 0x40050000
        0x00003016:    69c0        .i      LDR      r0,[r0,#0x1c]
        0x00003018:    4f37        7O      LDR      r7,[pc,#220] ; [0x30f8] = 0x200001ec
        0x0000301a:    4684        .F      MOV      r12,r0
        0x0000301c:    05c0        ..      LSLS     r0,r0,#23
        0x0000301e:    d433        3.      BMI      0x3088 ; UART02_IRQHandler + 352
        0x00003020:    e036        6.      B        0x3090 ; UART02_IRQHandler + 360
        0x00003022:    6801        .h      LDR      r1,[r0,#0]
        0x00003024:    7868        hx      LDRB     r0,[r5,#1]
        0x00003026:    5439        9T      STRB     r1,[r7,r0]
        0x00003028:    1c40        @.      ADDS     r0,r0,#1
        0x0000302a:    b2c1        ..      UXTB     r1,r0
        0x0000302c:    7069        ip      STRB     r1,[r5,#1]
        0x0000302e:    78e8        .x      LDRB     r0,[r5,#3]
        0x00003030:    1c40        @.      ADDS     r0,r0,#1
        0x00003032:    b2c0        ..      UXTB     r0,r0
        0x00003034:    70e8        .p      STRB     r0,[r5,#3]
        0x00003036:    2938        8)      CMP      r1,#0x38
        0x00003038:    d300        ..      BCC      0x303c ; UART02_IRQHandler + 276
        0x0000303a:    706e        np      STRB     r6,[r5,#1]
        0x0000303c:    7839        9x      LDRB     r1,[r7,#0]
        0x0000303e:    2955        U)      CMP      r1,#0x55
        0x00003040:    d106        ..      BNE      0x3050 ; UART02_IRQHandler + 296
        0x00003042:    2838        8(      CMP      r0,#0x38
        0x00003044:    d320         .      BCC      0x3088 ; UART02_IRQHandler + 352
        0x00003046:    482c        ,H      LDR      r0,[pc,#176] ; [0x30f8] = 0x200001ec
        0x00003048:    3020         0      ADDS     r0,r0,#0x20
        0x0000304a:    7dc0        .}      LDRB     r0,[r0,#0x17]
        0x0000304c:    280a        .(      CMP      r0,#0xa
        0x0000304e:    d003        ..      BEQ      0x3058 ; UART02_IRQHandler + 304
        0x00003050:    706e        np      STRB     r6,[r5,#1]
        0x00003052:    70ee        .p      STRB     r6,[r5,#3]
        0x00003054:    70ae        .p      STRB     r6,[r5,#2]
        0x00003056:    bdf8        ..      POP      {r3-r7,pc}
        0x00003058:    4a25        %J      LDR      r2,[pc,#148] ; [0x30f0] = 0x20000194
        0x0000305a:    2000        .       MOVS     r0,#0
        0x0000305c:    3a90        .:      SUBS     r2,r2,#0x90
        0x0000305e:    78a9        .x      LDRB     r1,[r5,#2]
        0x00003060:    5c7b        {\      LDRB     r3,[r7,r1]
        0x00003062:    5413        .T      STRB     r3,[r2,r0]
        0x00003064:    78eb        .x      LDRB     r3,[r5,#3]
        0x00003066:    1c49        I.      ADDS     r1,r1,#1
        0x00003068:    1e5b        [.      SUBS     r3,r3,#1
        0x0000306a:    b2c9        ..      UXTB     r1,r1
        0x0000306c:    70eb        .p      STRB     r3,[r5,#3]
        0x0000306e:    70a9        .p      STRB     r1,[r5,#2]
        0x00003070:    2938        8)      CMP      r1,#0x38
        0x00003072:    d300        ..      BCC      0x3076 ; UART02_IRQHandler + 334
        0x00003074:    70ae        .p      STRB     r6,[r5,#2]
        0x00003076:    1c40        @.      ADDS     r0,r0,#1
        0x00003078:    b2c0        ..      UXTB     r0,r0
        0x0000307a:    2838        8(      CMP      r0,#0x38
        0x0000307c:    d3ef        ..      BCC      0x305e ; UART02_IRQHandler + 310
        0x0000307e:    706e        np      STRB     r6,[r5,#1]
        0x00003080:    70ee        .p      STRB     r6,[r5,#3]
        0x00003082:    70ae        .p      STRB     r6,[r5,#2]
        0x00003084:    2001        .       MOVS     r0,#1
        0x00003086:    71a0        .q      STRB     r0,[r4,#6]
        0x00003088:    481a        .H      LDR      r0,[pc,#104] ; [0x30f4] = 0x40050000
        0x0000308a:    69c1        .i      LDR      r1,[r0,#0x1c]
        0x0000308c:    07c9        ..      LSLS     r1,r1,#31
        0x0000308e:    d1c8        ..      BNE      0x3022 ; UART02_IRQHandler + 250
        0x00003090:    4660        `F      MOV      r0,r12
        0x00003092:    0580        ..      LSLS     r0,r0,#22
        0x00003094:    d5df        ..      BPL      0x3056 ; UART02_IRQHandler + 302
        0x00003096:    7a6a        jz      LDRB     r2,[r5,#9]
        0x00003098:    2a00        .*      CMP      r2,#0
        0x0000309a:    d011        ..      BEQ      0x30c0 ; UART02_IRQHandler + 408
        0x0000309c:    4815        .H      LDR      r0,[pc,#84] ; [0x30f4] = 0x40050000
        0x0000309e:    6981        .i      LDR      r1,[r0,#0x18]
        0x000030a0:    0209        ..      LSLS     r1,r1,#8
        0x000030a2:    d4fc        ..      BMI      0x309e ; UART02_IRQHandler + 374
        0x000030a4:    4b12        .K      LDR      r3,[pc,#72] ; [0x30f0] = 0x20000194
        0x000030a6:    7a29        )z      LDRB     r1,[r5,#8]
        0x000030a8:    3320         3      ADDS     r3,r3,#0x20
        0x000030aa:    5c5b        [\      LDRB     r3,[r3,r1]
        0x000030ac:    6003        .`      STR      r3,[r0,#0]
        0x000030ae:    1e52        R.      SUBS     r2,r2,#1
        0x000030b0:    1c49        I.      ADDS     r1,r1,#1
        0x000030b2:    b2c8        ..      UXTB     r0,r1
        0x000030b4:    726a        jr      STRB     r2,[r5,#9]
        0x000030b6:    7228        (r      STRB     r0,[r5,#8]
        0x000030b8:    2838        8(      CMP      r0,#0x38
        0x000030ba:    d3cc        ..      BCC      0x3056 ; UART02_IRQHandler + 302
        0x000030bc:    722e        .r      STRB     r6,[r5,#8]
        0x000030be:    bdf8        ..      POP      {r3-r7,pc}
        0x000030c0:    4c0c        .L      LDR      r4,[pc,#48] ; [0x30f4] = 0x40050000
        0x000030c2:    2102        .!      MOVS     r1,#2
        0x000030c4:    4620         F      MOV      r0,r4
        0x000030c6:    f000f99b    ....    BL       UART_DisableInt ; 0x3400
        0x000030ca:    2101        .!      MOVS     r1,#1
        0x000030cc:    4620         F      MOV      r0,r4
        0x000030ce:    f000f9af    ....    BL       UART_EnableInt ; 0x3430
        0x000030d2:    200c        .       MOVS     r0,#0xc
        0x000030d4:    f7fefb4c    ..L.    BL       NVIC_EnableIRQ ; 0x1770
        0x000030d8:    9800        ..      LDR      r0,[sp,#0]
        0x000030da:    83c6        ..      STRH     r6,[r0,#0x1e]
        0x000030dc:    9900        ..      LDR      r1,[sp,#0]
        0x000030de:    2001        .       MOVS     r0,#1
        0x000030e0:    71c8        .q      STRB     r0,[r1,#7]
        0x000030e2:    bdf8        ..      POP      {r3-r7,pc}
    $d
        0x000030e4:    40154000    .@.@    DCD    1075134464
        0x000030e8:    20000294    ...     DCD    536871572
        0x000030ec:    2000000c    ...     DCD    536870924
        0x000030f0:    20000194    ...     DCD    536871316
        0x000030f4:    40050000    ...@    DCD    1074069504
        0x000030f8:    200001ec    ...     DCD    536871404
    $t
    i.UART0_Init
    UART0_Init
        0x000030fc:    b5f0        ..      PUSH     {r4-r7,lr}
        0x000030fe:    4824        $H      LDR      r0,[pc,#144] ; [0x3190] = 0x3f68
        0x00003100:    b085        ..      SUB      sp,sp,#0x14
        0x00003102:    c80f        ..      LDM      r0,{r0-r3}
        0x00003104:    466c        lF      MOV      r4,sp
        0x00003106:    c40f        ..      STM      r4!,{r0-r3}
        0x00003108:    20e1        .       MOVS     r0,#0xe1
        0x0000310a:    0200        ..      LSLS     r0,r0,#8
        0x0000310c:    9004        ..      STR      r0,[sp,#0x10]
        0x0000310e:    4821        !H      LDR      r0,[pc,#132] ; [0x3194] = 0x4000010
        0x00003110:    f7fff85a    ..Z.    BL       SYS_ResetModule ; 0x21c8
        0x00003114:    4820         H      LDR      r0,[pc,#128] ; [0x3198] = 0x50000200
        0x00003116:    6941        Ai      LDR      r1,[r0,#0x14]
        0x00003118:    6980        .i      LDR      r0,[r0,#0x18]
        0x0000311a:    018a        ..      LSLS     r2,r1,#6
        0x0000311c:    2103        .!      MOVS     r1,#3
        0x0000311e:    0f94        ..      LSRS     r4,r2,#30
        0x00003120:    0500        ..      LSLS     r0,r0,#20
        0x00003122:    0f06        ..      LSRS     r6,r0,#28
        0x00003124:    4d1d        .M      LDR      r5,[pc,#116] ; [0x319c] = 0x40050000
        0x00003126:    2000        .       MOVS     r0,#0
        0x00003128:    6328        (c      STR      r0,[r5,#0x30]
        0x0000312a:    60e9        .`      STR      r1,[r5,#0xc]
        0x0000312c:    68a8        .h      LDR      r0,[r5,#8]
        0x0000312e:    491c        .I      LDR      r1,[pc,#112] ; [0x31a0] = 0xfff0ff0f
        0x00003130:    4008        .@      ANDS     r0,r0,r1
        0x00003132:    60a8        .`      STR      r0,[r5,#8]
        0x00003134:    466f        oF      MOV      r7,sp
        0x00003136:    2c01        .,      CMP      r4,#1
        0x00003138:    d102        ..      BNE      0x3140 ; UART0_Init + 68
        0x0000313a:    f7fdfa4b    ..K.    BL       CLK_GetPLLClockFreq ; 0x5d4
        0x0000313e:    9001        ..      STR      r0,[sp,#4]
        0x00003140:    00a0        ..      LSLS     r0,r4,#2
        0x00003142:    5838        8X      LDR      r0,[r7,r0]
        0x00003144:    1c71        q.      ADDS     r1,r6,#1
        0x00003146:    f7fcffe1    ....    BL       __aeabi_uidiv ; 0x10c
        0x0000314a:    21e1        .!      MOVS     r1,#0xe1
        0x0000314c:    4604        .F      MOV      r4,r0
        0x0000314e:    01c9        ..      LSLS     r1,r1,#7
        0x00003150:    1840        @.      ADDS     r0,r0,r1
        0x00003152:    9904        ..      LDR      r1,[sp,#0x10]
        0x00003154:    f7fcffda    ....    BL       __aeabi_uidiv ; 0x10c
        0x00003158:    4912        .I      LDR      r1,[pc,#72] ; [0x31a4] = 0xffff
        0x0000315a:    1e80        ..      SUBS     r0,r0,#2
        0x0000315c:    4288        .B      CMP      r0,r1
        0x0000315e:    d908        ..      BLS      0x3172 ; UART0_Init + 118
        0x00003160:    21e1        .!      MOVS     r1,#0xe1
        0x00003162:    02c9        ..      LSLS     r1,r1,#11
        0x00003164:    1860        `.      ADDS     r0,r4,r1
        0x00003166:    9904        ..      LDR      r1,[sp,#0x10]
        0x00003168:    f7fcffd0    ....    BL       __aeabi_uidiv ; 0x10c
        0x0000316c:    0900        ..      LSRS     r0,r0,#4
        0x0000316e:    1e80        ..      SUBS     r0,r0,#2
        0x00003170:    e002        ..      B        0x3178 ; UART0_Init + 124
        0x00003172:    2103        .!      MOVS     r1,#3
        0x00003174:    0709        ..      LSLS     r1,r1,#28
        0x00003176:    4308        .C      ORRS     r0,r0,r1
        0x00003178:    6268        hb      STR      r0,[r5,#0x24]
        0x0000317a:    2101        .!      MOVS     r1,#1
        0x0000317c:    4628        (F      MOV      r0,r5
        0x0000317e:    f000f957    ..W.    BL       UART_EnableInt ; 0x3430
        0x00003182:    200c        .       MOVS     r0,#0xc
        0x00003184:    f7fefaf4    ....    BL       NVIC_EnableIRQ ; 0x1770
        0x00003188:    f7fdfddc    ....    BL       DisableHostUartTx ; 0xd44
        0x0000318c:    b005        ..      ADD      sp,sp,#0x14
        0x0000318e:    bdf0        ..      POP      {r4-r7,pc}
    $d
        0x00003190:    00003f68    h?..    DCD    16232
        0x00003194:    04000010    ....    DCD    67108880
        0x00003198:    50000200    ...P    DCD    1342177792
        0x0000319c:    40050000    ...@    DCD    1074069504
        0x000031a0:    fff0ff0f    ....    DCD    4293984015
        0x000031a4:    0000ffff    ....    DCD    65535
    $t
    i.UART1_IRQHandler
    UART1_IRQHandler
        0x000031a8:    b5f8        ..      PUSH     {r3-r7,lr}
        0x000031aa:    4836        6H      LDR      r0,[pc,#216] ; [0x3284] = 0x40150000
        0x000031ac:    69c1        .i      LDR      r1,[r0,#0x1c]
        0x000031ae:    4f36        6O      LDR      r7,[pc,#216] ; [0x3288] = 0x2000025c
        0x000031b0:    05c9        ..      LSLS     r1,r1,#23
        0x000031b2:    2400        .$      MOVS     r4,#0
        0x000031b4:    4a35        5J      LDR      r2,[pc,#212] ; [0x328c] = 0x2000000c
        0x000031b6:    2900        .)      CMP      r1,#0
        0x000031b8:    db38        8.      BLT      0x322c ; UART1_IRQHandler + 132
        0x000031ba:    e03a        :.      B        0x3232 ; UART1_IRQHandler + 138
        0x000031bc:    6803        .h      LDR      r3,[r0,#0]
        0x000031be:    7911        .y      LDRB     r1,[r2,#4]
        0x000031c0:    547b        {T      STRB     r3,[r7,r1]
        0x000031c2:    1c49        I.      ADDS     r1,r1,#1
        0x000031c4:    b2cb        ..      UXTB     r3,r1
        0x000031c6:    7113        .q      STRB     r3,[r2,#4]
        0x000031c8:    7991        .y      LDRB     r1,[r2,#6]
        0x000031ca:    1c49        I.      ADDS     r1,r1,#1
        0x000031cc:    b2c9        ..      UXTB     r1,r1
        0x000031ce:    7191        .q      STRB     r1,[r2,#6]
        0x000031d0:    2b38        8+      CMP      r3,#0x38
        0x000031d2:    d300        ..      BCC      0x31d6 ; UART1_IRQHandler + 46
        0x000031d4:    7114        .q      STRB     r4,[r2,#4]
        0x000031d6:    783b        ;x      LDRB     r3,[r7,#0]
        0x000031d8:    2b55        U+      CMP      r3,#0x55
        0x000031da:    d003        ..      BEQ      0x31e4 ; UART1_IRQHandler + 60
        0x000031dc:    7114        .q      STRB     r4,[r2,#4]
        0x000031de:    7194        .q      STRB     r4,[r2,#6]
        0x000031e0:    7154        Tq      STRB     r4,[r2,#5]
        0x000031e2:    e023        #.      B        0x322c ; UART1_IRQHandler + 132
        0x000031e4:    2938        8)      CMP      r1,#0x38
        0x000031e6:    d321        !.      BCC      0x322c ; UART1_IRQHandler + 132
        0x000031e8:    4927        'I      LDR      r1,[pc,#156] ; [0x3288] = 0x2000025c
        0x000031ea:    3120         1      ADDS     r1,r1,#0x20
        0x000031ec:    7dc9        .}      LDRB     r1,[r1,#0x17]
        0x000031ee:    290a        .)      CMP      r1,#0xa
        0x000031f0:    d003        ..      BEQ      0x31fa ; UART1_IRQHandler + 82
        0x000031f2:    7114        .q      STRB     r4,[r2,#4]
        0x000031f4:    7194        .q      STRB     r4,[r2,#6]
        0x000031f6:    7154        Tq      STRB     r4,[r2,#5]
        0x000031f8:    bdf8        ..      POP      {r3-r7,pc}
        0x000031fa:    4d25        %M      LDR      r5,[pc,#148] ; [0x3290] = 0x2000013c
        0x000031fc:    2100        .!      MOVS     r1,#0
        0x000031fe:    7953        Sy      LDRB     r3,[r2,#5]
        0x00003200:    5cfe        .\      LDRB     r6,[r7,r3]
        0x00003202:    546e        nT      STRB     r6,[r5,r1]
        0x00003204:    7996        .y      LDRB     r6,[r2,#6]
        0x00003206:    1c5b        [.      ADDS     r3,r3,#1
        0x00003208:    1e76        v.      SUBS     r6,r6,#1
        0x0000320a:    b2db        ..      UXTB     r3,r3
        0x0000320c:    7196        .q      STRB     r6,[r2,#6]
        0x0000320e:    7153        Sq      STRB     r3,[r2,#5]
        0x00003210:    2b38        8+      CMP      r3,#0x38
        0x00003212:    d300        ..      BCC      0x3216 ; UART1_IRQHandler + 110
        0x00003214:    7154        Tq      STRB     r4,[r2,#5]
        0x00003216:    1c49        I.      ADDS     r1,r1,#1
        0x00003218:    b2c9        ..      UXTB     r1,r1
        0x0000321a:    2938        8)      CMP      r1,#0x38
        0x0000321c:    d3ef        ..      BCC      0x31fe ; UART1_IRQHandler + 86
        0x0000321e:    7114        .q      STRB     r4,[r2,#4]
        0x00003220:    4b1a        .K      LDR      r3,[pc,#104] ; [0x328c] = 0x2000000c
        0x00003222:    7194        .q      STRB     r4,[r2,#6]
        0x00003224:    2101        .!      MOVS     r1,#1
        0x00003226:    7154        Tq      STRB     r4,[r2,#5]
        0x00003228:    3320         3      ADDS     r3,r3,#0x20
        0x0000322a:    7159        Yq      STRB     r1,[r3,#5]
        0x0000322c:    69c1        .i      LDR      r1,[r0,#0x1c]
        0x0000322e:    07c9        ..      LSLS     r1,r1,#31
        0x00003230:    d1c4        ..      BNE      0x31bc ; UART1_IRQHandler + 20
        0x00003232:    4605        .F      MOV      r5,r0
        0x00003234:    69c0        .i      LDR      r0,[r0,#0x1c]
        0x00003236:    0580        ..      LSLS     r0,r0,#22
        0x00003238:    d5de        ..      BPL      0x31f8 ; UART1_IRQHandler + 80
        0x0000323a:    7b13        .{      LDRB     r3,[r2,#0xc]
        0x0000323c:    2b00        .+      CMP      r3,#0
        0x0000323e:    d010        ..      BEQ      0x3262 ; UART1_IRQHandler + 186
        0x00003240:    69a9        .i      LDR      r1,[r5,#0x18]
        0x00003242:    0208        ..      LSLS     r0,r1,#8
        0x00003244:    d4fc        ..      BMI      0x3240 ; UART1_IRQHandler + 152
        0x00003246:    4910        .I      LDR      r1,[pc,#64] ; [0x3288] = 0x2000025c
        0x00003248:    7ad0        .z      LDRB     r0,[r2,#0xb]
        0x0000324a:    3938        89      SUBS     r1,r1,#0x38
        0x0000324c:    5c09        .\      LDRB     r1,[r1,r0]
        0x0000324e:    6029        )`      STR      r1,[r5,#0]
        0x00003250:    1e5b        [.      SUBS     r3,r3,#1
        0x00003252:    1c40        @.      ADDS     r0,r0,#1
        0x00003254:    b2c0        ..      UXTB     r0,r0
        0x00003256:    7313        .s      STRB     r3,[r2,#0xc]
        0x00003258:    72d0        .r      STRB     r0,[r2,#0xb]
        0x0000325a:    2838        8(      CMP      r0,#0x38
        0x0000325c:    d3cc        ..      BCC      0x31f8 ; UART1_IRQHandler + 80
        0x0000325e:    72d4        .r      STRB     r4,[r2,#0xb]
        0x00003260:    bdf8        ..      POP      {r3-r7,pc}
        0x00003262:    2102        .!      MOVS     r1,#2
        0x00003264:    4628        (F      MOV      r0,r5
        0x00003266:    f000f8cb    ....    BL       UART_DisableInt ; 0x3400
        0x0000326a:    2101        .!      MOVS     r1,#1
        0x0000326c:    4628        (F      MOV      r0,r5
        0x0000326e:    f000f8df    ....    BL       UART_EnableInt ; 0x3430
        0x00003272:    200d        .       MOVS     r0,#0xd
        0x00003274:    f7fefa7c    ..|.    BL       NVIC_EnableIRQ ; 0x1770
        0x00003278:    4804        .H      LDR      r0,[pc,#16] ; [0x328c] = 0x2000000c
        0x0000327a:    3040        @0      ADDS     r0,r0,#0x40
        0x0000327c:    8344        D.      STRH     r4,[r0,#0x1a]
        0x0000327e:    2101        .!      MOVS     r1,#1
        0x00003280:    7141        Aq      STRB     r1,[r0,#5]
        0x00003282:    bdf8        ..      POP      {r3-r7,pc}
    $d
        0x00003284:    40150000    ...@    DCD    1075118080
        0x00003288:    2000025c    \..     DCD    536871516
        0x0000328c:    2000000c    ...     DCD    536870924
        0x00003290:    2000013c    <..     DCD    536871228
    $t
    i.UART1_Init
    UART1_Init
        0x00003294:    b5f0        ..      PUSH     {r4-r7,lr}
        0x00003296:    4827        'H      LDR      r0,[pc,#156] ; [0x3334] = 0x3f78
        0x00003298:    b085        ..      SUB      sp,sp,#0x14
        0x0000329a:    c80f        ..      LDM      r0,{r0-r3}
        0x0000329c:    466c        lF      MOV      r4,sp
        0x0000329e:    c40f        ..      STM      r4!,{r0-r3}
        0x000032a0:    20e1        .       MOVS     r0,#0xe1
        0x000032a2:    0200        ..      LSLS     r0,r0,#8
        0x000032a4:    9004        ..      STR      r0,[sp,#0x10]
        0x000032a6:    4824        $H      LDR      r0,[pc,#144] ; [0x3338] = 0x4000011
        0x000032a8:    f7feff8e    ....    BL       SYS_ResetModule ; 0x21c8
        0x000032ac:    4823        #H      LDR      r0,[pc,#140] ; [0x333c] = 0x50000200
        0x000032ae:    6941        Ai      LDR      r1,[r0,#0x14]
        0x000032b0:    6980        .i      LDR      r0,[r0,#0x18]
        0x000032b2:    018a        ..      LSLS     r2,r1,#6
        0x000032b4:    2103        .!      MOVS     r1,#3
        0x000032b6:    0f95        ..      LSRS     r5,r2,#30
        0x000032b8:    4c21        !L      LDR      r4,[pc,#132] ; [0x3340] = 0x40150000
        0x000032ba:    0500        ..      LSLS     r0,r0,#20
        0x000032bc:    0f06        ..      LSRS     r6,r0,#28
        0x000032be:    6321        !c      STR      r1,[r4,#0x30]
        0x000032c0:    2001        .       MOVS     r0,#1
        0x000032c2:    0280        ..      LSLS     r0,r0,#10
        0x000032c4:    62e0        .b      STR      r0,[r4,#0x2c]
        0x000032c6:    6920         i      LDR      r0,[r4,#0x10]
        0x000032c8:    1562        b.      ASRS     r2,r4,#21
        0x000032ca:    4390        .C      BICS     r0,r0,r2
        0x000032cc:    6120         a      STR      r0,[r4,#0x10]
        0x000032ce:    2000        .       MOVS     r0,#0
        0x000032d0:    6220         b      STR      r0,[r4,#0x20]
        0x000032d2:    60e1        .`      STR      r1,[r4,#0xc]
        0x000032d4:    68a0        .h      LDR      r0,[r4,#8]
        0x000032d6:    491b        .I      LDR      r1,[pc,#108] ; [0x3344] = 0xfff0ff0f
        0x000032d8:    4008        .@      ANDS     r0,r0,r1
        0x000032da:    60a0        .`      STR      r0,[r4,#8]
        0x000032dc:    466f        oF      MOV      r7,sp
        0x000032de:    2d01        .-      CMP      r5,#1
        0x000032e0:    d102        ..      BNE      0x32e8 ; UART1_Init + 84
        0x000032e2:    f7fdf977    ..w.    BL       CLK_GetPLLClockFreq ; 0x5d4
        0x000032e6:    9001        ..      STR      r0,[sp,#4]
        0x000032e8:    00a8        ..      LSLS     r0,r5,#2
        0x000032ea:    5838        8X      LDR      r0,[r7,r0]
        0x000032ec:    1c71        q.      ADDS     r1,r6,#1
        0x000032ee:    f7fcff0d    ....    BL       __aeabi_uidiv ; 0x10c
        0x000032f2:    21e1        .!      MOVS     r1,#0xe1
        0x000032f4:    4605        .F      MOV      r5,r0
        0x000032f6:    01c9        ..      LSLS     r1,r1,#7
        0x000032f8:    1840        @.      ADDS     r0,r0,r1
        0x000032fa:    9904        ..      LDR      r1,[sp,#0x10]
        0x000032fc:    f7fcff06    ....    BL       __aeabi_uidiv ; 0x10c
        0x00003300:    4911        .I      LDR      r1,[pc,#68] ; [0x3348] = 0xffff
        0x00003302:    1e80        ..      SUBS     r0,r0,#2
        0x00003304:    4288        .B      CMP      r0,r1
        0x00003306:    d908        ..      BLS      0x331a ; UART1_Init + 134
        0x00003308:    21e1        .!      MOVS     r1,#0xe1
        0x0000330a:    02c9        ..      LSLS     r1,r1,#11
        0x0000330c:    1868        h.      ADDS     r0,r5,r1
        0x0000330e:    9904        ..      LDR      r1,[sp,#0x10]
        0x00003310:    f7fcfefc    ....    BL       __aeabi_uidiv ; 0x10c
        0x00003314:    0900        ..      LSRS     r0,r0,#4
        0x00003316:    1e80        ..      SUBS     r0,r0,#2
        0x00003318:    e002        ..      B        0x3320 ; UART1_Init + 140
        0x0000331a:    2103        .!      MOVS     r1,#3
        0x0000331c:    0709        ..      LSLS     r1,r1,#28
        0x0000331e:    4308        .C      ORRS     r0,r0,r1
        0x00003320:    6260        `b      STR      r0,[r4,#0x24]
        0x00003322:    2101        .!      MOVS     r1,#1
        0x00003324:    4620         F      MOV      r0,r4
        0x00003326:    f000f883    ....    BL       UART_EnableInt ; 0x3430
        0x0000332a:    200d        .       MOVS     r0,#0xd
        0x0000332c:    f7fefa20    .. .    BL       NVIC_EnableIRQ ; 0x1770
        0x00003330:    b005        ..      ADD      sp,sp,#0x14
        0x00003332:    bdf0        ..      POP      {r4-r7,pc}
    $d
        0x00003334:    00003f78    x?..    DCD    16248
        0x00003338:    04000011    ....    DCD    67108881
        0x0000333c:    50000200    ...P    DCD    1342177792
        0x00003340:    40150000    ...@    DCD    1075118080
        0x00003344:    fff0ff0f    ....    DCD    4293984015
        0x00003348:    0000ffff    ....    DCD    65535
    $t
    i.UART2_Init
    UART2_Init
        0x0000334c:    b5f0        ..      PUSH     {r4-r7,lr}
        0x0000334e:    4605        .F      MOV      r5,r0
        0x00003350:    4825        %H      LDR      r0,[pc,#148] ; [0x33e8] = 0x3f88
        0x00003352:    b085        ..      SUB      sp,sp,#0x14
        0x00003354:    c80f        ..      LDM      r0,{r0-r3}
        0x00003356:    466c        lF      MOV      r4,sp
        0x00003358:    c40f        ..      STM      r4!,{r0-r3}
        0x0000335a:    4824        $H      LDR      r0,[pc,#144] ; [0x33ec] = 0x4000012
        0x0000335c:    f7feff34    ..4.    BL       SYS_ResetModule ; 0x21c8
        0x00003360:    4923        #I      LDR      r1,[pc,#140] ; [0x33f0] = 0x50000200
        0x00003362:    6948        Hi      LDR      r0,[r1,#0x14]
        0x00003364:    6989        .i      LDR      r1,[r1,#0x18]
        0x00003366:    0182        ..      LSLS     r2,r0,#6
        0x00003368:    2003        .       MOVS     r0,#3
        0x0000336a:    0f96        ..      LSRS     r6,r2,#30
        0x0000336c:    4c21        !L      LDR      r4,[pc,#132] ; [0x33f4] = 0x40154000
        0x0000336e:    0509        ..      LSLS     r1,r1,#20
        0x00003370:    0f0f        ..      LSRS     r7,r1,#28
        0x00003372:    6320         c      STR      r0,[r4,#0x30]
        0x00003374:    2101        .!      MOVS     r1,#1
        0x00003376:    0289        ..      LSLS     r1,r1,#10
        0x00003378:    62e1        .b      STR      r1,[r4,#0x2c]
        0x0000337a:    6921        !i      LDR      r1,[r4,#0x10]
        0x0000337c:    1562        b.      ASRS     r2,r4,#21
        0x0000337e:    4391        .C      BICS     r1,r1,r2
        0x00003380:    6121        !a      STR      r1,[r4,#0x10]
        0x00003382:    2100        .!      MOVS     r1,#0
        0x00003384:    6221        !b      STR      r1,[r4,#0x20]
        0x00003386:    60e0        .`      STR      r0,[r4,#0xc]
        0x00003388:    68a0        .h      LDR      r0,[r4,#8]
        0x0000338a:    491b        .I      LDR      r1,[pc,#108] ; [0x33f8] = 0xfff0ff0f
        0x0000338c:    4008        .@      ANDS     r0,r0,r1
        0x0000338e:    60a0        .`      STR      r0,[r4,#8]
        0x00003390:    2e01        ..      CMP      r6,#1
        0x00003392:    d102        ..      BNE      0x339a ; UART2_Init + 78
        0x00003394:    f7fdf91e    ....    BL       CLK_GetPLLClockFreq ; 0x5d4
        0x00003398:    9001        ..      STR      r0,[sp,#4]
        0x0000339a:    2d00        .-      CMP      r5,#0
        0x0000339c:    d01b        ..      BEQ      0x33d6 ; UART2_Init + 138
        0x0000339e:    00b1        ..      LSLS     r1,r6,#2
        0x000033a0:    4668        hF      MOV      r0,sp
        0x000033a2:    5840        @X      LDR      r0,[r0,r1]
        0x000033a4:    1c79        y.      ADDS     r1,r7,#1
        0x000033a6:    f7fcfeb1    ....    BL       __aeabi_uidiv ; 0x10c
        0x000033aa:    4606        .F      MOV      r6,r0
        0x000033ac:    0869        i.      LSRS     r1,r5,#1
        0x000033ae:    1840        @.      ADDS     r0,r0,r1
        0x000033b0:    4629        )F      MOV      r1,r5
        0x000033b2:    f7fcfeab    ....    BL       __aeabi_uidiv ; 0x10c
        0x000033b6:    4911        .I      LDR      r1,[pc,#68] ; [0x33fc] = 0xffff
        0x000033b8:    1e80        ..      SUBS     r0,r0,#2
        0x000033ba:    4288        .B      CMP      r0,r1
        0x000033bc:    d907        ..      BLS      0x33ce ; UART2_Init + 130
        0x000033be:    00e9        ..      LSLS     r1,r5,#3
        0x000033c0:    1870        p.      ADDS     r0,r6,r1
        0x000033c2:    4629        )F      MOV      r1,r5
        0x000033c4:    f7fcfea2    ....    BL       __aeabi_uidiv ; 0x10c
        0x000033c8:    0900        ..      LSRS     r0,r0,#4
        0x000033ca:    1e80        ..      SUBS     r0,r0,#2
        0x000033cc:    e002        ..      B        0x33d4 ; UART2_Init + 136
        0x000033ce:    2103        .!      MOVS     r1,#3
        0x000033d0:    0709        ..      LSLS     r1,r1,#28
        0x000033d2:    4308        .C      ORRS     r0,r0,r1
        0x000033d4:    6260        `b      STR      r0,[r4,#0x24]
        0x000033d6:    2101        .!      MOVS     r1,#1
        0x000033d8:    4620         F      MOV      r0,r4
        0x000033da:    f000f829    ..).    BL       UART_EnableInt ; 0x3430
        0x000033de:    200c        .       MOVS     r0,#0xc
        0x000033e0:    f7fef9c6    ....    BL       NVIC_EnableIRQ ; 0x1770
        0x000033e4:    b005        ..      ADD      sp,sp,#0x14
        0x000033e6:    bdf0        ..      POP      {r4-r7,pc}
    $d
        0x000033e8:    00003f88    .?..    DCD    16264
        0x000033ec:    04000012    ....    DCD    67108882
        0x000033f0:    50000200    ...P    DCD    1342177792
        0x000033f4:    40154000    .@.@    DCD    1075134464
        0x000033f8:    fff0ff0f    ....    DCD    4293984015
        0x000033fc:    0000ffff    ....    DCD    65535
    $t
    i.UART_DisableInt
    UART_DisableInt
        0x00003400:    6842        Bh      LDR      r2,[r0,#4]
        0x00003402:    438a        .C      BICS     r2,r2,r1
        0x00003404:    6042        B`      STR      r2,[r0,#4]
        0x00003406:    4b07        .K      LDR      r3,[pc,#28] ; [0x3424] = 0x40050000
        0x00003408:    2201        ."      MOVS     r2,#1
        0x0000340a:    0312        ..      LSLS     r2,r2,#12
        0x0000340c:    4906        .I      LDR      r1,[pc,#24] ; [0x3428] = 0xe000e180
        0x0000340e:    4298        .B      CMP      r0,r3
        0x00003410:    d101        ..      BNE      0x3416 ; UART_DisableInt + 22
        0x00003412:    600a        .`      STR      r2,[r1,#0]
        0x00003414:    4770        pG      BX       lr
        0x00003416:    4b05        .K      LDR      r3,[pc,#20] ; [0x342c] = 0x40150000
        0x00003418:    4298        .B      CMP      r0,r3
        0x0000341a:    d1fa        ..      BNE      0x3412 ; UART_DisableInt + 18
        0x0000341c:    2001        .       MOVS     r0,#1
        0x0000341e:    0340        @.      LSLS     r0,r0,#13
        0x00003420:    6008        .`      STR      r0,[r1,#0]
        0x00003422:    4770        pG      BX       lr
    $d
        0x00003424:    40050000    ...@    DCD    1074069504
        0x00003428:    e000e180    ....    DCD    3758154112
        0x0000342c:    40150000    ...@    DCD    1075118080
    $t
    i.UART_EnableInt
    UART_EnableInt
        0x00003430:    6842        Bh      LDR      r2,[r0,#4]
        0x00003432:    430a        .C      ORRS     r2,r2,r1
        0x00003434:    6042        B`      STR      r2,[r0,#4]
        0x00003436:    4b07        .K      LDR      r3,[pc,#28] ; [0x3454] = 0x40050000
        0x00003438:    2201        ."      MOVS     r2,#1
        0x0000343a:    0312        ..      LSLS     r2,r2,#12
        0x0000343c:    4906        .I      LDR      r1,[pc,#24] ; [0x3458] = 0xe000e100
        0x0000343e:    4298        .B      CMP      r0,r3
        0x00003440:    d101        ..      BNE      0x3446 ; UART_EnableInt + 22
        0x00003442:    600a        .`      STR      r2,[r1,#0]
        0x00003444:    4770        pG      BX       lr
        0x00003446:    4b05        .K      LDR      r3,[pc,#20] ; [0x345c] = 0x40150000
        0x00003448:    4298        .B      CMP      r0,r3
        0x0000344a:    d1fa        ..      BNE      0x3442 ; UART_EnableInt + 18
        0x0000344c:    2001        .       MOVS     r0,#1
        0x0000344e:    0340        @.      LSLS     r0,r0,#13
        0x00003450:    6008        .`      STR      r0,[r1,#0]
        0x00003452:    4770        pG      BX       lr
    $d
        0x00003454:    40050000    ...@    DCD    1074069504
        0x00003458:    e000e100    ....    DCD    3758153984
        0x0000345c:    40150000    ...@    DCD    1075118080
    $t
    i.UserBalanceCal
    UserBalanceCal
        0x00003460:    b5f8        ..      PUSH     {r3-r7,lr}
        0x00003462:    4c34        4L      LDR      r4,[pc,#208] ; [0x3534] = 0x200002d4
        0x00003464:    7860        `x      LDRB     r0,[r4,#1]
        0x00003466:    2802        .(      CMP      r0,#2
        0x00003468:    d14b        K.      BNE      0x3502 ; UserBalanceCal + 162
        0x0000346a:    7d20         }      LDRB     r0,[r4,#0x14]
        0x0000346c:    0141        A.      LSLS     r1,r0,#5
        0x0000346e:    1909        ..      ADDS     r1,r1,r4
        0x00003470:    6b09        .k      LDR      r1,[r1,#0x30]
        0x00003472:    2900        .)      CMP      r1,#0
        0x00003474:    d101        ..      BNE      0x347a ; UserBalanceCal + 26
        0x00003476:    f7fffb3f    ..?.    BL       SetStartInfor ; 0x2af8
        0x0000347a:    68e1        .h      LDR      r1,[r4,#0xc]
        0x0000347c:    6920         i      LDR      r0,[r4,#0x10]
        0x0000347e:    4281        .B      CMP      r1,r0
        0x00003480:    d301        ..      BCC      0x3486 ; UserBalanceCal + 38
        0x00003482:    1a0d        ..      SUBS     r5,r1,r0
        0x00003484:    e002        ..      B        0x348c ; UserBalanceCal + 44
        0x00003486:    4a2c        ,J      LDR      r2,[pc,#176] ; [0x3538] = 0x5f5e100
        0x00003488:    1a12        ..      SUBS     r2,r2,r0
        0x0000348a:    1855        U.      ADDS     r5,r2,r1
        0x0000348c:    4b2b        +K      LDR      r3,[pc,#172] ; [0x353c] = 0x2000000c
        0x0000348e:    2101        .!      MOVS     r1,#1
        0x00003490:    2200        ."      MOVS     r2,#0
        0x00003492:    2d0a        .-      CMP      r5,#0xa
        0x00003494:    d32c        ,.      BCC      0x34f0 ; UserBalanceCal + 144
        0x00003496:    300a        .0      ADDS     r0,r0,#0xa
        0x00003498:    6120         a      STR      r0,[r4,#0x10]
        0x0000349a:    4618        .F      MOV      r0,r3
        0x0000349c:    7f45        E.      LDRB     r5,[r0,#0x1d]
        0x0000349e:    2610        .&      MOVS     r6,#0x10
        0x000034a0:    430d        .C      ORRS     r5,r5,r1
        0x000034a2:    7745        Ew      STRB     r5,[r0,#0x1d]
        0x000034a4:    7ec3        .~      LDRB     r3,[r0,#0x1b]
        0x000034a6:    270a        .'      MOVS     r7,#0xa
        0x000034a8:    430b        .C      ORRS     r3,r3,r1
        0x000034aa:    76c3        .v      STRB     r3,[r0,#0x1b]
        0x000034ac:    4824        $H      LDR      r0,[pc,#144] ; [0x3540] = 0x200004d4
        0x000034ae:    7e41        A~      LDRB     r1,[r0,#0x19]
        0x000034b0:    4331        1C      ORRS     r1,r1,r6
        0x000034b2:    7641        Av      STRB     r1,[r0,#0x19]
        0x000034b4:    7d20         }      LDRB     r0,[r4,#0x14]
        0x000034b6:    79a6        .y      LDRB     r6,[r4,#6]
        0x000034b8:    0140        @.      LSLS     r0,r0,#5
        0x000034ba:    1900        ..      ADDS     r0,r0,r4
        0x000034bc:    6a41        Aj      LDR      r1,[r0,#0x24]
        0x000034be:    437e        ~C      MULS     r6,r7,r6
        0x000034c0:    42b1        .B      CMP      r1,r6
        0x000034c2:    d801        ..      BHI      0x34c8 ; UserBalanceCal + 104
        0x000034c4:    6242        Bb      STR      r2,[r0,#0x24]
        0x000034c6:    e002        ..      B        0x34ce ; UserBalanceCal + 110
        0x000034c8:    1b89        ..      SUBS     r1,r1,r6
        0x000034ca:    6241        Ab      STR      r1,[r0,#0x24]
        0x000034cc:    d119        ..      BNE      0x3502 ; UserBalanceCal + 162
        0x000034ce:    2001        .       MOVS     r0,#1
        0x000034d0:    7060        `p      STRB     r0,[r4,#1]
        0x000034d2:    2002        .       MOVS     r0,#2
        0x000034d4:    4919        .I      LDR      r1,[pc,#100] ; [0x353c] = 0x2000000c
        0x000034d6:    70a2        .p      STRB     r2,[r4,#2]
        0x000034d8:    4305        .C      ORRS     r5,r5,r0
        0x000034da:    774d        Mw      STRB     r5,[r1,#0x1d]
        0x000034dc:    4303        .C      ORRS     r3,r3,r0
        0x000034de:    76cb        .v      STRB     r3,[r1,#0x1b]
        0x000034e0:    7d20         }      LDRB     r0,[r4,#0x14]
        0x000034e2:    0140        @.      LSLS     r0,r0,#5
        0x000034e4:    1900        ..      ADDS     r0,r0,r4
        0x000034e6:    7e01        .~      LDRB     r1,[r0,#0x18]
        0x000034e8:    0849        I.      LSRS     r1,r1,#1
        0x000034ea:    0049        I.      LSLS     r1,r1,#1
        0x000034ec:    7601        .v      STRB     r1,[r0,#0x18]
        0x000034ee:    e01d        ..      B        0x352c ; UserBalanceCal + 204
        0x000034f0:    7d20         }      LDRB     r0,[r4,#0x14]
        0x000034f2:    0140        @.      LSLS     r0,r0,#5
        0x000034f4:    1905        ..      ADDS     r5,r0,r4
        0x000034f6:    4811        .H      LDR      r0,[pc,#68] ; [0x353c] = 0x2000000c
        0x000034f8:    6a6e        nj      LDR      r6,[r5,#0x24]
        0x000034fa:    3040        @0      ADDS     r0,r0,#0x40
        0x000034fc:    2e00        ..      CMP      r6,#0
        0x000034fe:    d001        ..      BEQ      0x3504 ; UserBalanceCal + 164
        0x00003500:    7082        .p      STRB     r2,[r0,#2]
        0x00003502:    bdf8        ..      POP      {r3-r7,pc}
        0x00003504:    7886        .x      LDRB     r6,[r0,#2]
        0x00003506:    1c76        v.      ADDS     r6,r6,#1
        0x00003508:    b2f6        ..      UXTB     r6,r6
        0x0000350a:    7086        .p      STRB     r6,[r0,#2]
        0x0000350c:    2e03        ..      CMP      r6,#3
        0x0000350e:    d9f8        ..      BLS      0x3502 ; UserBalanceCal + 162
        0x00003510:    7082        .p      STRB     r2,[r0,#2]
        0x00003512:    7061        ap      STRB     r1,[r4,#1]
        0x00003514:    70a2        .p      STRB     r2,[r4,#2]
        0x00003516:    7f59        Y.      LDRB     r1,[r3,#0x1d]
        0x00003518:    2002        .       MOVS     r0,#2
        0x0000351a:    4301        .C      ORRS     r1,r1,r0
        0x0000351c:    7759        Yw      STRB     r1,[r3,#0x1d]
        0x0000351e:    7ed9        .~      LDRB     r1,[r3,#0x1b]
        0x00003520:    4301        .C      ORRS     r1,r1,r0
        0x00003522:    76d9        .v      STRB     r1,[r3,#0x1b]
        0x00003524:    7e28        (~      LDRB     r0,[r5,#0x18]
        0x00003526:    0840        @.      LSRS     r0,r0,#1
        0x00003528:    0040        @.      LSLS     r0,r0,#1
        0x0000352a:    7628        (v      STRB     r0,[r5,#0x18]
        0x0000352c:    7d20         }      LDRB     r0,[r4,#0x14]
        0x0000352e:    f7fef929    ..).    BL       PowerRCD_AddNew ; 0x1784
        0x00003532:    bdf8        ..      POP      {r3-r7,pc}
    $d
        0x00003534:    200002d4    ...     DCD    536871636
        0x00003538:    05f5e100    ....    DCD    100000000
        0x0000353c:    2000000c    ...     DCD    536870924
        0x00003540:    200004d4    ...     DCD    536872148
    $t
    i.UserCGRModeExit
    UserCGRModeExit
        0x00003544:    b5f8        ..      PUSH     {r3-r7,lr}
        0x00003546:    7801        .x      LDRB     r1,[r0,#0]
        0x00003548:    2900        .)      CMP      r1,#0
        0x0000354a:    d108        ..      BNE      0x355e ; UserCGRModeExit + 26
        0x0000354c:    7841        Ax      LDRB     r1,[r0,#1]
        0x0000354e:    2900        .)      CMP      r1,#0
        0x00003550:    d105        ..      BNE      0x355e ; UserCGRModeExit + 26
        0x00003552:    7881        .x      LDRB     r1,[r0,#2]
        0x00003554:    2900        .)      CMP      r1,#0
        0x00003556:    d102        ..      BNE      0x355e ; UserCGRModeExit + 26
        0x00003558:    78c1        .x      LDRB     r1,[r0,#3]
        0x0000355a:    2900        .)      CMP      r1,#0
        0x0000355c:    d019        ..      BEQ      0x3592 ; UserCGRModeExit + 78
        0x0000355e:    f7fdfaad    ....    BL       CheckUserValue ; 0xabc
        0x00003562:    28ff        .(      CMP      r0,#0xff
        0x00003564:    d015        ..      BEQ      0x3592 ; UserCGRModeExit + 78
        0x00003566:    4b25        %K      LDR      r3,[pc,#148] ; [0x35fc] = 0x200002d4
        0x00003568:    0141        A.      LSLS     r1,r0,#5
        0x0000356a:    18c9        ..      ADDS     r1,r1,r3
        0x0000356c:    7e09        .~      LDRB     r1,[r1,#0x18]
        0x0000356e:    4c24        $L      LDR      r4,[pc,#144] ; [0x3600] = 0x20000029
        0x00003570:    0609        ..      LSLS     r1,r1,#24
        0x00003572:    2602        .&      MOVS     r6,#2
        0x00003574:    4d23        #M      LDR      r5,[pc,#140] ; [0x3604] = 0x20000027
        0x00003576:    2900        .)      CMP      r1,#0
        0x00003578:    da0c        ..      BGE      0x3594 ; UserCGRModeExit + 80
        0x0000357a:    7858        Xx      LDRB     r0,[r3,#1]
        0x0000357c:    2805        .(      CMP      r0,#5
        0x0000357e:    d108        ..      BNE      0x3592 ; UserCGRModeExit + 78
        0x00003580:    4821        !H      LDR      r0,[pc,#132] ; [0x3608] = 0x20000091
        0x00003582:    7800        .x      LDRB     r0,[r0,#0]
        0x00003584:    7058        Xp      STRB     r0,[r3,#1]
        0x00003586:    7820         x      LDRB     r0,[r4,#0]
        0x00003588:    4330        0C      ORRS     r0,r0,r6
        0x0000358a:    7020         p      STRB     r0,[r4,#0]
        0x0000358c:    7828        (x      LDRB     r0,[r5,#0]
        0x0000358e:    4330        0C      ORRS     r0,r0,r6
        0x00003590:    7028        (p      STRB     r0,[r5,#0]
        0x00003592:    bdf8        ..      POP      {r3-r7,pc}
        0x00003594:    7859        Yx      LDRB     r1,[r3,#1]
        0x00003596:    2902        .)      CMP      r1,#2
        0x00003598:    d1fb        ..      BNE      0x3592 ; UserCGRModeExit + 78
        0x0000359a:    2100        .!      MOVS     r1,#0
        0x0000359c:    e007        ..      B        0x35ae ; UserCGRModeExit + 106
        0x0000359e:    014a        J.      LSLS     r2,r1,#5
        0x000035a0:    18d2        ..      ADDS     r2,r2,r3
        0x000035a2:    7e17        .~      LDRB     r7,[r2,#0x18]
        0x000035a4:    087f        ..      LSRS     r7,r7,#1
        0x000035a6:    007f        ..      LSLS     r7,r7,#1
        0x000035a8:    1c49        I.      ADDS     r1,r1,#1
        0x000035aa:    7617        .v      STRB     r7,[r2,#0x18]
        0x000035ac:    b2c9        ..      UXTB     r1,r1
        0x000035ae:    78da        .x      LDRB     r2,[r3,#3]
        0x000035b0:    428a        .B      CMP      r2,r1
        0x000035b2:    d8f4        ..      BHI      0x359e ; UserCGRModeExit + 90
        0x000035b4:    4915        .I      LDR      r1,[pc,#84] ; [0x360c] = 0x200000c2
        0x000035b6:    2701        .'      MOVS     r7,#1
        0x000035b8:    708f        .p      STRB     r7,[r1,#2]
        0x000035ba:    4910        .I      LDR      r1,[pc,#64] ; [0x35fc] = 0x200002d4
        0x000035bc:    2200        ."      MOVS     r2,#0
        0x000035be:    708a        .p      STRB     r2,[r1,#2]
        0x000035c0:    7821        !x      LDRB     r1,[r4,#0]
        0x000035c2:    2204        ."      MOVS     r2,#4
        0x000035c4:    4311        .C      ORRS     r1,r1,r2
        0x000035c6:    7021        !p      STRB     r1,[r4,#0]
        0x000035c8:    7829        )x      LDRB     r1,[r5,#0]
        0x000035ca:    4311        .C      ORRS     r1,r1,r2
        0x000035cc:    7029        )p      STRB     r1,[r5,#0]
        0x000035ce:    f7fef8d9    ....    BL       PowerRCD_AddNew ; 0x1784
        0x000035d2:    480a        .H      LDR      r0,[pc,#40] ; [0x35fc] = 0x200002d4
        0x000035d4:    2213        ."      MOVS     r2,#0x13
        0x000035d6:    7047        Gp      STRB     r7,[r0,#1]
        0x000035d8:    7820         x      LDRB     r0,[r4,#0]
        0x000035da:    4330        0C      ORRS     r0,r0,r6
        0x000035dc:    7020         p      STRB     r0,[r4,#0]
        0x000035de:    7828        (x      LDRB     r0,[r5,#0]
        0x000035e0:    4330        0C      ORRS     r0,r0,r6
        0x000035e2:    7028        (p      STRB     r0,[r5,#0]
        0x000035e4:    480a        .H      LDR      r0,[pc,#40] ; [0x3610] = 0x200004d4
        0x000035e6:    7e41        A~      LDRB     r1,[r0,#0x19]
        0x000035e8:    4311        .C      ORRS     r1,r1,r2
        0x000035ea:    7641        Av      STRB     r1,[r0,#0x19]
        0x000035ec:    4809        .H      LDR      r0,[pc,#36] ; [0x3614] = 0x200000b7
        0x000035ee:    7006        .p      STRB     r6,[r0,#0]
        0x000035f0:    4809        .H      LDR      r0,[pc,#36] ; [0x3618] = 0x20000020
        0x000035f2:    7006        .p      STRB     r6,[r0,#0]
        0x000035f4:    f7fef926    ..&.    BL       ROOM_POWER_Off ; 0x1844
        0x000035f8:    bdf8        ..      POP      {r3-r7,pc}
    $d
        0x000035fa:    0000        ..      DCW    0
        0x000035fc:    200002d4    ...     DCD    536871636
        0x00003600:    20000029    )..     DCD    536870953
        0x00003604:    20000027    '..     DCD    536870951
        0x00003608:    20000091    ...     DCD    536871057
        0x0000360c:    200000c2    ...     DCD    536871106
        0x00003610:    200004d4    ...     DCD    536872148
        0x00003614:    200000b7    ...     DCD    536871095
        0x00003618:    20000020     ..     DCD    536870944
    $t
    i.UserCGRModeJoin
    UserCGRModeJoin
        0x0000361c:    b5f8        ..      PUSH     {r3-r7,lr}
        0x0000361e:    4605        .F      MOV      r5,r0
        0x00003620:    7800        .x      LDRB     r0,[r0,#0]
        0x00003622:    2800        .(      CMP      r0,#0
        0x00003624:    d108        ..      BNE      0x3638 ; UserCGRModeJoin + 28
        0x00003626:    7868        hx      LDRB     r0,[r5,#1]
        0x00003628:    2800        .(      CMP      r0,#0
        0x0000362a:    d105        ..      BNE      0x3638 ; UserCGRModeJoin + 28
        0x0000362c:    78a8        .x      LDRB     r0,[r5,#2]
        0x0000362e:    2800        .(      CMP      r0,#0
        0x00003630:    d102        ..      BNE      0x3638 ; UserCGRModeJoin + 28
        0x00003632:    78e8        .x      LDRB     r0,[r5,#3]
        0x00003634:    2800        .(      CMP      r0,#0
        0x00003636:    d01f        ..      BEQ      0x3678 ; UserCGRModeJoin + 92
        0x00003638:    4628        (F      MOV      r0,r5
        0x0000363a:    f7fdfa3f    ..?.    BL       CheckUserValue ; 0xabc
        0x0000363e:    4604        .F      MOV      r4,r0
        0x00003640:    28ff        .(      CMP      r0,#0xff
        0x00003642:    d019        ..      BEQ      0x3678 ; UserCGRModeJoin + 92
        0x00003644:    2c00        .,      CMP      r4,#0
        0x00003646:    d103        ..      BNE      0x3650 ; UserCGRModeJoin + 52
        0x00003648:    4628        (F      MOV      r0,r5
        0x0000364a:    f7fdfa37    ..7.    BL       CheckUserValue ; 0xabc
        0x0000364e:    4604        .F      MOV      r4,r0
        0x00003650:    4f3b        ;O      LDR      r7,[pc,#236] ; [0x3740] = 0x200002d4
        0x00003652:    0160        `.      LSLS     r0,r4,#5
        0x00003654:    19c6        ..      ADDS     r6,r0,r7
        0x00003656:    7e30        0~      LDRB     r0,[r6,#0x18]
        0x00003658:    493b        ;I      LDR      r1,[pc,#236] ; [0x3748] = 0x20000027
        0x0000365a:    0602        ..      LSLS     r2,r0,#24
        0x0000365c:    4839        9H      LDR      r0,[pc,#228] ; [0x3744] = 0x20000029
        0x0000365e:    787a        zx      LDRB     r2,[r7,#1]
        0x00003660:    d50b        ..      BPL      0x367a ; UserCGRModeJoin + 94
        0x00003662:    4b3a        :K      LDR      r3,[pc,#232] ; [0x374c] = 0x20000091
        0x00003664:    701a        .p      STRB     r2,[r3,#0]
        0x00003666:    2205        ."      MOVS     r2,#5
        0x00003668:    707a        zp      STRB     r2,[r7,#1]
        0x0000366a:    7802        .x      LDRB     r2,[r0,#0]
        0x0000366c:    2302        .#      MOVS     r3,#2
        0x0000366e:    431a        .C      ORRS     r2,r2,r3
        0x00003670:    7002        .p      STRB     r2,[r0,#0]
        0x00003672:    7808        .x      LDRB     r0,[r1,#0]
        0x00003674:    4318        .C      ORRS     r0,r0,r3
        0x00003676:    7008        .p      STRB     r0,[r1,#0]
        0x00003678:    bdf8        ..      POP      {r3-r7,pc}
        0x0000367a:    4d35        5M      LDR      r5,[pc,#212] ; [0x3750] = 0x200004d4
        0x0000367c:    2a02        .*      CMP      r2,#2
        0x0000367e:    d015        ..      BEQ      0x36ac ; UserCGRModeJoin + 144
        0x00003680:    6a72        rj      LDR      r2,[r6,#0x24]
        0x00003682:    2a00        .*      CMP      r2,#0
        0x00003684:    d0f8        ..      BEQ      0x3678 ; UserCGRModeJoin + 92
        0x00003686:    4b30        0K      LDR      r3,[pc,#192] ; [0x3748] = 0x20000027
        0x00003688:    2204        ."      MOVS     r2,#4
        0x0000368a:    7819        .x      LDRB     r1,[r3,#0]
        0x0000368c:    482d        -H      LDR      r0,[pc,#180] ; [0x3744] = 0x20000029
        0x0000368e:    4311        .C      ORRS     r1,r1,r2
        0x00003690:    7019        .p      STRB     r1,[r3,#0]
        0x00003692:    7801        .x      LDRB     r1,[r0,#0]
        0x00003694:    4311        .C      ORRS     r1,r1,r2
        0x00003696:    7001        .p      STRB     r1,[r0,#0]
        0x00003698:    753c        <u      STRB     r4,[r7,#0x14]
        0x0000369a:    4620         F      MOV      r0,r4
        0x0000369c:    f7fefb98    ....    BL       RecordJoinCGR ; 0x1dd0
        0x000036a0:    2601        .&      MOVS     r6,#1
        0x000036a2:    70be        .p      STRB     r6,[r7,#2]
        0x000036a4:    7878        xx      LDRB     r0,[r7,#1]
        0x000036a6:    2801        .(      CMP      r0,#1
        0x000036a8:    d02f        /.      BEQ      0x370a ; UserCGRModeJoin + 238
        0x000036aa:    e041        A.      B        0x3730 ; UserCGRModeJoin + 276
        0x000036ac:    7d3a        :}      LDRB     r2,[r7,#0x14]
        0x000036ae:    42a2        .B      CMP      r2,r4
        0x000036b0:    d101        ..      BNE      0x36b6 ; UserCGRModeJoin + 154
        0x000036b2:    753c        <u      STRB     r4,[r7,#0x14]
        0x000036b4:    bdf8        ..      POP      {r3-r7,pc}
        0x000036b6:    6a73        sj      LDR      r3,[r6,#0x24]
        0x000036b8:    2b00        .+      CMP      r3,#0
        0x000036ba:    d0fb        ..      BEQ      0x36b4 ; UserCGRModeJoin + 152
        0x000036bc:    2301        .#      MOVS     r3,#1
        0x000036be:    4922        "I      LDR      r1,[pc,#136] ; [0x3748] = 0x20000027
        0x000036c0:    70bb        .p      STRB     r3,[r7,#2]
        0x000036c2:    7809        .x      LDRB     r1,[r1,#0]
        0x000036c4:    2304        .#      MOVS     r3,#4
        0x000036c6:    4319        .C      ORRS     r1,r1,r3
        0x000036c8:    4b1f        .K      LDR      r3,[pc,#124] ; [0x3748] = 0x20000027
        0x000036ca:    7019        .p      STRB     r1,[r3,#0]
        0x000036cc:    7801        .x      LDRB     r1,[r0,#0]
        0x000036ce:    2304        .#      MOVS     r3,#4
        0x000036d0:    4319        .C      ORRS     r1,r1,r3
        0x000036d2:    7001        .p      STRB     r1,[r0,#0]
        0x000036d4:    4610        .F      MOV      r0,r2
        0x000036d6:    f7fef855    ..U.    BL       PowerRCD_AddNew ; 0x1784
        0x000036da:    7e68        h~      LDRB     r0,[r5,#0x19]
        0x000036dc:    2113        .!      MOVS     r1,#0x13
        0x000036de:    4308        .C      ORRS     r0,r0,r1
        0x000036e0:    7668        hv      STRB     r0,[r5,#0x19]
        0x000036e2:    7d38        8}      LDRB     r0,[r7,#0x14]
        0x000036e4:    0140        @.      LSLS     r0,r0,#5
        0x000036e6:    19c0        ..      ADDS     r0,r0,r7
        0x000036e8:    7e01        .~      LDRB     r1,[r0,#0x18]
        0x000036ea:    0849        I.      LSRS     r1,r1,#1
        0x000036ec:    0049        I.      LSLS     r1,r1,#1
        0x000036ee:    7601        .v      STRB     r1,[r0,#0x18]
        0x000036f0:    7e30        0~      LDRB     r0,[r6,#0x18]
        0x000036f2:    2101        .!      MOVS     r1,#1
        0x000036f4:    4308        .C      ORRS     r0,r0,r1
        0x000036f6:    7630        0v      STRB     r0,[r6,#0x18]
        0x000036f8:    753c        <u      STRB     r4,[r7,#0x14]
        0x000036fa:    4620         F      MOV      r0,r4
        0x000036fc:    f7fefb68    ..h.    BL       RecordJoinCGR ; 0x1dd0
        0x00003700:    7e68        h~      LDRB     r0,[r5,#0x19]
        0x00003702:    2112        .!      MOVS     r1,#0x12
        0x00003704:    4308        .C      ORRS     r0,r0,r1
        0x00003706:    7668        hv      STRB     r0,[r5,#0x19]
        0x00003708:    bdf8        ..      POP      {r3-r7,pc}
        0x0000370a:    2002        .       MOVS     r0,#2
        0x0000370c:    4a0e        .J      LDR      r2,[pc,#56] ; [0x3748] = 0x20000027
        0x0000370e:    7078        xp      STRB     r0,[r7,#1]
        0x00003710:    7811        .x      LDRB     r1,[r2,#0]
        0x00003712:    4301        .C      ORRS     r1,r1,r0
        0x00003714:    7011        .p      STRB     r1,[r2,#0]
        0x00003716:    4a0b        .J      LDR      r2,[pc,#44] ; [0x3744] = 0x20000029
        0x00003718:    7811        .x      LDRB     r1,[r2,#0]
        0x0000371a:    4301        .C      ORRS     r1,r1,r0
        0x0000371c:    7011        .p      STRB     r1,[r2,#0]
        0x0000371e:    480d        .H      LDR      r0,[pc,#52] ; [0x3754] = 0x200000b7
        0x00003720:    753c        <u      STRB     r4,[r7,#0x14]
        0x00003722:    7006        .p      STRB     r6,[r0,#0]
        0x00003724:    f7fdfb08    ....    BL       DigitMeterPowerON ; 0xd38
        0x00003728:    f7fef8a8    ....    BL       ROOM_POWER_On ; 0x187c
        0x0000372c:    480a        .H      LDR      r0,[pc,#40] ; [0x3758] = 0x20000020
        0x0000372e:    7006        .p      STRB     r6,[r0,#0]
        0x00003730:    7e68        h~      LDRB     r0,[r5,#0x19]
        0x00003732:    2112        .!      MOVS     r1,#0x12
        0x00003734:    4308        .C      ORRS     r0,r0,r1
        0x00003736:    7668        hv      STRB     r0,[r5,#0x19]
        0x00003738:    4808        .H      LDR      r0,[pc,#32] ; [0x375c] = 0x200000c2
        0x0000373a:    7086        .p      STRB     r6,[r0,#2]
        0x0000373c:    bdf8        ..      POP      {r3-r7,pc}
    $d
        0x0000373e:    0000        ..      DCW    0
        0x00003740:    200002d4    ...     DCD    536871636
        0x00003744:    20000029    )..     DCD    536870953
        0x00003748:    20000027    '..     DCD    536870951
        0x0000374c:    20000091    ...     DCD    536871057
        0x00003750:    200004d4    ...     DCD    536872148
        0x00003754:    200000b7    ...     DCD    536871095
        0x00003758:    20000020     ..     DCD    536870944
        0x0000375c:    200000c2    ...     DCD    536871106
    $t
    i.WDT_IRQHandler
    WDT_IRQHandler
        0x00003760:    4910        .I      LDR      r1,[pc,#64] ; [0x37a4] = 0x2000000c
        0x00003762:    6f4a        Jo      LDR      r2,[r1,#0x74]
        0x00003764:    4810        .H      LDR      r0,[pc,#64] ; [0x37a8] = 0x40004000
        0x00003766:    2a0a        .*      CMP      r2,#0xa
        0x00003768:    d201        ..      BCS      0x376e ; WDT_IRQHandler + 14
        0x0000376a:    4a10        .J      LDR      r2,[pc,#64] ; [0x37ac] = 0x5aa5
        0x0000376c:    6082        .`      STR      r2,[r0,#8]
        0x0000376e:    6802        .h      LDR      r2,[r0,#0]
        0x00003770:    0712        ..      LSLS     r2,r2,#28
        0x00003772:    d508        ..      BPL      0x3786 ; WDT_IRQHandler + 38
        0x00003774:    6802        .h      LDR      r2,[r0,#0]
        0x00003776:    2324        $#      MOVS     r3,#0x24
        0x00003778:    439a        .C      BICS     r2,r2,r3
        0x0000377a:    2308        .#      MOVS     r3,#8
        0x0000377c:    431a        .C      ORRS     r2,r2,r3
        0x0000377e:    6002        .`      STR      r2,[r0,#0]
        0x00003780:    6f4a        Jo      LDR      r2,[r1,#0x74]
        0x00003782:    1c52        R.      ADDS     r2,r2,#1
        0x00003784:    674a        Jg      STR      r2,[r1,#0x74]
        0x00003786:    6801        .h      LDR      r1,[r0,#0]
        0x00003788:    0689        ..      LSLS     r1,r1,#26
        0x0000378a:    d509        ..      BPL      0x37a0 ; WDT_IRQHandler + 64
        0x0000378c:    6801        .h      LDR      r1,[r0,#0]
        0x0000378e:    220c        ."      MOVS     r2,#0xc
        0x00003790:    4391        .C      BICS     r1,r1,r2
        0x00003792:    2220         "      MOVS     r2,#0x20
        0x00003794:    4311        .C      ORRS     r1,r1,r2
        0x00003796:    6001        .`      STR      r1,[r0,#0]
        0x00003798:    4802        .H      LDR      r0,[pc,#8] ; [0x37a4] = 0x2000000c
        0x0000379a:    2101        .!      MOVS     r1,#1
        0x0000379c:    3040        @0      ADDS     r0,r0,#0x40
        0x0000379e:    70c1        .p      STRB     r1,[r0,#3]
        0x000037a0:    4770        pG      BX       lr
    $d
        0x000037a2:    0000        ..      DCW    0
        0x000037a4:    2000000c    ...     DCD    536870924
        0x000037a8:    40004000    .@.@    DCD    1073758208
        0x000037ac:    00005aa5    .Z..    DCD    23205
    $t
    i.WritePowerToEE
    WritePowerToEE
        0x000037b0:    b570        p.      PUSH     {r4-r6,lr}
        0x000037b2:    480e        .H      LDR      r0,[pc,#56] ; [0x37ec] = 0x2000000c
        0x000037b4:    6ec0        .n      LDR      r0,[r0,#0x6c]
        0x000037b6:    0201        ..      LSLS     r1,r0,#8
        0x000037b8:    0e0d        ..      LSRS     r5,r1,#24
        0x000037ba:    0401        ..      LSLS     r1,r0,#16
        0x000037bc:    0e02        ..      LSRS     r2,r0,#24
        0x000037be:    0e0c        ..      LSRS     r4,r1,#24
        0x000037c0:    b2c6        ..      UXTB     r6,r0
        0x000037c2:    2118        .!      MOVS     r1,#0x18
        0x000037c4:    2050        P       MOVS     r0,#0x50
        0x000037c6:    f000fb29    ..).    BL       soft_i2c_eeprom_write_byte ; 0x3e1c
        0x000037ca:    462a        *F      MOV      r2,r5
        0x000037cc:    2119        .!      MOVS     r1,#0x19
        0x000037ce:    2050        P       MOVS     r0,#0x50
        0x000037d0:    f000fb24    ..$.    BL       soft_i2c_eeprom_write_byte ; 0x3e1c
        0x000037d4:    4622        "F      MOV      r2,r4
        0x000037d6:    211a        .!      MOVS     r1,#0x1a
        0x000037d8:    2050        P       MOVS     r0,#0x50
        0x000037da:    f000fb1f    ....    BL       soft_i2c_eeprom_write_byte ; 0x3e1c
        0x000037de:    4632        2F      MOV      r2,r6
        0x000037e0:    211b        .!      MOVS     r1,#0x1b
        0x000037e2:    2050        P       MOVS     r0,#0x50
        0x000037e4:    f000fb1a    ....    BL       soft_i2c_eeprom_write_byte ; 0x3e1c
        0x000037e8:    bd70        p.      POP      {r4-r6,pc}
    $d
        0x000037ea:    0000        ..      DCW    0
        0x000037ec:    2000000c    ...     DCD    536870924
    $t
    i._SendStringToHOST
    _SendStringToHOST
        0x000037f0:    b5f8        ..      PUSH     {r3-r7,lr}
        0x000037f2:    4f15        .O      LDR      r7,[pc,#84] ; [0x3848] = 0x20000015
        0x000037f4:    4605        .F      MOV      r5,r0
        0x000037f6:    7838        8x      LDRB     r0,[r7,#0]
        0x000037f8:    460c        .F      MOV      r4,r1
        0x000037fa:    1900        ..      ADDS     r0,r0,r4
        0x000037fc:    2838        8(      CMP      r0,#0x38
        0x000037fe:    d901        ..      BLS      0x3804 ; _SendStringToHOST + 20
        0x00003800:    2001        .       MOVS     r0,#1
        0x00003802:    bdf8        ..      POP      {r3-r7,pc}
        0x00003804:    f7fdfaae    ....    BL       EnableHostUartTx ; 0xd64
        0x00003808:    2200        ."      MOVS     r2,#0
        0x0000380a:    4e10        .N      LDR      r6,[pc,#64] ; [0x384c] = 0x20000013
        0x0000380c:    4810        .H      LDR      r0,[pc,#64] ; [0x3850] = 0x200001b4
        0x0000380e:    e00e        ..      B        0x382e ; _SendStringToHOST + 62
        0x00003810:    7833        3x      LDRB     r3,[r6,#0]
        0x00003812:    5ca9        .\      LDRB     r1,[r5,r2]
        0x00003814:    54c1        .T      STRB     r1,[r0,r3]
        0x00003816:    1c5b        [.      ADDS     r3,r3,#1
        0x00003818:    b2d9        ..      UXTB     r1,r3
        0x0000381a:    7031        1p      STRB     r1,[r6,#0]
        0x0000381c:    2938        8)      CMP      r1,#0x38
        0x0000381e:    d301        ..      BCC      0x3824 ; _SendStringToHOST + 52
        0x00003820:    2100        .!      MOVS     r1,#0
        0x00003822:    7031        1p      STRB     r1,[r6,#0]
        0x00003824:    7839        9x      LDRB     r1,[r7,#0]
        0x00003826:    1c49        I.      ADDS     r1,r1,#1
        0x00003828:    1c52        R.      ADDS     r2,r2,#1
        0x0000382a:    7039        9p      STRB     r1,[r7,#0]
        0x0000382c:    b2d2        ..      UXTB     r2,r2
        0x0000382e:    42a2        .B      CMP      r2,r4
        0x00003830:    d3ee        ..      BCC      0x3810 ; _SendStringToHOST + 32
        0x00003832:    2102        .!      MOVS     r1,#2
        0x00003834:    4807        .H      LDR      r0,[pc,#28] ; [0x3854] = 0x40050000
        0x00003836:    f7fffdfb    ....    BL       UART_EnableInt ; 0x3430
        0x0000383a:    2001        .       MOVS     r0,#1
        0x0000383c:    4906        .I      LDR      r1,[pc,#24] ; [0x3858] = 0xe000e100
        0x0000383e:    0300        ..      LSLS     r0,r0,#12
        0x00003840:    6008        .`      STR      r0,[r1,#0]
        0x00003842:    2000        .       MOVS     r0,#0
        0x00003844:    bdf8        ..      POP      {r3-r7,pc}
    $d
        0x00003846:    0000        ..      DCW    0
        0x00003848:    20000015    ...     DCD    536870933
        0x0000384c:    20000013    ...     DCD    536870931
        0x00003850:    200001b4    ...     DCD    536871348
        0x00003854:    40050000    ...@    DCD    1074069504
        0x00003858:    e000e100    ....    DCD    3758153984
    $t
    i._SendStringToMETER
    _SendStringToMETER
        0x0000385c:    b5f8        ..      PUSH     {r3-r7,lr}
        0x0000385e:    4f13        .O      LDR      r7,[pc,#76] ; [0x38ac] = 0x2000001b
        0x00003860:    783a        :x      LDRB     r2,[r7,#0]
        0x00003862:    1852        R.      ADDS     r2,r2,r1
        0x00003864:    2a20         *      CMP      r2,#0x20
        0x00003866:    d901        ..      BLS      0x386c ; _SendStringToMETER + 16
        0x00003868:    2001        .       MOVS     r0,#1
        0x0000386a:    bdf8        ..      POP      {r3-r7,pc}
        0x0000386c:    2200        ."      MOVS     r2,#0
        0x0000386e:    4e10        .N      LDR      r6,[pc,#64] ; [0x38b0] = 0x20000019
        0x00003870:    4c10        .L      LDR      r4,[pc,#64] ; [0x38b4] = 0x200002b4
        0x00003872:    e00e        ..      B        0x3892 ; _SendStringToMETER + 54
        0x00003874:    7833        3x      LDRB     r3,[r6,#0]
        0x00003876:    5c85        .\      LDRB     r5,[r0,r2]
        0x00003878:    54e5        .T      STRB     r5,[r4,r3]
        0x0000387a:    1c5b        [.      ADDS     r3,r3,#1
        0x0000387c:    b2db        ..      UXTB     r3,r3
        0x0000387e:    7033        3p      STRB     r3,[r6,#0]
        0x00003880:    2b20         +      CMP      r3,#0x20
        0x00003882:    d301        ..      BCC      0x3888 ; _SendStringToMETER + 44
        0x00003884:    2300        .#      MOVS     r3,#0
        0x00003886:    7033        3p      STRB     r3,[r6,#0]
        0x00003888:    783b        ;x      LDRB     r3,[r7,#0]
        0x0000388a:    1c5b        [.      ADDS     r3,r3,#1
        0x0000388c:    1c52        R.      ADDS     r2,r2,#1
        0x0000388e:    703b        ;p      STRB     r3,[r7,#0]
        0x00003890:    b2d2        ..      UXTB     r2,r2
        0x00003892:    428a        .B      CMP      r2,r1
        0x00003894:    d3ee        ..      BCC      0x3874 ; _SendStringToMETER + 24
        0x00003896:    2102        .!      MOVS     r1,#2
        0x00003898:    4807        .H      LDR      r0,[pc,#28] ; [0x38b8] = 0x40154000
        0x0000389a:    f7fffdc9    ....    BL       UART_EnableInt ; 0x3430
        0x0000389e:    2001        .       MOVS     r0,#1
        0x000038a0:    4906        .I      LDR      r1,[pc,#24] ; [0x38bc] = 0xe000e100
        0x000038a2:    0300        ..      LSLS     r0,r0,#12
        0x000038a4:    6008        .`      STR      r0,[r1,#0]
        0x000038a6:    2000        .       MOVS     r0,#0
        0x000038a8:    bdf8        ..      POP      {r3-r7,pc}
    $d
        0x000038aa:    0000        ..      DCW    0
        0x000038ac:    2000001b    ...     DCD    536870939
        0x000038b0:    20000019    ...     DCD    536870937
        0x000038b4:    200002b4    ...     DCD    536871604
        0x000038b8:    40154000    .@.@    DCD    1075134464
        0x000038bc:    e000e100    ....    DCD    3758153984
    $t
    i._SendStringToREADER
    _SendStringToREADER
        0x000038c0:    b5f8        ..      PUSH     {r3-r7,lr}
        0x000038c2:    4f13        .O      LDR      r7,[pc,#76] ; [0x3910] = 0x20000018
        0x000038c4:    783a        :x      LDRB     r2,[r7,#0]
        0x000038c6:    1852        R.      ADDS     r2,r2,r1
        0x000038c8:    2a38        8*      CMP      r2,#0x38
        0x000038ca:    d901        ..      BLS      0x38d0 ; _SendStringToREADER + 16
        0x000038cc:    2001        .       MOVS     r0,#1
        0x000038ce:    bdf8        ..      POP      {r3-r7,pc}
        0x000038d0:    2200        ."      MOVS     r2,#0
        0x000038d2:    4e10        .N      LDR      r6,[pc,#64] ; [0x3914] = 0x20000016
        0x000038d4:    4c10        .L      LDR      r4,[pc,#64] ; [0x3918] = 0x20000224
        0x000038d6:    e00e        ..      B        0x38f6 ; _SendStringToREADER + 54
        0x000038d8:    7833        3x      LDRB     r3,[r6,#0]
        0x000038da:    5c85        .\      LDRB     r5,[r0,r2]
        0x000038dc:    54e5        .T      STRB     r5,[r4,r3]
        0x000038de:    1c5b        [.      ADDS     r3,r3,#1
        0x000038e0:    b2db        ..      UXTB     r3,r3
        0x000038e2:    7033        3p      STRB     r3,[r6,#0]
        0x000038e4:    2b38        8+      CMP      r3,#0x38
        0x000038e6:    d301        ..      BCC      0x38ec ; _SendStringToREADER + 44
        0x000038e8:    2300        .#      MOVS     r3,#0
        0x000038ea:    7033        3p      STRB     r3,[r6,#0]
        0x000038ec:    783b        ;x      LDRB     r3,[r7,#0]
        0x000038ee:    1c5b        [.      ADDS     r3,r3,#1
        0x000038f0:    1c52        R.      ADDS     r2,r2,#1
        0x000038f2:    703b        ;p      STRB     r3,[r7,#0]
        0x000038f4:    b2d2        ..      UXTB     r2,r2
        0x000038f6:    428a        .B      CMP      r2,r1
        0x000038f8:    d3ee        ..      BCC      0x38d8 ; _SendStringToREADER + 24
        0x000038fa:    2102        .!      MOVS     r1,#2
        0x000038fc:    4807        .H      LDR      r0,[pc,#28] ; [0x391c] = 0x40150000
        0x000038fe:    f7fffd97    ....    BL       UART_EnableInt ; 0x3430
        0x00003902:    2001        .       MOVS     r0,#1
        0x00003904:    4906        .I      LDR      r1,[pc,#24] ; [0x3920] = 0xe000e100
        0x00003906:    0340        @.      LSLS     r0,r0,#13
        0x00003908:    6008        .`      STR      r0,[r1,#0]
        0x0000390a:    2000        .       MOVS     r0,#0
        0x0000390c:    bdf8        ..      POP      {r3-r7,pc}
    $d
        0x0000390e:    0000        ..      DCW    0
        0x00003910:    20000018    ...     DCD    536870936
        0x00003914:    20000016    ...     DCD    536870934
        0x00003918:    20000224    $..     DCD    536871460
        0x0000391c:    40150000    ...@    DCD    1075118080
        0x00003920:    e000e100    ....    DCD    3758153984
    $t
    i.__0printf$5
    __0printf$5
    __1printf$5
    __2printf
        0x00003924:    b40f        ..      PUSH     {r0-r3}
        0x00003926:    b510        ..      PUSH     {r4,lr}
        0x00003928:    a903        ..      ADD      r1,sp,#0xc
        0x0000392a:    4b04        .K      LDR      r3,[pc,#16] ; [0x393c] = 0x3c75
        0x0000392c:    4a04        .J      LDR      r2,[pc,#16] ; [0x3940] = 0x200000c8
        0x0000392e:    9802        ..      LDR      r0,[sp,#8]
        0x00003930:    f000f824    ..$.    BL       _printf_core ; 0x397c
        0x00003934:    bc10        ..      POP      {r4}
        0x00003936:    bc08        ..      POP      {r3}
        0x00003938:    b004        ..      ADD      sp,sp,#0x10
        0x0000393a:    4718        .G      BX       r3
    $d
        0x0000393c:    00003c75    u<..    DCD    15477
        0x00003940:    200000c8    ...     DCD    536871112
    $t
    i.__ARM_common_switch8
    __ARM_common_switch8
        0x00003944:    b430        0.      PUSH     {r4,r5}
        0x00003946:    4674        tF      MOV      r4,lr
        0x00003948:    1e64        d.      SUBS     r4,r4,#1
        0x0000394a:    7825        %x      LDRB     r5,[r4,#0]
        0x0000394c:    1c64        d.      ADDS     r4,r4,#1
        0x0000394e:    42ab        .B      CMP      r3,r5
        0x00003950:    d200        ..      BCS      0x3954 ; __ARM_common_switch8 + 16
        0x00003952:    461d        .F      MOV      r5,r3
        0x00003954:    5d63        c]      LDRB     r3,[r4,r5]
        0x00003956:    005b        [.      LSLS     r3,r3,#1
        0x00003958:    18e3        ..      ADDS     r3,r4,r3
        0x0000395a:    bc30        0.      POP      {r4,r5}
        0x0000395c:    4718        .G      BX       r3
    i.__scatterload_copy
    __scatterload_copy
        0x0000395e:    e002        ..      B        0x3966 ; __scatterload_copy + 8
        0x00003960:    c808        ..      LDM      r0!,{r3}
        0x00003962:    1f12        ..      SUBS     r2,r2,#4
        0x00003964:    c108        ..      STM      r1!,{r3}
        0x00003966:    2a00        .*      CMP      r2,#0
        0x00003968:    d1fa        ..      BNE      0x3960 ; __scatterload_copy + 2
        0x0000396a:    4770        pG      BX       lr
    i.__scatterload_null
    __scatterload_null
        0x0000396c:    4770        pG      BX       lr
    i.__scatterload_zeroinit
    __scatterload_zeroinit
        0x0000396e:    2000        .       MOVS     r0,#0
        0x00003970:    e001        ..      B        0x3976 ; __scatterload_zeroinit + 8
        0x00003972:    c101        ..      STM      r1!,{r0}
        0x00003974:    1f12        ..      SUBS     r2,r2,#4
        0x00003976:    2a00        .*      CMP      r2,#0
        0x00003978:    d1fb        ..      BNE      0x3972 ; __scatterload_zeroinit + 4
        0x0000397a:    4770        pG      BX       lr
    i._printf_core
    _printf_core
        0x0000397c:    b5ff        ..      PUSH     {r0-r7,lr}
        0x0000397e:    b08f        ..      SUB      sp,sp,#0x3c
        0x00003980:    460f        .F      MOV      r7,r1
        0x00003982:    4604        .F      MOV      r4,r0
        0x00003984:    2600        .&      MOVS     r6,#0
        0x00003986:    e006        ..      B        0x3996 ; _printf_core + 26
        0x00003988:    2825        %(      CMP      r0,#0x25
        0x0000398a:    d00a        ..      BEQ      0x39a2 ; _printf_core + 38
        0x0000398c:    9a12        ..      LDR      r2,[sp,#0x48]
        0x0000398e:    9911        ..      LDR      r1,[sp,#0x44]
        0x00003990:    4790        .G      BLX      r2
        0x00003992:    1c64        d.      ADDS     r4,r4,#1
        0x00003994:    1c76        v.      ADDS     r6,r6,#1
        0x00003996:    7820         x      LDRB     r0,[r4,#0]
        0x00003998:    2800        .(      CMP      r0,#0
        0x0000399a:    d1f5        ..      BNE      0x3988 ; _printf_core + 12
        0x0000399c:    4630        0F      MOV      r0,r6
        0x0000399e:    b013        ..      ADD      sp,sp,#0x4c
        0x000039a0:    bdf0        ..      POP      {r4-r7,pc}
        0x000039a2:    2500        .%      MOVS     r5,#0
        0x000039a4:    2101        .!      MOVS     r1,#1
        0x000039a6:    4aa1        .J      LDR      r2,[pc,#644] ; [0x3c2c] = 0x12809
        0x000039a8:    9500        ..      STR      r5,[sp,#0]
        0x000039aa:    e000        ..      B        0x39ae ; _printf_core + 50
        0x000039ac:    4305        .C      ORRS     r5,r5,r0
        0x000039ae:    1c64        d.      ADDS     r4,r4,#1
        0x000039b0:    7823        #x      LDRB     r3,[r4,#0]
        0x000039b2:    4608        .F      MOV      r0,r1
        0x000039b4:    3b20         ;      SUBS     r3,r3,#0x20
        0x000039b6:    4098        .@      LSLS     r0,r0,r3
        0x000039b8:    4210        .B      TST      r0,r2
        0x000039ba:    d1f7        ..      BNE      0x39ac ; _printf_core + 48
        0x000039bc:    7820         x      LDRB     r0,[r4,#0]
        0x000039be:    282e        .(      CMP      r0,#0x2e
        0x000039c0:    d115        ..      BNE      0x39ee ; _printf_core + 114
        0x000039c2:    2004        .       MOVS     r0,#4
        0x000039c4:    4305        .C      ORRS     r5,r5,r0
        0x000039c6:    7860        `x      LDRB     r0,[r4,#1]
        0x000039c8:    1c64        d.      ADDS     r4,r4,#1
        0x000039ca:    282a        *(      CMP      r0,#0x2a
        0x000039cc:    d10a        ..      BNE      0x39e4 ; _printf_core + 104
        0x000039ce:    cf01        ..      LDM      r7!,{r0}
        0x000039d0:    1c64        d.      ADDS     r4,r4,#1
        0x000039d2:    9000        ..      STR      r0,[sp,#0]
        0x000039d4:    e00b        ..      B        0x39ee ; _printf_core + 114
        0x000039d6:    9900        ..      LDR      r1,[sp,#0]
        0x000039d8:    220a        ."      MOVS     r2,#0xa
        0x000039da:    4351        QC      MULS     r1,r2,r1
        0x000039dc:    3930        09      SUBS     r1,r1,#0x30
        0x000039de:    1840        @.      ADDS     r0,r0,r1
        0x000039e0:    1c64        d.      ADDS     r4,r4,#1
        0x000039e2:    9000        ..      STR      r0,[sp,#0]
        0x000039e4:    7820         x      LDRB     r0,[r4,#0]
        0x000039e6:    4601        .F      MOV      r1,r0
        0x000039e8:    3930        09      SUBS     r1,r1,#0x30
        0x000039ea:    2909        .)      CMP      r1,#9
        0x000039ec:    d9f3        ..      BLS      0x39d6 ; _printf_core + 90
        0x000039ee:    7820         x      LDRB     r0,[r4,#0]
        0x000039f0:    286c        l(      CMP      r0,#0x6c
        0x000039f2:    d00e        ..      BEQ      0x3a12 ; _printf_core + 150
        0x000039f4:    dc04        ..      BGT      0x3a00 ; _printf_core + 132
        0x000039f6:    284c        L(      CMP      r0,#0x4c
        0x000039f8:    d013        ..      BEQ      0x3a22 ; _printf_core + 166
        0x000039fa:    286a        j(      CMP      r0,#0x6a
        0x000039fc:    d112        ..      BNE      0x3a24 ; _printf_core + 168
        0x000039fe:    e004        ..      B        0x3a0a ; _printf_core + 142
        0x00003a00:    2874        t(      CMP      r0,#0x74
        0x00003a02:    d00e        ..      BEQ      0x3a22 ; _printf_core + 166
        0x00003a04:    287a        z(      CMP      r0,#0x7a
        0x00003a06:    d10d        ..      BNE      0x3a24 ; _printf_core + 168
        0x00003a08:    e00b        ..      B        0x3a22 ; _printf_core + 166
        0x00003a0a:    2001        .       MOVS     r0,#1
        0x00003a0c:    0540        @.      LSLS     r0,r0,#21
        0x00003a0e:    4305        .C      ORRS     r5,r5,r0
        0x00003a10:    e007        ..      B        0x3a22 ; _printf_core + 166
        0x00003a12:    2101        .!      MOVS     r1,#1
        0x00003a14:    0509        ..      LSLS     r1,r1,#20
        0x00003a16:    7862        bx      LDRB     r2,[r4,#1]
        0x00003a18:    430d        .C      ORRS     r5,r5,r1
        0x00003a1a:    4282        .B      CMP      r2,r0
        0x00003a1c:    d101        ..      BNE      0x3a22 ; _printf_core + 166
        0x00003a1e:    186d        m.      ADDS     r5,r5,r1
        0x00003a20:    1c64        d.      ADDS     r4,r4,#1
        0x00003a22:    1c64        d.      ADDS     r4,r4,#1
        0x00003a24:    7820         x      LDRB     r0,[r4,#0]
        0x00003a26:    4686        .F      MOV      lr,r0
        0x00003a28:    2869        i(      CMP      r0,#0x69
        0x00003a2a:    d04a        J.      BEQ      0x3ac2 ; _printf_core + 326
        0x00003a2c:    dc08        ..      BGT      0x3a40 ; _printf_core + 196
        0x00003a2e:    2800        .(      CMP      r0,#0
        0x00003a30:    d0b4        ..      BEQ      0x399c ; _printf_core + 32
        0x00003a32:    2858        X(      CMP      r0,#0x58
        0x00003a34:    d06d        m.      BEQ      0x3b12 ; _printf_core + 406
        0x00003a36:    2863        c(      CMP      r0,#0x63
        0x00003a38:    d010        ..      BEQ      0x3a5c ; _printf_core + 224
        0x00003a3a:    2864        d(      CMP      r0,#0x64
        0x00003a3c:    d108        ..      BNE      0x3a50 ; _printf_core + 212
        0x00003a3e:    e040        @.      B        0x3ac2 ; _printf_core + 326
        0x00003a40:    2870        p(      CMP      r0,#0x70
        0x00003a42:    d06b        k.      BEQ      0x3b1c ; _printf_core + 416
        0x00003a44:    2873        s(      CMP      r0,#0x73
        0x00003a46:    d012        ..      BEQ      0x3a6e ; _printf_core + 242
        0x00003a48:    2875        u(      CMP      r0,#0x75
        0x00003a4a:    d060        `.      BEQ      0x3b0e ; _printf_core + 402
        0x00003a4c:    2878        x(      CMP      r0,#0x78
        0x00003a4e:    d060        `.      BEQ      0x3b12 ; _printf_core + 406
        0x00003a50:    9a12        ..      LDR      r2,[sp,#0x48]
        0x00003a52:    4670        pF      MOV      r0,lr
        0x00003a54:    9911        ..      LDR      r1,[sp,#0x44]
        0x00003a56:    4790        .G      BLX      r2
        0x00003a58:    1c76        v.      ADDS     r6,r6,#1
        0x00003a5a:    e0e5        ..      B        0x3c28 ; _printf_core + 684
        0x00003a5c:    7838        8x      LDRB     r0,[r7,#0]
        0x00003a5e:    4669        iF      MOV      r1,sp
        0x00003a60:    7208        .r      STRB     r0,[r1,#8]
        0x00003a62:    2000        .       MOVS     r0,#0
        0x00003a64:    7248        Hr      STRB     r0,[r1,#9]
        0x00003a66:    a802        ..      ADD      r0,sp,#8
        0x00003a68:    9001        ..      STR      r0,[sp,#4]
        0x00003a6a:    2001        .       MOVS     r0,#1
        0x00003a6c:    e003        ..      B        0x3a76 ; _printf_core + 250
        0x00003a6e:    6838        8h      LDR      r0,[r7,#0]
        0x00003a70:    9001        ..      STR      r0,[sp,#4]
        0x00003a72:    2000        .       MOVS     r0,#0
        0x00003a74:    43c0        .C      MVNS     r0,r0
        0x00003a76:    1d3f        ?.      ADDS     r7,r7,#4
        0x00003a78:    0769        i.      LSLS     r1,r5,#29
        0x00003a7a:    d50c        ..      BPL      0x3a96 ; _printf_core + 282
        0x00003a7c:    2500        .%      MOVS     r5,#0
        0x00003a7e:    e000        ..      B        0x3a82 ; _printf_core + 262
        0x00003a80:    1c6d        m.      ADDS     r5,r5,#1
        0x00003a82:    9900        ..      LDR      r1,[sp,#0]
        0x00003a84:    428d        .B      CMP      r5,r1
        0x00003a86:    da0f        ..      BGE      0x3aa8 ; _printf_core + 300
        0x00003a88:    4285        .B      CMP      r5,r0
        0x00003a8a:    dbf9        ..      BLT      0x3a80 ; _printf_core + 260
        0x00003a8c:    9901        ..      LDR      r1,[sp,#4]
        0x00003a8e:    5d49        I]      LDRB     r1,[r1,r5]
        0x00003a90:    2900        .)      CMP      r1,#0
        0x00003a92:    d1f5        ..      BNE      0x3a80 ; _printf_core + 260
        0x00003a94:    e008        ..      B        0x3aa8 ; _printf_core + 300
        0x00003a96:    2500        .%      MOVS     r5,#0
        0x00003a98:    e000        ..      B        0x3a9c ; _printf_core + 288
        0x00003a9a:    1c6d        m.      ADDS     r5,r5,#1
        0x00003a9c:    4285        .B      CMP      r5,r0
        0x00003a9e:    dbfc        ..      BLT      0x3a9a ; _printf_core + 286
        0x00003aa0:    9901        ..      LDR      r1,[sp,#4]
        0x00003aa2:    5d49        I]      LDRB     r1,[r1,r5]
        0x00003aa4:    2900        .)      CMP      r1,#0
        0x00003aa6:    d1f8        ..      BNE      0x3a9a ; _printf_core + 286
        0x00003aa8:    1976        v.      ADDS     r6,r6,r5
        0x00003aaa:    e007        ..      B        0x3abc ; _printf_core + 320
        0x00003aac:    9801        ..      LDR      r0,[sp,#4]
        0x00003aae:    9901        ..      LDR      r1,[sp,#4]
        0x00003ab0:    7800        .x      LDRB     r0,[r0,#0]
        0x00003ab2:    1c49        I.      ADDS     r1,r1,#1
        0x00003ab4:    9101        ..      STR      r1,[sp,#4]
        0x00003ab6:    9a12        ..      LDR      r2,[sp,#0x48]
        0x00003ab8:    9911        ..      LDR      r1,[sp,#0x44]
        0x00003aba:    4790        .G      BLX      r2
        0x00003abc:    1e6d        m.      SUBS     r5,r5,#1
        0x00003abe:    d2f5        ..      BCS      0x3aac ; _printf_core + 304
        0x00003ac0:    e0b2        ..      B        0x3c28 ; _printf_core + 684
        0x00003ac2:    200a        .       MOVS     r0,#0xa
        0x00003ac4:    9002        ..      STR      r0,[sp,#8]
        0x00003ac6:    2100        .!      MOVS     r1,#0
        0x00003ac8:    0268        h.      LSLS     r0,r5,#9
        0x00003aca:    0f40        @.      LSRS     r0,r0,#29
        0x00003acc:    9103        ..      STR      r1,[sp,#0xc]
        0x00003ace:    2802        .(      CMP      r0,#2
        0x00003ad0:    d00c        ..      BEQ      0x3aec ; _printf_core + 368
        0x00003ad2:    cf01        ..      LDM      r7!,{r0}
        0x00003ad4:    17c1        ..      ASRS     r1,r0,#31
        0x00003ad6:    4684        .F      MOV      r12,r0
        0x00003ad8:    2900        .)      CMP      r1,#0
        0x00003ada:    da0d        ..      BGE      0x3af8 ; _printf_core + 380
        0x00003adc:    4662        bF      MOV      r2,r12
        0x00003ade:    4608        .F      MOV      r0,r1
        0x00003ae0:    4252        RB      RSBS     r2,r2,#0
        0x00003ae2:    2100        .!      MOVS     r1,#0
        0x00003ae4:    4181        .A      SBCS     r1,r1,r0
        0x00003ae6:    4694        .F      MOV      r12,r2
        0x00003ae8:    202d        -       MOVS     r0,#0x2d
        0x00003aea:    e008        ..      B        0x3afe ; _printf_core + 386
        0x00003aec:    1dff        ..      ADDS     r7,r7,#7
        0x00003aee:    08ff        ..      LSRS     r7,r7,#3
        0x00003af0:    00ff        ..      LSLS     r7,r7,#3
        0x00003af2:    cf03        ..      LDM      r7!,{r0,r1}
        0x00003af4:    4684        .F      MOV      r12,r0
        0x00003af6:    e7ef        ..      B        0x3ad8 ; _printf_core + 348
        0x00003af8:    0528        (.      LSLS     r0,r5,#20
        0x00003afa:    d504        ..      BPL      0x3b06 ; _printf_core + 394
        0x00003afc:    202b        +       MOVS     r0,#0x2b
        0x00003afe:    466a        jF      MOV      r2,sp
        0x00003b00:    7410        .t      STRB     r0,[r2,#0x10]
        0x00003b02:    2001        .       MOVS     r0,#1
        0x00003b04:    e03c        <.      B        0x3b80 ; _printf_core + 516
        0x00003b06:    07e8        ..      LSLS     r0,r5,#31
        0x00003b08:    d03a        :.      BEQ      0x3b80 ; _printf_core + 516
        0x00003b0a:    2020                MOVS     r0,#0x20
        0x00003b0c:    e7f7        ..      B        0x3afe ; _printf_core + 386
        0x00003b0e:    200a        .       MOVS     r0,#0xa
        0x00003b10:    e000        ..      B        0x3b14 ; _printf_core + 408
        0x00003b12:    2010        .       MOVS     r0,#0x10
        0x00003b14:    2100        .!      MOVS     r1,#0
        0x00003b16:    9103        ..      STR      r1,[sp,#0xc]
        0x00003b18:    9002        ..      STR      r0,[sp,#8]
        0x00003b1a:    e007        ..      B        0x3b2c ; _printf_core + 432
        0x00003b1c:    2010        .       MOVS     r0,#0x10
        0x00003b1e:    9002        ..      STR      r0,[sp,#8]
        0x00003b20:    2100        .!      MOVS     r1,#0
        0x00003b22:    2004        .       MOVS     r0,#4
        0x00003b24:    4305        .C      ORRS     r5,r5,r0
        0x00003b26:    2008        .       MOVS     r0,#8
        0x00003b28:    9103        ..      STR      r1,[sp,#0xc]
        0x00003b2a:    9000        ..      STR      r0,[sp,#0]
        0x00003b2c:    0268        h.      LSLS     r0,r5,#9
        0x00003b2e:    0f40        @.      LSRS     r0,r0,#29
        0x00003b30:    2802        .(      CMP      r0,#2
        0x00003b32:    d010        ..      BEQ      0x3b56 ; _printf_core + 474
        0x00003b34:    cf01        ..      LDM      r7!,{r0}
        0x00003b36:    2100        .!      MOVS     r1,#0
        0x00003b38:    4684        .F      MOV      r12,r0
        0x00003b3a:    2000        .       MOVS     r0,#0
        0x00003b3c:    900d        ..      STR      r0,[sp,#0x34]
        0x00003b3e:    0728        (.      LSLS     r0,r5,#28
        0x00003b40:    d51f        ..      BPL      0x3b82 ; _printf_core + 518
        0x00003b42:    4670        pF      MOV      r0,lr
        0x00003b44:    2870        p(      CMP      r0,#0x70
        0x00003b46:    d00c        ..      BEQ      0x3b62 ; _printf_core + 486
        0x00003b48:    9a02        ..      LDR      r2,[sp,#8]
        0x00003b4a:    2010        .       MOVS     r0,#0x10
        0x00003b4c:    9b03        ..      LDR      r3,[sp,#0xc]
        0x00003b4e:    4042        B@      EORS     r2,r2,r0
        0x00003b50:    431a        .C      ORRS     r2,r2,r3
        0x00003b52:    d00c        ..      BEQ      0x3b6e ; _printf_core + 498
        0x00003b54:    e015        ..      B        0x3b82 ; _printf_core + 518
        0x00003b56:    1dff        ..      ADDS     r7,r7,#7
        0x00003b58:    08ff        ..      LSRS     r7,r7,#3
        0x00003b5a:    00ff        ..      LSLS     r7,r7,#3
        0x00003b5c:    cf03        ..      LDM      r7!,{r0,r1}
        0x00003b5e:    4684        .F      MOV      r12,r0
        0x00003b60:    e7eb        ..      B        0x3b3a ; _printf_core + 446
        0x00003b62:    2040        @       MOVS     r0,#0x40
        0x00003b64:    466a        jF      MOV      r2,sp
        0x00003b66:    7410        .t      STRB     r0,[r2,#0x10]
        0x00003b68:    2001        .       MOVS     r0,#1
        0x00003b6a:    900d        ..      STR      r0,[sp,#0x34]
        0x00003b6c:    e00c        ..      B        0x3b88 ; _printf_core + 524
        0x00003b6e:    4660        `F      MOV      r0,r12
        0x00003b70:    4308        .C      ORRS     r0,r0,r1
        0x00003b72:    d006        ..      BEQ      0x3b82 ; _printf_core + 518
        0x00003b74:    2030        0       MOVS     r0,#0x30
        0x00003b76:    466a        jF      MOV      r2,sp
        0x00003b78:    7410        .t      STRB     r0,[r2,#0x10]
        0x00003b7a:    4670        pF      MOV      r0,lr
        0x00003b7c:    7450        Pt      STRB     r0,[r2,#0x11]
        0x00003b7e:    2002        .       MOVS     r0,#2
        0x00003b80:    900d        ..      STR      r0,[sp,#0x34]
        0x00003b82:    4670        pF      MOV      r0,lr
        0x00003b84:    2858        X(      CMP      r0,#0x58
        0x00003b86:    d004        ..      BEQ      0x3b92 ; _printf_core + 534
        0x00003b88:    a029        ).      ADR      r0,{pc}+0xa8 ; 0x3c30
        0x00003b8a:    9001        ..      STR      r0,[sp,#4]
        0x00003b8c:    a80d        ..      ADD      r0,sp,#0x34
        0x00003b8e:    900e        ..      STR      r0,[sp,#0x38]
        0x00003b90:    e00d        ..      B        0x3bae ; _printf_core + 562
        0x00003b92:    a02c        ,.      ADR      r0,{pc}+0xb2 ; 0x3c44
        0x00003b94:    e7f9        ..      B        0x3b8a ; _printf_core + 526
        0x00003b96:    4660        `F      MOV      r0,r12
        0x00003b98:    9b03        ..      LDR      r3,[sp,#0xc]
        0x00003b9a:    9a02        ..      LDR      r2,[sp,#8]
        0x00003b9c:    f7fcfae7    ....    BL       __aeabi_uldivmod ; 0x16e
        0x00003ba0:    9b01        ..      LDR      r3,[sp,#4]
        0x00003ba2:    4684        .F      MOV      r12,r0
        0x00003ba4:    5c9b        .\      LDRB     r3,[r3,r2]
        0x00003ba6:    9a0e        ..      LDR      r2,[sp,#0x38]
        0x00003ba8:    1e52        R.      SUBS     r2,r2,#1
        0x00003baa:    920e        ..      STR      r2,[sp,#0x38]
        0x00003bac:    7013        .p      STRB     r3,[r2,#0]
        0x00003bae:    4660        `F      MOV      r0,r12
        0x00003bb0:    4308        .C      ORRS     r0,r0,r1
        0x00003bb2:    d1f0        ..      BNE      0x3b96 ; _printf_core + 538
        0x00003bb4:    980e        ..      LDR      r0,[sp,#0x38]
        0x00003bb6:    a905        ..      ADD      r1,sp,#0x14
        0x00003bb8:    1a08        ..      SUBS     r0,r1,r0
        0x00003bba:    3020         0      ADDS     r0,r0,#0x20
        0x00003bbc:    9001        ..      STR      r0,[sp,#4]
        0x00003bbe:    0768        h.      LSLS     r0,r5,#29
        0x00003bc0:    d501        ..      BPL      0x3bc6 ; _printf_core + 586
        0x00003bc2:    9800        ..      LDR      r0,[sp,#0]
        0x00003bc4:    e001        ..      B        0x3bca ; _printf_core + 590
        0x00003bc6:    2001        .       MOVS     r0,#1
        0x00003bc8:    9000        ..      STR      r0,[sp,#0]
        0x00003bca:    9901        ..      LDR      r1,[sp,#4]
        0x00003bcc:    4288        .B      CMP      r0,r1
        0x00003bce:    dd03        ..      BLE      0x3bd8 ; _printf_core + 604
        0x00003bd0:    4601        .F      MOV      r1,r0
        0x00003bd2:    9801        ..      LDR      r0,[sp,#4]
        0x00003bd4:    1a08        ..      SUBS     r0,r1,r0
        0x00003bd6:    e000        ..      B        0x3bda ; _printf_core + 606
        0x00003bd8:    2000        .       MOVS     r0,#0
        0x00003bda:    2500        .%      MOVS     r5,#0
        0x00003bdc:    9000        ..      STR      r0,[sp,#0]
        0x00003bde:    e006        ..      B        0x3bee ; _printf_core + 626
        0x00003be0:    a804        ..      ADD      r0,sp,#0x10
        0x00003be2:    9a12        ..      LDR      r2,[sp,#0x48]
        0x00003be4:    5d40        @]      LDRB     r0,[r0,r5]
        0x00003be6:    9911        ..      LDR      r1,[sp,#0x44]
        0x00003be8:    4790        .G      BLX      r2
        0x00003bea:    1c6d        m.      ADDS     r5,r5,#1
        0x00003bec:    1c76        v.      ADDS     r6,r6,#1
        0x00003bee:    980d        ..      LDR      r0,[sp,#0x34]
        0x00003bf0:    4285        .B      CMP      r5,r0
        0x00003bf2:    dbf5        ..      BLT      0x3be0 ; _printf_core + 612
        0x00003bf4:    e004        ..      B        0x3c00 ; _printf_core + 644
        0x00003bf6:    9a12        ..      LDR      r2,[sp,#0x48]
        0x00003bf8:    2030        0       MOVS     r0,#0x30
        0x00003bfa:    9911        ..      LDR      r1,[sp,#0x44]
        0x00003bfc:    4790        .G      BLX      r2
        0x00003bfe:    1c76        v.      ADDS     r6,r6,#1
        0x00003c00:    9900        ..      LDR      r1,[sp,#0]
        0x00003c02:    1e48        H.      SUBS     r0,r1,#1
        0x00003c04:    9000        ..      STR      r0,[sp,#0]
        0x00003c06:    2900        .)      CMP      r1,#0
        0x00003c08:    dcf5        ..      BGT      0x3bf6 ; _printf_core + 634
        0x00003c0a:    e008        ..      B        0x3c1e ; _printf_core + 674
        0x00003c0c:    980e        ..      LDR      r0,[sp,#0x38]
        0x00003c0e:    990e        ..      LDR      r1,[sp,#0x38]
        0x00003c10:    7800        .x      LDRB     r0,[r0,#0]
        0x00003c12:    1c49        I.      ADDS     r1,r1,#1
        0x00003c14:    910e        ..      STR      r1,[sp,#0x38]
        0x00003c16:    9a12        ..      LDR      r2,[sp,#0x48]
        0x00003c18:    9911        ..      LDR      r1,[sp,#0x44]
        0x00003c1a:    4790        .G      BLX      r2
        0x00003c1c:    1c76        v.      ADDS     r6,r6,#1
        0x00003c1e:    9901        ..      LDR      r1,[sp,#4]
        0x00003c20:    1e48        H.      SUBS     r0,r1,#1
        0x00003c22:    9001        ..      STR      r0,[sp,#4]
        0x00003c24:    2900        .)      CMP      r1,#0
        0x00003c26:    dcf1        ..      BGT      0x3c0c ; _printf_core + 656
        0x00003c28:    1c64        d.      ADDS     r4,r4,#1
        0x00003c2a:    e6b4        ..      B        0x3996 ; _printf_core + 26
    $d
        0x00003c2c:    00012809    .(..    DCD    75785
        0x00003c30:    33323130    0123    DCD    858927408
        0x00003c34:    37363534    4567    DCD    926299444
        0x00003c38:    62613938    89ab    DCD    1650538808
        0x00003c3c:    66656463    cdef    DCD    1717920867
        0x00003c40:    00000000    ....    DCD    0
        0x00003c44:    33323130    0123    DCD    858927408
        0x00003c48:    37363534    4567    DCD    926299444
        0x00003c4c:    42413938    89AB    DCD    1111570744
        0x00003c50:    46454443    CDEF    DCD    1178944579
        0x00003c54:    00000000    ....    DCD    0
    $t
    i.a_delay_us
    a_delay_us
        0x00003c58:    2200        ."      MOVS     r2,#0
        0x00003c5a:    e008        ..      B        0x3c6e ; a_delay_us + 22
        0x00003c5c:    2100        .!      MOVS     r1,#0
        0x00003c5e:    bf00        ..      NOP      
        0x00003c60:    bf00        ..      NOP      
        0x00003c62:    1c49        I.      ADDS     r1,r1,#1
        0x00003c64:    b2c9        ..      UXTB     r1,r1
        0x00003c66:    291e        .)      CMP      r1,#0x1e
        0x00003c68:    d3f9        ..      BCC      0x3c5e ; a_delay_us + 6
        0x00003c6a:    1c52        R.      ADDS     r2,r2,#1
        0x00003c6c:    b2d2        ..      UXTB     r2,r2
        0x00003c6e:    4282        .B      CMP      r2,r0
        0x00003c70:    d3f4        ..      BCC      0x3c5c ; a_delay_us + 4
        0x00003c72:    4770        pG      BX       lr
    i.fputc
    fputc
        0x00003c74:    b500        ..      PUSH     {lr}
        0x00003c76:    4603        .F      MOV      r3,r0
        0x00003c78:    f7fefac2    ....    BL       SendChar_ToUART ; 0x2200
        0x00003c7c:    4618        .F      MOV      r0,r3
        0x00003c7e:    bd00        ..      POP      {pc}
    i.main
    main
        0x00003c80:    f7fcfb19    ....    BL       AO2022_MeterModule_1261_init ; 0x2b6
        0x00003c84:    f7fefaae    ....    BL       SYS_UnlockReg ; 0x21e4
        0x00003c88:    f7fefa20    .. .    BL       SYS_Init ; 0x20cc
        0x00003c8c:    4859        YH      LDR      r0,[pc,#356] ; [0x3df4] = 0x50000100
        0x00003c8e:    2600        .&      MOVS     r6,#0
        0x00003c90:    6006        .`      STR      r6,[r0,#0]
        0x00003c92:    f7fefaa7    ....    BL       SYS_UnlockReg ; 0x21e4
        0x00003c96:    f7fdf871    ..q.    BL       GPIO_Mode_Init ; 0xd7c
        0x00003c9a:    f7fdfdef    ....    BL       ROOM_POWER_On ; 0x187c
        0x00003c9e:    4856        VH      LDR      r0,[pc,#344] ; [0x3df8] = 0x500042c0
        0x00003ca0:    61c6        .a      STR      r6,[r0,#0x1c]
        0x00003ca2:    2401        .$      MOVS     r4,#1
        0x00003ca4:    61c4        .a      STR      r4,[r0,#0x1c]
        0x00003ca6:    4854        TH      LDR      r0,[pc,#336] ; [0x3df8] = 0x500042c0
        0x00003ca8:    3080        .0      ADDS     r0,r0,#0x80
        0x00003caa:    6086        .`      STR      r6,[r0,#8]
        0x00003cac:    6084        .`      STR      r4,[r0,#8]
        0x00003cae:    4852        RH      LDR      r0,[pc,#328] ; [0x3df8] = 0x500042c0
        0x00003cb0:    3040        @0      ADDS     r0,r0,#0x40
        0x00003cb2:    6006        .`      STR      r6,[r0,#0]
        0x00003cb4:    6004        .`      STR      r4,[r0,#0]
        0x00003cb6:    4850        PH      LDR      r0,[pc,#320] ; [0x3df8] = 0x500042c0
        0x00003cb8:    3840        @8      SUBS     r0,r0,#0x40
        0x00003cba:    6106        .a      STR      r6,[r0,#0x10]
        0x00003cbc:    6104        .a      STR      r4,[r0,#0x10]
        0x00003cbe:    484e        NH      LDR      r0,[pc,#312] ; [0x3df8] = 0x500042c0
        0x00003cc0:    3880        .8      SUBS     r0,r0,#0x80
        0x00003cc2:    6004        .`      STR      r4,[r0,#0]
        0x00003cc4:    494e        NI      LDR      r1,[pc,#312] ; [0x3e00] = 0xe000e000
        0x00003cc6:    484d        MH      LDR      r0,[pc,#308] ; [0x3dfc] = 0x57e3f
        0x00003cc8:    6148        Ha      STR      r0,[r1,#0x14]
        0x00003cca:    4a4e        NJ      LDR      r2,[pc,#312] ; [0x3e04] = 0xe000ed04
        0x00003ccc:    1748        H.      ASRS     r0,r1,#29
        0x00003cce:    69d5        .i      LDR      r5,[r2,#0x1c]
        0x00003cd0:    2307        .#      MOVS     r3,#7
        0x00003cd2:    022d        -.      LSLS     r5,r5,#8
        0x00003cd4:    0a2d        -.      LSRS     r5,r5,#8
        0x00003cd6:    0787        ..      LSLS     r7,r0,#30
        0x00003cd8:    433d        =C      ORRS     r5,r5,r7
        0x00003cda:    61d5        .a      STR      r5,[r2,#0x1c]
        0x00003cdc:    618e        .a      STR      r6,[r1,#0x18]
        0x00003cde:    610b        .a      STR      r3,[r1,#0x10]
        0x00003ce0:    f7fdfd46    ..F.    BL       NVIC_EnableIRQ ; 0x1770
        0x00003ce4:    f7fffa0a    ....    BL       UART0_Init ; 0x30fc
        0x00003ce8:    f7fffad4    ....    BL       UART1_Init ; 0x3294
        0x00003cec:    204b        K       MOVS     r0,#0x4b
        0x00003cee:    01c0        ..      LSLS     r0,r0,#7
        0x00003cf0:    f7fffb2c    ..,.    BL       UART2_Init ; 0x334c
        0x00003cf4:    f7fdf826    ..&.    BL       DisableHostUartTx ; 0xd44
        0x00003cf8:    200d        .       MOVS     r0,#0xd
        0x00003cfa:    f7fdfd39    ..9.    BL       NVIC_EnableIRQ ; 0x1770
        0x00003cfe:    200c        .       MOVS     r0,#0xc
        0x00003d00:    f7fdfd36    ..6.    BL       NVIC_EnableIRQ ; 0x1770
        0x00003d04:    f7feff18    ....    BL       SoftI2cMasterInit ; 0x2b38
        0x00003d08:    4d3f        ?M      LDR      r5,[pc,#252] ; [0x3e08] = 0x2000002c
        0x00003d0a:    2001        .       MOVS     r0,#1
        0x00003d0c:    72a8        .r      STRB     r0,[r5,#0xa]
        0x00003d0e:    f7fdfdcf    ....    BL       ReadMyMeterID ; 0x18b0
        0x00003d12:    483e        >H      LDR      r0,[pc,#248] ; [0x3e0c] = 0x200002d4
        0x00003d14:    2103        .!      MOVS     r1,#3
        0x00003d16:    7006        .p      STRB     r6,[r0,#0]
        0x00003d18:    7041        Ap      STRB     r1,[r0,#1]
        0x00003d1a:    462f        /F      MOV      r7,r5
        0x00003d1c:    20ff        .       MOVS     r0,#0xff
        0x00003d1e:    3f20         ?      SUBS     r7,r7,#0x20
        0x00003d20:    7738        8w      STRB     r0,[r7,#0x1c]
        0x00003d22:    77b8        .w      STRB     r0,[r7,#0x1e]
        0x00003d24:    462c        ,F      MOV      r4,r5
        0x00003d26:    757e        ~u      STRB     r6,[r7,#0x15]
        0x00003d28:    3420         4      ADDS     r4,r4,#0x20
        0x00003d2a:    8266        f.      STRH     r6,[r4,#0x12]
        0x00003d2c:    f7fcff84    ....    BL       DefaultValueTest ; 0xc38
        0x00003d30:    8266        f.      STRH     r6,[r4,#0x12]
        0x00003d32:    f7fdfdbd    ....    BL       ReadMyMeterID ; 0x18b0
        0x00003d36:    f7fcff67    ..g.    BL       DefaultStateSetup ; 0xc08
        0x00003d3a:    2001        .       MOVS     r0,#1
        0x00003d3c:    73e8        .s      STRB     r0,[r5,#0xf]
        0x00003d3e:    66be        .f      STR      r6,[r7,#0x68]
        0x00003d40:    74e8        .t      STRB     r0,[r5,#0x13]
        0x00003d42:    2040        @       MOVS     r0,#0x40
        0x00003d44:    76f8        .v      STRB     r0,[r7,#0x1b]
        0x00003d46:    7778        xw      STRB     r0,[r7,#0x1d]
        0x00003d48:    73ae        .s      STRB     r6,[r5,#0xe]
        0x00003d4a:    2001        .       MOVS     r0,#1
        0x00003d4c:    76e8        .v      STRB     r0,[r5,#0x1b]
        0x00003d4e:    20c8        .       MOVS     r0,#0xc8
        0x00003d50:    82e0        ..      STRH     r0,[r4,#0x16]
        0x00003d52:    482f        /H      LDR      r0,[pc,#188] ; [0x3e10] = 0x200000bd
        0x00003d54:    492f        /I      LDR      r1,[pc,#188] ; [0x3e14] = 0x200000b8
        0x00003d56:    7006        .p      STRB     r6,[r0,#0]
        0x00003d58:    77ae        .w      STRB     r6,[r5,#0x1e]
        0x00003d5a:    726e        nr      STRB     r6,[r5,#9]
        0x00003d5c:    82a6        ..      STRH     r6,[r4,#0x14]
        0x00003d5e:    2001        .       MOVS     r0,#1
        0x00003d60:    77e8        .w      STRB     r0,[r5,#0x1f]
        0x00003d62:    7008        .p      STRB     r0,[r1,#0]
        0x00003d64:    482c        ,H      LDR      r0,[pc,#176] ; [0x3e18] = 0x200000b6
        0x00003d66:    7006        .p      STRB     r6,[r0,#0]
        0x00003d68:    66be        .f      STR      r6,[r7,#0x68]
        0x00003d6a:    8266        f.      STRH     r6,[r4,#0x12]
        0x00003d6c:    6eb9        .n      LDR      r1,[r7,#0x68]
        0x00003d6e:    2964        d)      CMP      r1,#0x64
        0x00003d70:    d3fb        ..      BCC      0x3d6a ; main + 234
        0x00003d72:    f7fcfdab    ....    BL       ChangeMeterSetting ; 0x8cc
        0x00003d76:    f7fcfd75    ..u.    BL       ChangeDirMeterRS485 ; 0x864
        0x00003d7a:    f7fdfcb1    ....    BL       MeterProcess ; 0x16e0
        0x00003d7e:    4826        &H      LDR      r0,[pc,#152] ; [0x3e18] = 0x200000b6
        0x00003d80:    7800        .x      LDRB     r0,[r0,#0]
        0x00003d82:    2800        .(      CMP      r0,#0
        0x00003d84:    d0f5        ..      BEQ      0x3d72 ; main + 242
        0x00003d86:    f7fdfc61    ..a.    BL       MeterPolling ; 0x164c
        0x00003d8a:    f7fcfd6b    ..k.    BL       ChangeDirMeterRS485 ; 0x864
        0x00003d8e:    f7fdfca7    ....    BL       MeterProcess ; 0x16e0
        0x00003d92:    7ba8        .{      LDRB     r0,[r5,#0xe]
        0x00003d94:    28fa        .(      CMP      r0,#0xfa
        0x00003d96:    d203        ..      BCS      0x3da0 ; main + 288
        0x00003d98:    481c        .H      LDR      r0,[pc,#112] ; [0x3e0c] = 0x200002d4
        0x00003d9a:    68c0        .h      LDR      r0,[r0,#0xc]
        0x00003d9c:    2800        .(      CMP      r0,#0
        0x00003d9e:    d0f2        ..      BEQ      0x3d86 ; main + 262
        0x00003da0:    6ef8        .n      LDR      r0,[r7,#0x6c]
        0x00003da2:    6738        8g      STR      r0,[r7,#0x70]
        0x00003da4:    2001        .       MOVS     r0,#1
        0x00003da6:    7260        `r      STRB     r0,[r4,#9]
        0x00003da8:    8266        f.      STRH     r6,[r4,#0x12]
        0x00003daa:    f7fdfd81    ....    BL       ReadMyMeterID ; 0x18b0
        0x00003dae:    f7fdf8dd    ....    BL       HostProcess ; 0xf6c
        0x00003db2:    f7fcfd79    ..y.    BL       ChangeHostRS485Tx ; 0x8a8
        0x00003db6:    f7fdfc93    ....    BL       MeterProcess ; 0x16e0
        0x00003dba:    f7fcfd53    ..S.    BL       ChangeDirMeterRS485 ; 0x864
        0x00003dbe:    f7fdfeed    ....    BL       ReaderProcess ; 0x1b9c
        0x00003dc2:    f7fcfd61    ..a.    BL       ChangeDirReaderRS485 ; 0x888
        0x00003dc6:    f7fdfda5    ....    BL       ReaderPolling ; 0x1914
        0x00003dca:    f7fdfc3f    ..?.    BL       MeterPolling ; 0x164c
        0x00003dce:    f7fef939    ..9.    BL       RoomPowerManager_Digital ; 0x2044
        0x00003dd2:    8266        f.      STRH     r6,[r4,#0x12]
        0x00003dd4:    f7fef814    ....    BL       RecoverSystemMoniter ; 0x1e00
        0x00003dd8:    f7fcfe60    ..`.    BL       CheckStartRecord ; 0xa9c
        0x00003ddc:    f7fcfe24    ..$.    BL       CheckReaderData ; 0xa28
        0x00003de0:    f7fcfde4    ....    BL       CheckModeNRelay ; 0x9ac
        0x00003de4:    f7fffb3c    ..<.    BL       UserBalanceCal ; 0x3460
        0x00003de8:    f7fcfe3c    ..<.    BL       CheckReaderReset ; 0xa64
        0x00003dec:    f7fdfbf2    ....    BL       LEDs_Process ; 0x15d4
        0x00003df0:    e7da        ..      B        0x3da8 ; main + 296
    $d
        0x00003df2:    0000        ..      DCW    0
        0x00003df4:    50000100    ...P    DCD    1342177536
        0x00003df8:    500042c0    .B.P    DCD    1342194368
        0x00003dfc:    00057e3f    ?~..    DCD    359999
        0x00003e00:    e000e000    ....    DCD    3758153728
        0x00003e04:    e000ed04    ....    DCD    3758157060
        0x00003e08:    2000002c    ,..     DCD    536870956
        0x00003e0c:    200002d4    ...     DCD    536871636
        0x00003e10:    200000bd    ...     DCD    536871101
        0x00003e14:    200000b8    ...     DCD    536871096
        0x00003e18:    200000b6    ...     DCD    536871094
    $t
    i.soft_i2c_eeprom_write_byte
    soft_i2c_eeprom_write_byte
        0x00003e1c:    b570        p.      PUSH     {r4-r6,lr}
        0x00003e1e:    4603        .F      MOV      r3,r0
        0x00003e20:    4c16        .L      LDR      r4,[pc,#88] ; [0x3e7c] = 0x50004280
        0x00003e22:    2000        .       MOVS     r0,#0
        0x00003e24:    4616        .F      MOV      r6,r2
        0x00003e26:    460d        .F      MOV      r5,r1
        0x00003e28:    6020         `      STR      r0,[r4,#0]
        0x00003e2a:    2002        .       MOVS     r0,#2
        0x00003e2c:    f7ffff14    ....    BL       a_delay_us ; 0x3c58
        0x00003e30:    0658        X.      LSLS     r0,r3,#25
        0x00003e32:    0e00        ..      LSRS     r0,r0,#24
        0x00003e34:    f7fefe98    ....    BL       SoftI2cMasterStart ; 0x2b68
        0x00003e38:    2800        .(      CMP      r0,#0
        0x00003e3a:    d01d        ..      BEQ      0x3e78 ; soft_i2c_eeprom_write_byte + 92
        0x00003e3c:    2002        .       MOVS     r0,#2
        0x00003e3e:    f7ffff0b    ....    BL       a_delay_us ; 0x3c58
        0x00003e42:    0a28        (.      LSRS     r0,r5,#8
        0x00003e44:    f7fefece    ....    BL       SoftI2cMasterWrite ; 0x2be4
        0x00003e48:    2800        .(      CMP      r0,#0
        0x00003e4a:    d015        ..      BEQ      0x3e78 ; soft_i2c_eeprom_write_byte + 92
        0x00003e4c:    b2e8        ..      UXTB     r0,r5
        0x00003e4e:    f7fefec9    ....    BL       SoftI2cMasterWrite ; 0x2be4
        0x00003e52:    2800        .(      CMP      r0,#0
        0x00003e54:    d010        ..      BEQ      0x3e78 ; soft_i2c_eeprom_write_byte + 92
        0x00003e56:    4630        0F      MOV      r0,r6
        0x00003e58:    f7fefec4    ....    BL       SoftI2cMasterWrite ; 0x2be4
        0x00003e5c:    2800        .(      CMP      r0,#0
        0x00003e5e:    d00b        ..      BEQ      0x3e78 ; soft_i2c_eeprom_write_byte + 92
        0x00003e60:    f7fefea2    ....    BL       SoftI2cMasterStop ; 0x2ba8
        0x00003e64:    2300        .#      MOVS     r3,#0
        0x00003e66:    2064        d       MOVS     r0,#0x64
        0x00003e68:    f7fffef6    ....    BL       a_delay_us ; 0x3c58
        0x00003e6c:    1c5b        [.      ADDS     r3,r3,#1
        0x00003e6e:    b2db        ..      UXTB     r3,r3
        0x00003e70:    2b0a        .+      CMP      r3,#0xa
        0x00003e72:    d3f8        ..      BCC      0x3e66 ; soft_i2c_eeprom_write_byte + 74
        0x00003e74:    2001        .       MOVS     r0,#1
        0x00003e76:    6020         `      STR      r0,[r4,#0]
        0x00003e78:    bd70        p.      POP      {r4-r6,pc}
    $d
        0x00003e7a:    0000        ..      DCW    0
        0x00003e7c:    50004280    .B.P    DCD    1342194304
    $t
    i.stackDump
    stackDump
        0x00003e80:    b510        ..      PUSH     {r4,lr}
        0x00003e82:    4604        .F      MOV      r4,r0
        0x00003e84:    6801        .h      LDR      r1,[r0,#0]
        0x00003e86:    a010        ..      ADR      r0,{pc}+0x42 ; 0x3ec8
        0x00003e88:    f7fffd4c    ..L.    BL       __0printf$5 ; 0x3924
        0x00003e8c:    a012        ..      ADR      r0,{pc}+0x4c ; 0x3ed8
        0x00003e8e:    6861        ah      LDR      r1,[r4,#4]
        0x00003e90:    f7fffd48    ..H.    BL       __0printf$5 ; 0x3924
        0x00003e94:    a014        ..      ADR      r0,{pc}+0x54 ; 0x3ee8
        0x00003e96:    68a1        .h      LDR      r1,[r4,#8]
        0x00003e98:    f7fffd44    ..D.    BL       __0printf$5 ; 0x3924
        0x00003e9c:    a016        ..      ADR      r0,{pc}+0x5c ; 0x3ef8
        0x00003e9e:    68e1        .h      LDR      r1,[r4,#0xc]
        0x00003ea0:    f7fffd40    ..@.    BL       __0printf$5 ; 0x3924
        0x00003ea4:    a018        ..      ADR      r0,{pc}+0x64 ; 0x3f08
        0x00003ea6:    6921        !i      LDR      r1,[r4,#0x10]
        0x00003ea8:    f7fffd3c    ..<.    BL       __0printf$5 ; 0x3924
        0x00003eac:    a01a        ..      ADR      r0,{pc}+0x6c ; 0x3f18
        0x00003eae:    6961        ai      LDR      r1,[r4,#0x14]
        0x00003eb0:    f7fffd38    ..8.    BL       __0printf$5 ; 0x3924
        0x00003eb4:    a01c        ..      ADR      r0,{pc}+0x74 ; 0x3f28
        0x00003eb6:    69a1        .i      LDR      r1,[r4,#0x18]
        0x00003eb8:    f7fffd34    ..4.    BL       __0printf$5 ; 0x3924
        0x00003ebc:    a01e        ..      ADR      r0,{pc}+0x7c ; 0x3f38
        0x00003ebe:    69e1        .i      LDR      r1,[r4,#0x1c]
        0x00003ec0:    f7fffd30    ..0.    BL       __0printf$5 ; 0x3924
        0x00003ec4:    bd10        ..      POP      {r4,pc}
    $d
        0x00003ec6:    0000        ..      DCW    0
        0x00003ec8:    20203072    r0      DCD    538980466
        0x00003ecc:    7830203d    = 0x    DCD    2016419901
        0x00003ed0:    0a786c25    %lx.    DCD    175664165
        0x00003ed4:    00000000    ....    DCD    0
        0x00003ed8:    20203172    r1      DCD    538980722
        0x00003edc:    7830203d    = 0x    DCD    2016419901
        0x00003ee0:    0a786c25    %lx.    DCD    175664165
        0x00003ee4:    00000000    ....    DCD    0
        0x00003ee8:    20203272    r2      DCD    538980978
        0x00003eec:    7830203d    = 0x    DCD    2016419901
        0x00003ef0:    0a786c25    %lx.    DCD    175664165
        0x00003ef4:    00000000    ....    DCD    0
        0x00003ef8:    20203372    r3      DCD    538981234
        0x00003efc:    7830203d    = 0x    DCD    2016419901
        0x00003f00:    0a786c25    %lx.    DCD    175664165
        0x00003f04:    00000000    ....    DCD    0
        0x00003f08:    20323172    r12     DCD    540160370
        0x00003f0c:    7830203d    = 0x    DCD    2016419901
        0x00003f10:    0a786c25    %lx.    DCD    175664165
        0x00003f14:    00000000    ....    DCD    0
        0x00003f18:    2020726c    lr      DCD    538997356
        0x00003f1c:    7830203d    = 0x    DCD    2016419901
        0x00003f20:    0a786c25    %lx.    DCD    175664165
        0x00003f24:    00000000    ....    DCD    0
        0x00003f28:    20206370    pc      DCD    538993520
        0x00003f2c:    7830203d    = 0x    DCD    2016419901
        0x00003f30:    0a786c25    %lx.    DCD    175664165
        0x00003f34:    00000000    ....    DCD    0
        0x00003f38:    20727370    psr     DCD    544371568
        0x00003f3c:    7830203d    = 0x    DCD    2016419901
        0x00003f40:    0a786c25    %lx.    DCD    175664165
        0x00003f44:    00000000    ....    DCD    0
    $d.realdata
    .constdata
    gau32ClkSrcTbl
        0x00003f48:    00b71b00    ....    DCD    12000000
        0x00003f4c:    00008000    ....    DCD    32768
        0x00003f50:    0448e000    ..H.    DCD    71884800
        0x00003f54:    00002710    .'..    DCD    10000
        0x00003f58:    02dc6c00    .l..    DCD    48000000
        0x00003f5c:    00000000    ....    DCD    0
        0x00003f60:    00000000    ....    DCD    0
        0x00003f64:    01518000    ..Q.    DCD    22118400
    .constdata
        0x00003f68:    00b71b00    ....    DCD    12000000
        0x00003f6c:    00000000    ....    DCD    0
        0x00003f70:    00008000    ....    DCD    32768
        0x00003f74:    01518000    ..Q.    DCD    22118400
        0x00003f78:    00b71b00    ....    DCD    12000000
        0x00003f7c:    00000000    ....    DCD    0
        0x00003f80:    00008000    ....    DCD    32768
        0x00003f84:    01518000    ..Q.    DCD    22118400
        0x00003f88:    00b71b00    ....    DCD    12000000
        0x00003f8c:    00000000    ....    DCD    0
        0x00003f90:    00008000    ....    DCD    32768
        0x00003f94:    01518000    ..Q.    DCD    22118400
        0x00003f98:    00b71b00    ....    DCD    12000000
        0x00003f9c:    00000000    ....    DCD    0
        0x00003fa0:    00008000    ....    DCD    32768
        0x00003fa4:    01518000    ..Q.    DCD    22118400
    .constdata
    auchCRCHi
        0x00003fa8:    4081c100    ...@    DCD    1082245376
        0x00003fac:    4180c001    ...A    DCD    1098956801
        0x00003fb0:    4180c001    ...A    DCD    1098956801
        0x00003fb4:    4081c100    ...@    DCD    1082245376
        0x00003fb8:    4180c001    ...A    DCD    1098956801
        0x00003fbc:    4081c100    ...@    DCD    1082245376
        0x00003fc0:    4081c100    ...@    DCD    1082245376
        0x00003fc4:    4180c001    ...A    DCD    1098956801
        0x00003fc8:    4180c001    ...A    DCD    1098956801
        0x00003fcc:    4081c100    ...@    DCD    1082245376
        0x00003fd0:    4081c100    ...@    DCD    1082245376
        0x00003fd4:    4180c001    ...A    DCD    1098956801
        0x00003fd8:    4081c100    ...@    DCD    1082245376
        0x00003fdc:    4180c001    ...A    DCD    1098956801
        0x00003fe0:    4180c001    ...A    DCD    1098956801
        0x00003fe4:    4081c100    ...@    DCD    1082245376
        0x00003fe8:    4180c001    ...A    DCD    1098956801
        0x00003fec:    4081c100    ...@    DCD    1082245376
        0x00003ff0:    4081c100    ...@    DCD    1082245376
        0x00003ff4:    4180c001    ...A    DCD    1098956801
        0x00003ff8:    4081c100    ...@    DCD    1082245376
        0x00003ffc:    4180c001    ...A    DCD    1098956801
        0x00004000:    4180c001    ...A    DCD    1098956801
        0x00004004:    4081c100    ...@    DCD    1082245376
        0x00004008:    4081c100    ...@    DCD    1082245376
        0x0000400c:    4180c001    ...A    DCD    1098956801
        0x00004010:    4180c001    ...A    DCD    1098956801
        0x00004014:    4081c100    ...@    DCD    1082245376
        0x00004018:    4180c001    ...A    DCD    1098956801
        0x0000401c:    4081c100    ...@    DCD    1082245376
        0x00004020:    4081c100    ...@    DCD    1082245376
        0x00004024:    4180c001    ...A    DCD    1098956801
        0x00004028:    4180c001    ...A    DCD    1098956801
        0x0000402c:    4081c100    ...@    DCD    1082245376
        0x00004030:    4081c100    ...@    DCD    1082245376
        0x00004034:    4180c001    ...A    DCD    1098956801
        0x00004038:    4081c100    ...@    DCD    1082245376
        0x0000403c:    4180c001    ...A    DCD    1098956801
        0x00004040:    4180c001    ...A    DCD    1098956801
        0x00004044:    4081c100    ...@    DCD    1082245376
        0x00004048:    4081c100    ...@    DCD    1082245376
        0x0000404c:    4180c001    ...A    DCD    1098956801
        0x00004050:    4180c001    ...A    DCD    1098956801
        0x00004054:    4081c100    ...@    DCD    1082245376
        0x00004058:    4180c001    ...A    DCD    1098956801
        0x0000405c:    4081c100    ...@    DCD    1082245376
        0x00004060:    4081c100    ...@    DCD    1082245376
        0x00004064:    4180c001    ...A    DCD    1098956801
        0x00004068:    4081c100    ...@    DCD    1082245376
        0x0000406c:    4180c001    ...A    DCD    1098956801
        0x00004070:    4180c001    ...A    DCD    1098956801
        0x00004074:    4081c100    ...@    DCD    1082245376
        0x00004078:    4180c001    ...A    DCD    1098956801
        0x0000407c:    4081c100    ...@    DCD    1082245376
        0x00004080:    4081c100    ...@    DCD    1082245376
        0x00004084:    4180c001    ...A    DCD    1098956801
        0x00004088:    4180c001    ...A    DCD    1098956801
        0x0000408c:    4081c100    ...@    DCD    1082245376
        0x00004090:    4081c100    ...@    DCD    1082245376
        0x00004094:    4180c001    ...A    DCD    1098956801
        0x00004098:    4081c100    ...@    DCD    1082245376
        0x0000409c:    4180c001    ...A    DCD    1098956801
        0x000040a0:    4180c001    ...A    DCD    1098956801
        0x000040a4:    4081c100    ...@    DCD    1082245376
    auchCRCLo
        0x000040a8:    01c1c000    ....    DCD    29474816
        0x000040ac:    c20203c3    ....    DCD    3254911939
        0x000040b0:    c70706c6    ....    DCD    3339126470
        0x000040b4:    04c4c505    ....    DCD    80004357
        0x000040b8:    cd0d0ccc    ....    DCD    3440184524
        0x000040bc:    0ececf0f    ....    DCD    248434447
        0x000040c0:    0bcbca0a    ....    DCD    197904906
        0x000040c4:    c80809c9    ....    DCD    3355969993
        0x000040c8:    d91918d8    ....    DCD    3642300632
        0x000040cc:    1adadb1b    ....    DCD    450550555
        0x000040d0:    1fdfde1e    ....    DCD    534765086
        0x000040d4:    dc1c1ddd    ....    DCD    3692830173
        0x000040d8:    15d5d414    ....    DCD    366334996
        0x000040dc:    d61617d7    ....    DCD    3591772119
        0x000040e0:    d31312d2    ....    DCD    3541242578
        0x000040e4:    10d0d111    ....    DCD    282120465
        0x000040e8:    f13130f0    .01.    DCD    4046532848
        0x000040ec:    32f2f333    3..2    DCD    854782771
        0x000040f0:    37f7f636    6..7    DCD    938997302
        0x000040f4:    f43435f5    .54.    DCD    4097062389
        0x000040f8:    3dfdfc3c    <..=    DCD    1040055356
        0x000040fc:    fe3e3fff    .?>.    DCD    4265492479
        0x00004100:    fb3b3afa    .:;.    DCD    4214962938
        0x00004104:    38f8f939    9..8    DCD    955840825
        0x00004108:    29e9e828    (..)    DCD    703195176
        0x0000410c:    ea2a2beb    .+*.    DCD    3928632299
        0x00004110:    ef2f2eee    ../.    DCD    4012846830
        0x00004114:    2ceced2d    -..,    DCD    753724717
        0x00004118:    e52524e4    .$%.    DCD    3844416740
        0x0000411c:    26e6e727    '..&    DCD    652666663
        0x00004120:    23e3e222    "..#    DCD    602137122
        0x00004124:    e02021e1    .! .    DCD    3760202209
        0x00004128:    a16160a0    .`a.    DCD    2707513504
        0x0000412c:    62a2a363    c..b    DCD    1654825827
        0x00004130:    67a7a666    f..g    DCD    1739040358
        0x00004134:    a46465a5    .ed.    DCD    2758043045
        0x00004138:    6dadac6c    l..m    DCD    1840098412
        0x0000413c:    ae6e6faf    .on.    DCD    2926473135
        0x00004140:    ab6b6aaa    .jk.    DCD    2875943594
        0x00004144:    68a8a969    i..h    DCD    1755883881
        0x00004148:    79b9b878    x..y    DCD    2042214520
        0x0000414c:    ba7a7bbb    .{z.    DCD    3128589243
        0x00004150:    bf7f7ebe    .~..    DCD    3212803774
        0x00004154:    7cbcbd7d    }..|    DCD    2092744061
        0x00004158:    b57574b4    .tu.    DCD    3044373684
        0x0000415c:    76b6b777    w..v    DCD    1991686007
        0x00004160:    73b3b272    r..s    DCD    1941156466
        0x00004164:    b07071b1    .qp.    DCD    2960159153
        0x00004168:    51919050    P..Q    DCD    1368494160
        0x0000416c:    92525393    .SR.    DCD    2454868883
        0x00004170:    97575696    .VW.    DCD    2539083414
        0x00004174:    54949555    U..T    DCD    1419023701
        0x00004178:    9d5d5c9c    .\].    DCD    2640141468
        0x0000417c:    5e9e9f5f    _..^    DCD    1587453791
        0x00004180:    5b9b9a5a    Z..[    DCD    1536924250
        0x00004184:    98585999    .YX.    DCD    2555926937
        0x00004188:    89494888    .HI.    DCD    2303281288
        0x0000418c:    4a8a8b4b    K..J    DCD    1250593611
        0x00004190:    4f8f8e4e    N..O    DCD    1334808142
        0x00004194:    8c4c4d8d    .ML.    DCD    2353810829
        0x00004198:    45858444    D..E    DCD    1166378052
        0x0000419c:    86464787    .GF.    DCD    2252752775
        0x000041a0:    83434282    .BC.    DCD    2202223234
        0x000041a4:    40808141    A..@    DCD    1082163521
    .constdata
        0x000041a8:    00000000    ....    DCD    0
        0x000041ac:    00000020     ...    DCD    32
        0x000041b0:    00000000    ....    DCD    0
        0x000041b4:    00000004    ....    DCD    4
        0x000041b8:    0000000c    ....    DCD    12
        0x000041bc:    00000024    $...    DCD    36
        0x000041c0:    00000000    ....    DCD    0
        0x000041c4:    00000004    ....    DCD    4
        0x000041c8:    0000002c    ,...    DCD    44
        0x000041cc:    00000000    ....    DCD    0
        0x000041d0:    00000004    ....    DCD    4
        0x000041d4:    0000002c    ,...    DCD    44
    Region$$Table$$Base
        0x000041d8:    000041f8    .A..    DCD    16888
        0x000041dc:    20000000    ...     DCD    536870912
        0x000041e0:    000000cc    ....    DCD    204
        0x000041e4:    0000395e    ^9..    DCD    14686
        0x000041e8:    000042c4    .B..    DCD    17092
        0x000041ec:    200000cc    ...     DCD    536871116
        0x000041f0:    00000b4c    L...    DCD    2892
        0x000041f4:    0000396e    n9..    DCD    14702
    Region$$Table$$Limit

** Section #2 'ER_RW' (SHT_PROGBITS) [SHF_ALLOC + SHF_WRITE]
    Size   : 204 bytes (alignment 4)
    Address: 0x20000000


** Section #3 'ER_ZI' (SHT_NOBITS) [SHF_ALLOC + SHF_WRITE]
    Size   : 2892 bytes (alignment 8)
    Address: 0x200000cc


** Section #4 '.debug_abbrev' (SHT_PROGBITS)
    Size   : 1476 bytes


** Section #5 '.debug_frame' (SHT_PROGBITS)
    Size   : 3900 bytes


** Section #6 '.debug_info' (SHT_PROGBITS)
    Size   : 77824 bytes


** Section #7 '.debug_line' (SHT_PROGBITS)
    Size   : 29528 bytes


** Section #8 '.debug_loc' (SHT_PROGBITS)
    Size   : 8876 bytes


** Section #9 '.debug_macinfo' (SHT_PROGBITS)
    Size   : 480648 bytes


** Section #10 '.debug_pubnames' (SHT_PROGBITS)
    Size   : 9213 bytes


** Section #11 '.symtab' (SHT_SYMTAB)
    Size   : 14672 bytes (alignment 4)
    String table #12 '.strtab'
    Last local symbol no. 519


** Section #12 '.strtab' (SHT_STRTAB)
    Size   : 11260 bytes


** Section #13 '.note' (SHT_NOTE)
    Size   : 28 bytes (alignment 4)


** Section #14 '.comment' (SHT_PROGBITS)
    Size   : 20168 bytes


** Section #15 '.shstrtab' (SHT_STRTAB)
    Size   : 156 bytes


