
========================================================================

** ELF Header Information

    File Name: .\obj\FW_AO2024_Cpu_MeterSystem_Meter_1261_v01.axf

    Machine class: ELFCLASS32 (32-bit)
    Data encoding: ELFDATA2LSB (Little endian)
    Header version: EV_CURRENT (Current version)
    Operating System ABI: none
    ABI Version: 0
    File Type: ET_EXEC (Executable) (2)
    Machine: EM_ARM (ARM)

    Image Entry point: 0x000000d5
    Flags: EF_ARM_HASENTRY + EF_ARM_ABI_FLOAT_SOFT (0x05000202)

    ARM ELF revision: 5 (ABI version 2)

    Conforms to Soft float procedure-call standard

    Built with
    Component: Arm Compiler for Embedded 6.23 Tool: armasm [5f102300]
    Component: Arm Compiler for Embedded 6.23 Tool: armlink [5f102400]

    Header size: 52 bytes (0x34)
    Program header entry size: 32 bytes (0x20)
    Section header entry size: 40 bytes (0x28)

    Program header entries: 1
    Section header entries: 15

    Program header offset: 156416 (0x00026300)
    Section header offset: 156448 (0x00026320)

    Section header string table index: 14

========================================================================

** Program header #0 (PT_LOAD) [PF_X + PF_W + PF_R + PF_ARM_ENTRY]
    Size : 33072 bytes (27640 bytes in file)
    Virtual address: 0x00000000 (Alignment 8)


========================================================================

** Section #1 'ER_IROM1' (SHT_PROGBITS) [SHF_ALLOC + SHF_EXECINSTR]
    Size   : 27624 bytes (alignment 4)
    Address: 0x00000000

    $d.realdata
    RESET
    __Vectors
        0x00000000:    20001548    H..     DCD    536876360
        0x00000004:    000000d5    ....    DCD    213
        0x00000008:    000000d9    ....    DCD    217
        0x0000000c:    000000db    ....    DCD    219
        0x00000010:    00000000    ....    DCD    0
        0x00000014:    00000000    ....    DCD    0
        0x00000018:    00000000    ....    DCD    0
        0x0000001c:    00000000    ....    DCD    0
        0x00000020:    00000000    ....    DCD    0
        0x00000024:    00000000    ....    DCD    0
        0x00000028:    00000000    ....    DCD    0
        0x0000002c:    000000eb    ....    DCD    235
        0x00000030:    00000000    ....    DCD    0
        0x00000034:    00000000    ....    DCD    0
        0x00000038:    000000ed    ....    DCD    237
        0x0000003c:    000049c9    .I..    DCD    18889
        0x00000040:    000000f1    ....    DCD    241
        0x00000044:    00005735    5W..    DCD    22325
        0x00000048:    000000f1    ....    DCD    241
        0x0000004c:    000000f1    ....    DCD    241
        0x00000050:    000000f1    ....    DCD    241
        0x00000054:    000000f1    ....    DCD    241
        0x00000058:    000000f1    ....    DCD    241
        0x0000005c:    000000f1    ....    DCD    241
        0x00000060:    000000f1    ....    DCD    241
        0x00000064:    000000f1    ....    DCD    241
        0x00000068:    000000f1    ....    DCD    241
        0x0000006c:    000000f1    ....    DCD    241
        0x00000070:    00004c01    .L..    DCD    19457
        0x00000074:    0000509d    .P..    DCD    20637
        0x00000078:    000000f1    ....    DCD    241
        0x0000007c:    000000f1    ....    DCD    241
        0x00000080:    000000f1    ....    DCD    241
        0x00000084:    000000f1    ....    DCD    241
        0x00000088:    000000f1    ....    DCD    241
        0x0000008c:    000000f1    ....    DCD    241
        0x00000090:    000000f1    ....    DCD    241
        0x00000094:    000000f1    ....    DCD    241
        0x00000098:    000000f1    ....    DCD    241
        0x0000009c:    000000f1    ....    DCD    241
        0x000000a0:    000000f1    ....    DCD    241
        0x000000a4:    000000f1    ....    DCD    241
        0x000000a8:    000000f1    ....    DCD    241
        0x000000ac:    000000f1    ....    DCD    241
        0x000000b0:    000000f1    ....    DCD    241
        0x000000b4:    000000f1    ....    DCD    241
        0x000000b8:    000000f1    ....    DCD    241
        0x000000bc:    000000f1    ....    DCD    241
    $t
    .ARM.Collect$$$$00000000
    .ARM.Collect$$$$00000001
    __main
    _main_stk
        0x000000c0:    4803        .H      LDR      r0,__lit__00000000 ; [0xd0] = 0x20001548
        0x000000c2:    4685        .F      MOV      sp,r0
    .ARM.Collect$$$$00000004
    _main_scatterload
        0x000000c4:    f000fb28    ..(.    BL       __scatterload ; 0x718
    .ARM.Collect$$$$00000008
    .ARM.Collect$$$$0000000A
    .ARM.Collect$$$$0000000B
    __main_after_scatterload
    _main_clock
    _main_cpp_init
    _main_init
        0x000000c8:    4800        .H      LDR      r0,[pc,#0] ; [0xcc] = 0x5d4d
        0x000000ca:    4700        .G      BX       r0
    $d
        0x000000cc:    00005d4d    M]..    DCD    23885
    .ARM.Collect$$$$00002712
    __lit__00000000
    .ARM.Collect$$$$0000000D
    .ARM.Collect$$$$0000000F
    __rt_final_cpp
    __rt_final_exit
        0x000000d0:    20001548    H..     DCD    536876360
    $t
    .text
    Reset_Handler
        0x000000d4:    480b        .H      LDR      r0,[pc,#44] ; [0x104] = 0xc1
        0x000000d6:    4700        .G      BX       r0
    NMI_Handler
        0x000000d8:    e7fe        ..      B        NMI_Handler ; 0xd8
    HardFault_Handler
        0x000000da:    4670        pF      MOV      r0,lr
        0x000000dc:    f3ef8108    ....    MRS      r1,MSP
        0x000000e0:    f3ef8209    ....    MRS      r2,PSP
        0x000000e4:    4b08        .K      LDR      r3,[pc,#32] ; [0x108] = 0x3d15
        0x000000e6:    4798        .G      BLX      r3
        0x000000e8:    4700        .G      BX       r0
    SVC_Handler
        0x000000ea:    e7fe        ..      B        SVC_Handler ; 0xea
    PendSV_Handler
        0x000000ec:    e7fe        ..      B        PendSV_Handler ; 0xec
        0x000000ee:    e7fe        ..      B        0xee ; PendSV_Handler + 2
    Default_Handler
    ACMP01_IRQHandler
    ADC_IRQHandler
    BOD_IRQHandler
    CLKDIRC_IRQHandler
    EINT024_IRQHandler
    EINT135_IRQHandler
    GPAB_IRQHandler
    GPCDEF_IRQHandler
    I2C0_IRQHandler
    I2C1_IRQHandler
    PDMA_IRQHandler
    PWM0_IRQHandler
    PWM1_IRQHandler
    PWRWU_IRQHandler
    RTC_IRQHandler
    SC01_IRQHandler
    SPI0_IRQHandler
    SPI1_IRQHandler
    TMR0_IRQHandler
    TMR1_IRQHandler
    TMR2_IRQHandler
    TMR3_IRQHandler
    USBD_IRQHandler
    USCI_IRQHandler
        0x000000f0:    e7fe        ..      B        Default_Handler ; 0xf0
    $d
        0x000000f2:    0000        ..      DCW    0
    $t
    SH_DoCommand
        0x000000f4:    beab        ..      BKPT     #0xab
        0x000000f6:    4b05        .K      LDR      r3,[pc,#20] ; [0x10c] = 0x3f9d
        0x000000f8:    4674        tF      MOV      r4,lr
        0x000000fa:    4798        .G      BLX      r3
        0x000000fc:    4720         G      BX       r4
    __PC
        0x000000fe:    4670        pF      MOV      r0,lr
        0x00000100:    47f0        .G      BLX      lr
    $d
        0x00000102:    0000        ..      DCW    0
        0x00000104:    000000c1    ....    DCD    193
        0x00000108:    00003d15    .=..    DCD    15637
        0x0000010c:    00003f9d    .?..    DCD    16285
    $t
    .text
    __aeabi_memcpy
    __aeabi_memcpy4
    __aeabi_memcpy8
        0x00000110:    4603        .F      MOV      r3,r0
        0x00000112:    430b        .C      ORRS     r3,r3,r1
        0x00000114:    079b        ..      LSLS     r3,r3,#30
        0x00000116:    d003        ..      BEQ      0x120 ; __aeabi_memcpy + 16
        0x00000118:    e009        ..      B        0x12e ; __aeabi_memcpy + 30
        0x0000011a:    c908        ..      LDM      r1!,{r3}
        0x0000011c:    1f12        ..      SUBS     r2,r2,#4
        0x0000011e:    c008        ..      STM      r0!,{r3}
        0x00000120:    2a04        .*      CMP      r2,#4
        0x00000122:    d2fa        ..      BCS      0x11a ; __aeabi_memcpy + 10
        0x00000124:    e003        ..      B        0x12e ; __aeabi_memcpy + 30
        0x00000126:    780b        .x      LDRB     r3,[r1,#0]
        0x00000128:    7003        .p      STRB     r3,[r0,#0]
        0x0000012a:    1c40        @.      ADDS     r0,r0,#1
        0x0000012c:    1c49        I.      ADDS     r1,r1,#1
        0x0000012e:    1e52        R.      SUBS     r2,r2,#1
        0x00000130:    d2f9        ..      BCS      0x126 ; __aeabi_memcpy + 22
        0x00000132:    4770        pG      BX       lr
    .text
    __aeabi_fmul
        0x00000134:    4602        .F      MOV      r2,r0
        0x00000136:    b570        p.      PUSH     {r4-r6,lr}
        0x00000138:    404a        J@      EORS     r2,r2,r1
        0x0000013a:    0fd3        ..      LSRS     r3,r2,#31
        0x0000013c:    07db        ..      LSLS     r3,r3,#31
        0x0000013e:    0040        @.      LSLS     r0,r0,#1
        0x00000140:    d02d        -.      BEQ      0x19e ; __aeabi_fmul + 106
        0x00000142:    004a        J.      LSLS     r2,r1,#1
        0x00000144:    d02a        *.      BEQ      0x19c ; __aeabi_fmul + 104
        0x00000146:    0e01        ..      LSRS     r1,r0,#24
        0x00000148:    0e14        ..      LSRS     r4,r2,#24
        0x0000014a:    0200        ..      LSLS     r0,r0,#8
        0x0000014c:    0212        ..      LSLS     r2,r2,#8
        0x0000014e:    1909        ..      ADDS     r1,r1,r4
        0x00000150:    0a40        @.      LSRS     r0,r0,#9
        0x00000152:    0a52        R.      LSRS     r2,r2,#9
        0x00000154:    1884        ..      ADDS     r4,r0,r2
        0x00000156:    01e5        ..      LSLS     r5,r4,#7
        0x00000158:    4604        .F      MOV      r4,r0
        0x0000015a:    4354        TC      MULS     r4,r2,r4
        0x0000015c:    0a00        ..      LSRS     r0,r0,#8
        0x0000015e:    0a12        ..      LSRS     r2,r2,#8
        0x00000160:    042e        ..      LSLS     r6,r5,#16
        0x00000162:    4350        PC      MULS     r0,r2,r0
        0x00000164:    19a4        ..      ADDS     r4,r4,r6
        0x00000166:    1942        B.      ADDS     r2,r0,r5
        0x00000168:    0c20         .      LSRS     r0,r4,#16
        0x0000016a:    43c5        .C      MVNS     r5,r0
        0x0000016c:    18aa        ..      ADDS     r2,r5,r2
        0x0000016e:    0c12        ..      LSRS     r2,r2,#16
        0x00000170:    2501        .%      MOVS     r5,#1
        0x00000172:    03ad        ..      LSLS     r5,r5,#14
        0x00000174:    1c52        R.      ADDS     r2,r2,#1
        0x00000176:    1952        R.      ADDS     r2,r2,r5
        0x00000178:    0412        ..      LSLS     r2,r2,#16
        0x0000017a:    397f        .9      SUBS     r1,r1,#0x7f
        0x0000017c:    0424        $.      LSLS     r4,r4,#16
        0x0000017e:    d000        ..      BEQ      0x182 ; __aeabi_fmul + 78
        0x00000180:    1c52        R.      ADDS     r2,r2,#1
        0x00000182:    4310        .C      ORRS     r0,r0,r2
        0x00000184:    d401        ..      BMI      0x18a ; __aeabi_fmul + 86
        0x00000186:    0040        @.      LSLS     r0,r0,#1
        0x00000188:    1e49        I.      SUBS     r1,r1,#1
        0x0000018a:    b2c2        ..      UXTB     r2,r0
        0x0000018c:    060c        ..      LSLS     r4,r1,#24
        0x0000018e:    09c0        ..      LSRS     r0,r0,#7
        0x00000190:    1820         .      ADDS     r0,r4,r0
        0x00000192:    1c40        @.      ADDS     r0,r0,#1
        0x00000194:    0840        @.      LSRS     r0,r0,#1
        0x00000196:    2a80        .*      CMP      r2,#0x80
        0x00000198:    d002        ..      BEQ      0x1a0 ; __aeabi_fmul + 108
        0x0000019a:    e003        ..      B        0x1a4 ; __aeabi_fmul + 112
        0x0000019c:    2000        .       MOVS     r0,#0
        0x0000019e:    bd70        p.      POP      {r4-r6,pc}
        0x000001a0:    0840        @.      LSRS     r0,r0,#1
        0x000001a2:    0040        @.      LSLS     r0,r0,#1
        0x000001a4:    2900        .)      CMP      r1,#0
        0x000001a6:    da00        ..      BGE      0x1aa ; __aeabi_fmul + 118
        0x000001a8:    2000        .       MOVS     r0,#0
        0x000001aa:    4318        .C      ORRS     r0,r0,r3
        0x000001ac:    bd70        p.      POP      {r4-r6,pc}
    .text
    __aeabi_fdiv
        0x000001ae:    b570        p.      PUSH     {r4-r6,lr}
        0x000001b0:    4602        .F      MOV      r2,r0
        0x000001b2:    404a        J@      EORS     r2,r2,r1
        0x000001b4:    0fd5        ..      LSRS     r5,r2,#31
        0x000001b6:    0040        @.      LSLS     r0,r0,#1
        0x000001b8:    004a        J.      LSLS     r2,r1,#1
        0x000001ba:    07ed        ..      LSLS     r5,r5,#31
        0x000001bc:    0840        @.      LSRS     r0,r0,#1
        0x000001be:    0852        R.      LSRS     r2,r2,#1
        0x000001c0:    2800        .(      CMP      r0,#0
        0x000001c2:    d014        ..      BEQ      0x1ee ; __aeabi_fdiv + 64
        0x000001c4:    2a00        .*      CMP      r2,#0
        0x000001c6:    d012        ..      BEQ      0x1ee ; __aeabi_fdiv + 64
        0x000001c8:    0dc4        ..      LSRS     r4,r0,#23
        0x000001ca:    0dd3        ..      LSRS     r3,r2,#23
        0x000001cc:    0241        A.      LSLS     r1,r0,#9
        0x000001ce:    2001        .       MOVS     r0,#1
        0x000001d0:    05c0        ..      LSLS     r0,r0,#23
        0x000001d2:    0252        R.      LSLS     r2,r2,#9
        0x000001d4:    0a49        I.      LSRS     r1,r1,#9
        0x000001d6:    0a52        R.      LSRS     r2,r2,#9
        0x000001d8:    1ae4        ..      SUBS     r4,r4,r3
        0x000001da:    1809        ..      ADDS     r1,r1,r0
        0x000001dc:    1812        ..      ADDS     r2,r2,r0
        0x000001de:    347d        }4      ADDS     r4,r4,#0x7d
        0x000001e0:    4291        .B      CMP      r1,r2
        0x000001e2:    d301        ..      BCC      0x1e8 ; __aeabi_fdiv + 58
        0x000001e4:    1c64        d.      ADDS     r4,r4,#1
        0x000001e6:    e000        ..      B        0x1ea ; __aeabi_fdiv + 60
        0x000001e8:    0049        I.      LSLS     r1,r1,#1
        0x000001ea:    2c00        .,      CMP      r4,#0
        0x000001ec:    da01        ..      BGE      0x1f2 ; __aeabi_fdiv + 68
        0x000001ee:    2000        .       MOVS     r0,#0
        0x000001f0:    bd70        p.      POP      {r4-r6,pc}
        0x000001f2:    2300        .#      MOVS     r3,#0
        0x000001f4:    4291        .B      CMP      r1,r2
        0x000001f6:    d301        ..      BCC      0x1fc ; __aeabi_fdiv + 78
        0x000001f8:    1a89        ..      SUBS     r1,r1,r2
        0x000001fa:    4303        .C      ORRS     r3,r3,r0
        0x000001fc:    0840        @.      LSRS     r0,r0,#1
        0x000001fe:    0049        I.      LSLS     r1,r1,#1
        0x00000200:    2800        .(      CMP      r0,#0
        0x00000202:    d1f7        ..      BNE      0x1f4 ; __aeabi_fdiv + 70
        0x00000204:    2900        .)      CMP      r1,#0
        0x00000206:    d00a        ..      BEQ      0x21e ; __aeabi_fdiv + 112
        0x00000208:    4291        .B      CMP      r1,r2
        0x0000020a:    d102        ..      BNE      0x212 ; __aeabi_fdiv + 100
        0x0000020c:    2101        .!      MOVS     r1,#1
        0x0000020e:    07c9        ..      LSLS     r1,r1,#31
        0x00000210:    e005        ..      B        0x21e ; __aeabi_fdiv + 112
        0x00000212:    4291        .B      CMP      r1,r2
        0x00000214:    d201        ..      BCS      0x21a ; __aeabi_fdiv + 108
        0x00000216:    2101        .!      MOVS     r1,#1
        0x00000218:    e001        ..      B        0x21e ; __aeabi_fdiv + 112
        0x0000021a:    2101        .!      MOVS     r1,#1
        0x0000021c:    43c9        .C      MVNS     r1,r1
        0x0000021e:    05e0        ..      LSLS     r0,r4,#23
        0x00000220:    18c0        ..      ADDS     r0,r0,r3
        0x00000222:    1940        @.      ADDS     r0,r0,r5
        0x00000224:    f000f870    ..p.    BL       __I$use$fp ; 0x308
        0x00000228:    bd70        p.      POP      {r4-r6,pc}
    .text
    __aeabi_ui2f
        0x0000022a:    b510        ..      PUSH     {r4,lr}
        0x0000022c:    2200        ."      MOVS     r2,#0
        0x0000022e:    2396        .#      MOVS     r3,#0x96
        0x00000230:    4611        .F      MOV      r1,r2
        0x00000232:    f000f871    ..q.    BL       _float_epilogue ; 0x318
        0x00000236:    bd10        ..      POP      {r4,pc}
    .text
    __aeabi_f2iz
        0x00000238:    0fc2        ..      LSRS     r2,r0,#31
        0x0000023a:    0041        A.      LSLS     r1,r0,#1
        0x0000023c:    0240        @.      LSLS     r0,r0,#9
        0x0000023e:    2301        .#      MOVS     r3,#1
        0x00000240:    0a40        @.      LSRS     r0,r0,#9
        0x00000242:    05db        ..      LSLS     r3,r3,#23
        0x00000244:    07d2        ..      LSLS     r2,r2,#31
        0x00000246:    0e09        ..      LSRS     r1,r1,#24
        0x00000248:    18c0        ..      ADDS     r0,r0,r3
        0x0000024a:    297f        .)      CMP      r1,#0x7f
        0x0000024c:    da01        ..      BGE      0x252 ; __aeabi_f2iz + 26
        0x0000024e:    2000        .       MOVS     r0,#0
        0x00000250:    4770        pG      BX       lr
        0x00000252:    2996        .)      CMP      r1,#0x96
        0x00000254:    dc03        ..      BGT      0x25e ; __aeabi_f2iz + 38
        0x00000256:    2396        .#      MOVS     r3,#0x96
        0x00000258:    1a59        Y.      SUBS     r1,r3,r1
        0x0000025a:    40c8        .@      LSRS     r0,r0,r1
        0x0000025c:    e001        ..      B        0x262 ; __aeabi_f2iz + 42
        0x0000025e:    3996        .9      SUBS     r1,r1,#0x96
        0x00000260:    4088        .@      LSLS     r0,r0,r1
        0x00000262:    2a00        .*      CMP      r2,#0
        0x00000264:    d0f4        ..      BEQ      0x250 ; __aeabi_f2iz + 24
        0x00000266:    4240        @B      RSBS     r0,r0,#0
        0x00000268:    4770        pG      BX       lr
    .text
    __aeabi_uidiv
    __aeabi_uidivmod
        0x0000026a:    b570        p.      PUSH     {r4-r6,lr}
        0x0000026c:    4604        .F      MOV      r4,r0
        0x0000026e:    2900        .)      CMP      r1,#0
        0x00000270:    d003        ..      BEQ      0x27a ; __aeabi_uidiv + 16
        0x00000272:    2000        .       MOVS     r0,#0
        0x00000274:    2220         "      MOVS     r2,#0x20
        0x00000276:    2301        .#      MOVS     r3,#1
        0x00000278:    e010        ..      B        0x29c ; __aeabi_uidiv + 50
        0x0000027a:    2800        .(      CMP      r0,#0
        0x0000027c:    d001        ..      BEQ      0x282 ; __aeabi_uidiv + 24
        0x0000027e:    2000        .       MOVS     r0,#0
        0x00000280:    43c0        .C      MVNS     r0,r0
        0x00000282:    46c0        .F      MOV      r8,r8
        0x00000284:    46c0        .F      MOV      r8,r8
        0x00000286:    e00d        ..      B        0x2a4 ; __aeabi_uidiv + 58
        0x00000288:    4625        %F      MOV      r5,r4
        0x0000028a:    40d5        .@      LSRS     r5,r5,r2
        0x0000028c:    428d        .B      CMP      r5,r1
        0x0000028e:    d305        ..      BCC      0x29c ; __aeabi_uidiv + 50
        0x00000290:    460d        .F      MOV      r5,r1
        0x00000292:    4095        .@      LSLS     r5,r5,r2
        0x00000294:    1b64        d.      SUBS     r4,r4,r5
        0x00000296:    461d        .F      MOV      r5,r3
        0x00000298:    4095        .@      LSLS     r5,r5,r2
        0x0000029a:    1940        @.      ADDS     r0,r0,r5
        0x0000029c:    4615        .F      MOV      r5,r2
        0x0000029e:    1e52        R.      SUBS     r2,r2,#1
        0x000002a0:    2d00        .-      CMP      r5,#0
        0x000002a2:    dcf1        ..      BGT      0x288 ; __aeabi_uidiv + 30
        0x000002a4:    4621        !F      MOV      r1,r4
        0x000002a6:    bd70        p.      POP      {r4-r6,pc}
    .text
    __aeabi_uldivmod
        0x000002a8:    b5f0        ..      PUSH     {r4-r7,lr}
        0x000002aa:    b41f        ..      PUSH     {r0-r4}
        0x000002ac:    4606        .F      MOV      r6,r0
        0x000002ae:    2000        .       MOVS     r0,#0
        0x000002b0:    b082        ..      SUB      sp,sp,#8
        0x000002b2:    4605        .F      MOV      r5,r0
        0x000002b4:    2440        @$      MOVS     r4,#0x40
        0x000002b6:    9101        ..      STR      r1,[sp,#4]
        0x000002b8:    9000        ..      STR      r0,[sp,#0]
        0x000002ba:    e01b        ..      B        0x2f4 ; __aeabi_uldivmod + 76
        0x000002bc:    9901        ..      LDR      r1,[sp,#4]
        0x000002be:    4622        "F      MOV      r2,r4
        0x000002c0:    460f        .F      MOV      r7,r1
        0x000002c2:    4630        0F      MOV      r0,r6
        0x000002c4:    f000fa50    ..P.    BL       __aeabi_llsr ; 0x768
        0x000002c8:    9a04        ..      LDR      r2,[sp,#0x10]
        0x000002ca:    9b05        ..      LDR      r3,[sp,#0x14]
        0x000002cc:    1a80        ..      SUBS     r0,r0,r2
        0x000002ce:    4199        .A      SBCS     r1,r1,r3
        0x000002d0:    d310        ..      BCC      0x2f4 ; __aeabi_uldivmod + 76
        0x000002d2:    4610        .F      MOV      r0,r2
        0x000002d4:    4619        .F      MOV      r1,r3
        0x000002d6:    4622        "F      MOV      r2,r4
        0x000002d8:    f000fa36    ..6.    BL       __aeabi_llsl ; 0x748
        0x000002dc:    1a36        6.      SUBS     r6,r6,r0
        0x000002de:    418f        .A      SBCS     r7,r7,r1
        0x000002e0:    9701        ..      STR      r7,[sp,#4]
        0x000002e2:    4622        "F      MOV      r2,r4
        0x000002e4:    2001        .       MOVS     r0,#1
        0x000002e6:    2100        .!      MOVS     r1,#0
        0x000002e8:    9f00        ..      LDR      r7,[sp,#0]
        0x000002ea:    f000fa2d    ..-.    BL       __aeabi_llsl ; 0x748
        0x000002ee:    1838        8.      ADDS     r0,r7,r0
        0x000002f0:    414d        MA      ADCS     r5,r5,r1
        0x000002f2:    9000        ..      STR      r0,[sp,#0]
        0x000002f4:    4620         F      MOV      r0,r4
        0x000002f6:    1e64        d.      SUBS     r4,r4,#1
        0x000002f8:    2800        .(      CMP      r0,#0
        0x000002fa:    dcdf        ..      BGT      0x2bc ; __aeabi_uldivmod + 20
        0x000002fc:    9b01        ..      LDR      r3,[sp,#4]
        0x000002fe:    9800        ..      LDR      r0,[sp,#0]
        0x00000300:    4629        )F      MOV      r1,r5
        0x00000302:    4632        2F      MOV      r2,r6
        0x00000304:    b007        ..      ADD      sp,sp,#0x1c
        0x00000306:    bdf0        ..      POP      {r4-r7,pc}
    .text
    .text
    __I$use$fp
    _float_round
        0x00000308:    2900        .)      CMP      r1,#0
        0x0000030a:    da04        ..      BGE      0x316 ; __I$use$fp + 14
        0x0000030c:    1c40        @.      ADDS     r0,r0,#1
        0x0000030e:    0049        I.      LSLS     r1,r1,#1
        0x00000310:    d101        ..      BNE      0x316 ; __I$use$fp + 14
        0x00000312:    0840        @.      LSRS     r0,r0,#1
        0x00000314:    0040        @.      LSLS     r0,r0,#1
        0x00000316:    4770        pG      BX       lr
    _float_epilogue
        0x00000318:    b470        p.      PUSH     {r4-r6}
        0x0000031a:    2400        .$      MOVS     r4,#0
        0x0000031c:    0c05        ..      LSRS     r5,r0,#16
        0x0000031e:    d105        ..      BNE      0x32c ; _float_epilogue + 20
        0x00000320:    2410        .$      MOVS     r4,#0x10
        0x00000322:    0400        ..      LSLS     r0,r0,#16
        0x00000324:    d102        ..      BNE      0x32c ; _float_epilogue + 20
        0x00000326:    2900        .)      CMP      r1,#0
        0x00000328:    d021        !.      BEQ      0x36e ; _float_epilogue + 86
        0x0000032a:    2411        .$      MOVS     r4,#0x11
        0x0000032c:    0e05        ..      LSRS     r5,r0,#24
        0x0000032e:    d101        ..      BNE      0x334 ; _float_epilogue + 28
        0x00000330:    0200        ..      LSLS     r0,r0,#8
        0x00000332:    3408        .4      ADDS     r4,r4,#8
        0x00000334:    0f05        ..      LSRS     r5,r0,#28
        0x00000336:    d101        ..      BNE      0x33c ; _float_epilogue + 36
        0x00000338:    0100        ..      LSLS     r0,r0,#4
        0x0000033a:    1d24        $.      ADDS     r4,r4,#4
        0x0000033c:    0f85        ..      LSRS     r5,r0,#30
        0x0000033e:    d101        ..      BNE      0x344 ; _float_epilogue + 44
        0x00000340:    0080        ..      LSLS     r0,r0,#2
        0x00000342:    1ca4        ..      ADDS     r4,r4,#2
        0x00000344:    2800        .(      CMP      r0,#0
        0x00000346:    db01        ..      BLT      0x34c ; _float_epilogue + 52
        0x00000348:    0040        @.      LSLS     r0,r0,#1
        0x0000034a:    1c64        d.      ADDS     r4,r4,#1
        0x0000034c:    2900        .)      CMP      r1,#0
        0x0000034e:    d008        ..      BEQ      0x362 ; _float_epilogue + 74
        0x00000350:    2520         %      MOVS     r5,#0x20
        0x00000352:    1b2e        ..      SUBS     r6,r5,r4
        0x00000354:    460d        .F      MOV      r5,r1
        0x00000356:    40f5        .@      LSRS     r5,r5,r6
        0x00000358:    40a1        .@      LSLS     r1,r1,r4
        0x0000035a:    d000        ..      BEQ      0x35e ; _float_epilogue + 70
        0x0000035c:    2101        .!      MOVS     r1,#1
        0x0000035e:    4329        )C      ORRS     r1,r1,r5
        0x00000360:    4308        .C      ORRS     r0,r0,r1
        0x00000362:    0601        ..      LSLS     r1,r0,#24
        0x00000364:    1b1b        ..      SUBS     r3,r3,r4
        0x00000366:    0a00        ..      LSRS     r0,r0,#8
        0x00000368:    1ddb        ..      ADDS     r3,r3,#7
        0x0000036a:    d502        ..      BPL      0x372 ; _float_epilogue + 90
        0x0000036c:    2000        .       MOVS     r0,#0
        0x0000036e:    bc70        p.      POP      {r4-r6}
        0x00000370:    4770        pG      BX       lr
        0x00000372:    05db        ..      LSLS     r3,r3,#23
        0x00000374:    1818        ..      ADDS     r0,r3,r0
        0x00000376:    1880        ..      ADDS     r0,r0,r2
        0x00000378:    2900        .)      CMP      r1,#0
        0x0000037a:    daf8        ..      BGE      0x36e ; _float_epilogue + 86
        0x0000037c:    1c40        @.      ADDS     r0,r0,#1
        0x0000037e:    0049        I.      LSLS     r1,r1,#1
        0x00000380:    d1f5        ..      BNE      0x36e ; _float_epilogue + 86
        0x00000382:    bc70        p.      POP      {r4-r6}
        0x00000384:    0840        @.      LSRS     r0,r0,#1
        0x00000386:    0040        @.      LSLS     r0,r0,#1
        0x00000388:    4770        pG      BX       lr
        0x0000038a:    0000        ..      MOVS     r0,r0
    .text
    __aeabi_dadd
        0x0000038c:    b5f0        ..      PUSH     {r4-r7,lr}
        0x0000038e:    4607        .F      MOV      r7,r0
        0x00000390:    4608        .F      MOV      r0,r1
        0x00000392:    4058        X@      EORS     r0,r0,r3
        0x00000394:    b087        ..      SUB      sp,sp,#0x1c
        0x00000396:    0fc0        ..      LSRS     r0,r0,#31
        0x00000398:    9004        ..      STR      r0,[sp,#0x10]
        0x0000039a:    0048        H.      LSLS     r0,r1,#1
        0x0000039c:    460e        .F      MOV      r6,r1
        0x0000039e:    0059        Y.      LSLS     r1,r3,#1
        0x000003a0:    0840        @.      LSRS     r0,r0,#1
        0x000003a2:    0849        I.      LSRS     r1,r1,#1
        0x000003a4:    1abc        ..      SUBS     r4,r7,r2
        0x000003a6:    4188        .A      SBCS     r0,r0,r1
        0x000003a8:    d205        ..      BCS      0x3b6 ; __aeabi_dadd + 42
        0x000003aa:    4638        8F      MOV      r0,r7
        0x000003ac:    4631        1F      MOV      r1,r6
        0x000003ae:    461e        .F      MOV      r6,r3
        0x000003b0:    4617        .F      MOV      r7,r2
        0x000003b2:    460b        .F      MOV      r3,r1
        0x000003b4:    4602        .F      MOV      r2,r0
        0x000003b6:    0058        X.      LSLS     r0,r3,#1
        0x000003b8:    0840        @.      LSRS     r0,r0,#1
        0x000003ba:    4310        .C      ORRS     r0,r0,r2
        0x000003bc:    d04c        L.      BEQ      0x458 ; __aeabi_dadd + 204
        0x000003be:    0d30        0.      LSRS     r0,r6,#20
        0x000003c0:    9003        ..      STR      r0,[sp,#0xc]
        0x000003c2:    0540        @.      LSLS     r0,r0,#21
        0x000003c4:    0059        Y.      LSLS     r1,r3,#1
        0x000003c6:    0d40        @.      LSRS     r0,r0,#21
        0x000003c8:    0d49        I.      LSRS     r1,r1,#21
        0x000003ca:    9005        ..      STR      r0,[sp,#0x14]
        0x000003cc:    1a40        @.      SUBS     r0,r0,r1
        0x000003ce:    9002        ..      STR      r0,[sp,#8]
        0x000003d0:    2840        @(      CMP      r0,#0x40
        0x000003d2:    da72        r.      BGE      0x4ba ; __aeabi_dadd + 302
        0x000003d4:    0318        ..      LSLS     r0,r3,#12
        0x000003d6:    2101        .!      MOVS     r1,#1
        0x000003d8:    0b00        ..      LSRS     r0,r0,#12
        0x000003da:    0509        ..      LSLS     r1,r1,#20
        0x000003dc:    4308        .C      ORRS     r0,r0,r1
        0x000003de:    9001        ..      STR      r0,[sp,#4]
        0x000003e0:    9804        ..      LDR      r0,[sp,#0x10]
        0x000003e2:    9200        ..      STR      r2,[sp,#0]
        0x000003e4:    2800        .(      CMP      r0,#0
        0x000003e6:    d005        ..      BEQ      0x3f4 ; __aeabi_dadd + 104
        0x000003e8:    9901        ..      LDR      r1,[sp,#4]
        0x000003ea:    4252        RB      RSBS     r2,r2,#0
        0x000003ec:    2000        .       MOVS     r0,#0
        0x000003ee:    4188        .A      SBCS     r0,r0,r1
        0x000003f0:    9200        ..      STR      r2,[sp,#0]
        0x000003f2:    9001        ..      STR      r0,[sp,#4]
        0x000003f4:    9802        ..      LDR      r0,[sp,#8]
        0x000003f6:    2140        @!      MOVS     r1,#0x40
        0x000003f8:    1a0a        ..      SUBS     r2,r1,r0
        0x000003fa:    9901        ..      LDR      r1,[sp,#4]
        0x000003fc:    9800        ..      LDR      r0,[sp,#0]
        0x000003fe:    f000f9a3    ....    BL       __aeabi_llsl ; 0x748
        0x00000402:    4605        .F      MOV      r5,r0
        0x00000404:    460c        .F      MOV      r4,r1
        0x00000406:    466b        kF      MOV      r3,sp
        0x00000408:    cb07        ..      LDM      r3!,{r0-r2}
        0x0000040a:    f000f9be    ....    BL       __aeabi_lasr ; 0x78a
        0x0000040e:    19c0        ..      ADDS     r0,r0,r7
        0x00000410:    4171        qA      ADCS     r1,r1,r6
        0x00000412:    9a03        ..      LDR      r2,[sp,#0xc]
        0x00000414:    0d0e        ..      LSRS     r6,r1,#20
        0x00000416:    2300        .#      MOVS     r3,#0
        0x00000418:    17d7        ..      ASRS     r7,r2,#31
        0x0000041a:    4056        V@      EORS     r6,r6,r2
        0x0000041c:    461a        .F      MOV      r2,r3
        0x0000041e:    407a        z@      EORS     r2,r2,r7
        0x00000420:    4316        .C      ORRS     r6,r6,r2
        0x00000422:    d044        D.      BEQ      0x4ae ; __aeabi_dadd + 290
        0x00000424:    9a04        ..      LDR      r2,[sp,#0x10]
        0x00000426:    2a00        .*      CMP      r2,#0
        0x00000428:    d02d        -.      BEQ      0x486 ; __aeabi_dadd + 250
        0x0000042a:    9a02        ..      LDR      r2,[sp,#8]
        0x0000042c:    2a01        .*      CMP      r2,#1
        0x0000042e:    9a03        ..      LDR      r2,[sp,#0xc]
        0x00000430:    dc15        ..      BGT      0x45e ; __aeabi_dadd + 210
        0x00000432:    0512        ..      LSLS     r2,r2,#20
        0x00000434:    1ac0        ..      SUBS     r0,r0,r3
        0x00000436:    4191        .A      SBCS     r1,r1,r2
        0x00000438:    2601        .&      MOVS     r6,#1
        0x0000043a:    0536        6.      LSLS     r6,r6,#20
        0x0000043c:    1c00        ..      ADDS     r0,r0,#0
        0x0000043e:    4171        qA      ADCS     r1,r1,r6
        0x00000440:    0fd2        ..      LSRS     r2,r2,#31
        0x00000442:    9e05        ..      LDR      r6,[sp,#0x14]
        0x00000444:    07d2        ..      LSLS     r2,r2,#31
        0x00000446:    9300        ..      STR      r3,[sp,#0]
        0x00000448:    9201        ..      STR      r2,[sp,#4]
        0x0000044a:    9602        ..      STR      r6,[sp,#8]
        0x0000044c:    462a        *F      MOV      r2,r5
        0x0000044e:    4623        #F      MOV      r3,r4
        0x00000450:    f000f9bb    ....    BL       _double_epilogue ; 0x7ca
        0x00000454:    b007        ..      ADD      sp,sp,#0x1c
        0x00000456:    bdf0        ..      POP      {r4-r7,pc}
        0x00000458:    4638        8F      MOV      r0,r7
        0x0000045a:    4631        1F      MOV      r1,r6
        0x0000045c:    e7fa        ..      B        0x454 ; __aeabi_dadd + 200
        0x0000045e:    0516        ..      LSLS     r6,r2,#20
        0x00000460:    4a22        "J      LDR      r2,[pc,#136] ; [0x4ec] = 0xffe00000
        0x00000462:    460f        .F      MOV      r7,r1
        0x00000464:    18b2        ..      ADDS     r2,r6,r2
        0x00000466:    1ac0        ..      SUBS     r0,r0,r3
        0x00000468:    41b7        .A      SBCS     r7,r7,r6
        0x0000046a:    2101        .!      MOVS     r1,#1
        0x0000046c:    0509        ..      LSLS     r1,r1,#20
        0x0000046e:    1c00        ..      ADDS     r0,r0,#0
        0x00000470:    414f        OA      ADCS     r7,r7,r1
        0x00000472:    1800        ..      ADDS     r0,r0,r0
        0x00000474:    417f        .A      ADCS     r7,r7,r7
        0x00000476:    4611        .F      MOV      r1,r2
        0x00000478:    1818        ..      ADDS     r0,r3,r0
        0x0000047a:    4179        yA      ADCS     r1,r1,r7
        0x0000047c:    0fe2        ..      LSRS     r2,r4,#31
        0x0000047e:    4310        .C      ORRS     r0,r0,r2
        0x00000480:    196d        m.      ADDS     r5,r5,r5
        0x00000482:    4164        dA      ADCS     r4,r4,r4
        0x00000484:    e013        ..      B        0x4ae ; __aeabi_dadd + 290
        0x00000486:    07e2        ..      LSLS     r2,r4,#31
        0x00000488:    086d        m.      LSRS     r5,r5,#1
        0x0000048a:    4315        .C      ORRS     r5,r5,r2
        0x0000048c:    0864        d.      LSRS     r4,r4,#1
        0x0000048e:    07c2        ..      LSLS     r2,r0,#31
        0x00000490:    4314        .C      ORRS     r4,r4,r2
        0x00000492:    9a03        ..      LDR      r2,[sp,#0xc]
        0x00000494:    2601        .&      MOVS     r6,#1
        0x00000496:    0512        ..      LSLS     r2,r2,#20
        0x00000498:    1ac0        ..      SUBS     r0,r0,r3
        0x0000049a:    4191        .A      SBCS     r1,r1,r2
        0x0000049c:    0536        6.      LSLS     r6,r6,#20
        0x0000049e:    1c00        ..      ADDS     r0,r0,#0
        0x000004a0:    4171        qA      ADCS     r1,r1,r6
        0x000004a2:    07ce        ..      LSLS     r6,r1,#31
        0x000004a4:    0840        @.      LSRS     r0,r0,#1
        0x000004a6:    4330        0C      ORRS     r0,r0,r6
        0x000004a8:    0849        I.      LSRS     r1,r1,#1
        0x000004aa:    18c0        ..      ADDS     r0,r0,r3
        0x000004ac:    4151        QA      ADCS     r1,r1,r2
        0x000004ae:    462a        *F      MOV      r2,r5
        0x000004b0:    4623        #F      MOV      r3,r4
        0x000004b2:    f000f97d    ..}.    BL       _double_round ; 0x7b0
        0x000004b6:    e7cd        ..      B        0x454 ; __aeabi_dadd + 200
        0x000004b8:    e7ff        ..      B        0x4ba ; __aeabi_dadd + 302
        0x000004ba:    9804        ..      LDR      r0,[sp,#0x10]
        0x000004bc:    2201        ."      MOVS     r2,#1
        0x000004be:    0040        @.      LSLS     r0,r0,#1
        0x000004c0:    17c1        ..      ASRS     r1,r0,#31
        0x000004c2:    1a12        ..      SUBS     r2,r2,r0
        0x000004c4:    2300        .#      MOVS     r3,#0
        0x000004c6:    418b        .A      SBCS     r3,r3,r1
        0x000004c8:    9804        ..      LDR      r0,[sp,#0x10]
        0x000004ca:    4631        1F      MOV      r1,r6
        0x000004cc:    17c4        ..      ASRS     r4,r0,#31
        0x000004ce:    1a38        8.      SUBS     r0,r7,r0
        0x000004d0:    41a1        .A      SBCS     r1,r1,r4
        0x000004d2:    e7ee        ..      B        0x4b2 ; __aeabi_dadd + 294
    __aeabi_dsub
        0x000004d4:    b430        0.      PUSH     {r4,r5}
        0x000004d6:    2401        .$      MOVS     r4,#1
        0x000004d8:    07e4        ..      LSLS     r4,r4,#31
        0x000004da:    4063        c@      EORS     r3,r3,r4
        0x000004dc:    bc30        0.      POP      {r4,r5}
        0x000004de:    e755        U.      B        __aeabi_dadd ; 0x38c
    __aeabi_drsub
        0x000004e0:    b430        0.      PUSH     {r4,r5}
        0x000004e2:    2401        .$      MOVS     r4,#1
        0x000004e4:    07e4        ..      LSLS     r4,r4,#31
        0x000004e6:    4061        a@      EORS     r1,r1,r4
        0x000004e8:    bc30        0.      POP      {r4,r5}
        0x000004ea:    e74f        O.      B        __aeabi_dadd ; 0x38c
    $d
        0x000004ec:    ffe00000    ....    DCD    4292870144
    $t
    .text
    __aeabi_dmul
        0x000004f0:    b5f0        ..      PUSH     {r4-r7,lr}
        0x000004f2:    b41f        ..      PUSH     {r0-r4}
        0x000004f4:    b088        ..      SUB      sp,sp,#0x20
        0x000004f6:    990b        ..      LDR      r1,[sp,#0x2c]
        0x000004f8:    9809        ..      LDR      r0,[sp,#0x24]
        0x000004fa:    2400        .$      MOVS     r4,#0
        0x000004fc:    4048        H@      EORS     r0,r0,r1
        0x000004fe:    9909        ..      LDR      r1,[sp,#0x24]
        0x00000500:    0fc0        ..      LSRS     r0,r0,#31
        0x00000502:    0049        I.      LSLS     r1,r1,#1
        0x00000504:    0849        I.      LSRS     r1,r1,#1
        0x00000506:    9109        ..      STR      r1,[sp,#0x24]
        0x00000508:    07c0        ..      LSLS     r0,r0,#31
        0x0000050a:    990b        ..      LDR      r1,[sp,#0x2c]
        0x0000050c:    9000        ..      STR      r0,[sp,#0]
        0x0000050e:    0049        I.      LSLS     r1,r1,#1
        0x00000510:    0849        I.      LSRS     r1,r1,#1
        0x00000512:    910b        ..      STR      r1,[sp,#0x2c]
        0x00000514:    9909        ..      LDR      r1,[sp,#0x24]
        0x00000516:    9808        ..      LDR      r0,[sp,#0x20]
        0x00000518:    46a6        .F      MOV      lr,r4
        0x0000051a:    4308        .C      ORRS     r0,r0,r1
        0x0000051c:    d01c        ..      BEQ      0x558 ; __aeabi_dmul + 104
        0x0000051e:    990b        ..      LDR      r1,[sp,#0x2c]
        0x00000520:    980a        ..      LDR      r0,[sp,#0x28]
        0x00000522:    4308        .C      ORRS     r0,r0,r1
        0x00000524:    d018        ..      BEQ      0x558 ; __aeabi_dmul + 104
        0x00000526:    9809        ..      LDR      r0,[sp,#0x24]
        0x00000528:    2401        .$      MOVS     r4,#1
        0x0000052a:    0040        @.      LSLS     r0,r0,#1
        0x0000052c:    0d42        B.      LSRS     r2,r0,#21
        0x0000052e:    0048        H.      LSLS     r0,r1,#1
        0x00000530:    0d41        A.      LSRS     r1,r0,#21
        0x00000532:    9809        ..      LDR      r0,[sp,#0x24]
        0x00000534:    0524        $.      LSLS     r4,r4,#20
        0x00000536:    0300        ..      LSLS     r0,r0,#12
        0x00000538:    0b00        ..      LSRS     r0,r0,#12
        0x0000053a:    4320         C      ORRS     r0,r0,r4
        0x0000053c:    9009        ..      STR      r0,[sp,#0x24]
        0x0000053e:    980b        ..      LDR      r0,[sp,#0x2c]
        0x00000540:    0300        ..      LSLS     r0,r0,#12
        0x00000542:    0b00        ..      LSRS     r0,r0,#12
        0x00000544:    4320         C      ORRS     r0,r0,r4
        0x00000546:    900b        ..      STR      r0,[sp,#0x2c]
        0x00000548:    1850        P.      ADDS     r0,r2,r1
        0x0000054a:    491c        .I      LDR      r1,[pc,#112] ; [0x5bc] = 0xfffffc0d
        0x0000054c:    1840        @.      ADDS     r0,r0,r1
        0x0000054e:    2200        ."      MOVS     r2,#0
        0x00000550:    9001        ..      STR      r0,[sp,#4]
        0x00000552:    4614        .F      MOV      r4,r2
        0x00000554:    4610        .F      MOV      r0,r2
        0x00000556:    e005        ..      B        0x564 ; __aeabi_dmul + 116
        0x00000558:    2000        .       MOVS     r0,#0
        0x0000055a:    4601        .F      MOV      r1,r0
        0x0000055c:    b00d        ..      ADD      sp,sp,#0x34
        0x0000055e:    bdf0        ..      POP      {r4-r7,pc}
        0x00000560:    2803        .(      CMP      r0,#3
        0x00000562:    da01        ..      BGE      0x568 ; __aeabi_dmul + 120
        0x00000564:    4603        .F      MOV      r3,r0
        0x00000566:    e000        ..      B        0x56a ; __aeabi_dmul + 122
        0x00000568:    2303        .#      MOVS     r3,#3
        0x0000056a:    469c        .F      MOV      r12,r3
        0x0000056c:    1ac1        ..      SUBS     r1,r0,r3
        0x0000056e:    ae0a        ..      ADD      r6,sp,#0x28
        0x00000570:    e00a        ..      B        0x588 ; __aeabi_dmul + 152
        0x00000572:    005f        _.      LSLS     r7,r3,#1
        0x00000574:    ad08        ..      ADD      r5,sp,#0x20
        0x00000576:    5bed        .[      LDRH     r5,[r5,r7]
        0x00000578:    004f        O.      LSLS     r7,r1,#1
        0x0000057a:    5bf7        .[      LDRH     r7,[r6,r7]
        0x0000057c:    437d        }C      MULS     r5,r7,r5
        0x0000057e:    2700        .'      MOVS     r7,#0
        0x00000580:    18aa        ..      ADDS     r2,r5,r2
        0x00000582:    417c        |A      ADCS     r4,r4,r7
        0x00000584:    1c49        I.      ADDS     r1,r1,#1
        0x00000586:    1e5b        [.      SUBS     r3,r3,#1
        0x00000588:    4561        aE      CMP      r1,r12
        0x0000058a:    ddf2        ..      BLE      0x572 ; __aeabi_dmul + 130
        0x0000058c:    0041        A.      LSLS     r1,r0,#1
        0x0000058e:    ab04        ..      ADD      r3,sp,#0x10
        0x00000590:    525a        ZR      STRH     r2,[r3,r1]
        0x00000592:    0421        !.      LSLS     r1,r4,#16
        0x00000594:    0c12        ..      LSRS     r2,r2,#16
        0x00000596:    430a        .C      ORRS     r2,r2,r1
        0x00000598:    0c24        $.      LSRS     r4,r4,#16
        0x0000059a:    1c40        @.      ADDS     r0,r0,#1
        0x0000059c:    2808        .(      CMP      r0,#8
        0x0000059e:    dbdf        ..      BLT      0x560 ; __aeabi_dmul + 112
        0x000005a0:    9801        ..      LDR      r0,[sp,#4]
        0x000005a2:    9002        ..      STR      r0,[sp,#8]
        0x000005a4:    9900        ..      LDR      r1,[sp,#0]
        0x000005a6:    4670        pF      MOV      r0,lr
        0x000005a8:    9101        ..      STR      r1,[sp,#4]
        0x000005aa:    9000        ..      STR      r0,[sp,#0]
        0x000005ac:    9b05        ..      LDR      r3,[sp,#0x14]
        0x000005ae:    9a04        ..      LDR      r2,[sp,#0x10]
        0x000005b0:    9907        ..      LDR      r1,[sp,#0x1c]
        0x000005b2:    9806        ..      LDR      r0,[sp,#0x18]
        0x000005b4:    f000f909    ....    BL       _double_epilogue ; 0x7ca
        0x000005b8:    e7d0        ..      B        0x55c ; __aeabi_dmul + 108
    $d
        0x000005ba:    0000        ..      DCW    0
        0x000005bc:    fffffc0d    ....    DCD    4294966285
    $t
    .text
    __aeabi_ddiv
        0x000005c0:    b5f0        ..      PUSH     {r4-r7,lr}
        0x000005c2:    460c        .F      MOV      r4,r1
        0x000005c4:    405c        \@      EORS     r4,r4,r3
        0x000005c6:    b085        ..      SUB      sp,sp,#0x14
        0x000005c8:    0fe4        ..      LSRS     r4,r4,#31
        0x000005ca:    07e4        ..      LSLS     r4,r4,#31
        0x000005cc:    9403        ..      STR      r4,[sp,#0xc]
        0x000005ce:    004c        L.      LSLS     r4,r1,#1
        0x000005d0:    2600        .&      MOVS     r6,#0
        0x000005d2:    0864        d.      LSRS     r4,r4,#1
        0x000005d4:    0059        Y.      LSLS     r1,r3,#1
        0x000005d6:    4694        .F      MOV      r12,r2
        0x000005d8:    0849        I.      LSRS     r1,r1,#1
        0x000005da:    4602        .F      MOV      r2,r0
        0x000005dc:    9602        ..      STR      r6,[sp,#8]
        0x000005de:    4322        "C      ORRS     r2,r2,r4
        0x000005e0:    d021        !.      BEQ      0x626 ; __aeabi_ddiv + 102
        0x000005e2:    4662        bF      MOV      r2,r12
        0x000005e4:    430a        .C      ORRS     r2,r2,r1
        0x000005e6:    d01e        ..      BEQ      0x626 ; __aeabi_ddiv + 102
        0x000005e8:    0062        b.      LSLS     r2,r4,#1
        0x000005ea:    0d57        W.      LSRS     r7,r2,#21
        0x000005ec:    004a        J.      LSLS     r2,r1,#1
        0x000005ee:    030e        ..      LSLS     r6,r1,#12
        0x000005f0:    0323        #.      LSLS     r3,r4,#12
        0x000005f2:    0d55        U.      LSRS     r5,r2,#21
        0x000005f4:    2401        .$      MOVS     r4,#1
        0x000005f6:    4602        .F      MOV      r2,r0
        0x000005f8:    492c        ,I      LDR      r1,[pc,#176] ; [0x6ac] = 0x3fd
        0x000005fa:    0524        $.      LSLS     r4,r4,#20
        0x000005fc:    1b78        x.      SUBS     r0,r7,r5
        0x000005fe:    0b1b        ..      LSRS     r3,r3,#12
        0x00000600:    0b36        6.      LSRS     r6,r6,#12
        0x00000602:    1840        @.      ADDS     r0,r0,r1
        0x00000604:    4323        #C      ORRS     r3,r3,r4
        0x00000606:    4326        &C      ORRS     r6,r6,r4
        0x00000608:    4661        aF      MOV      r1,r12
        0x0000060a:    9000        ..      STR      r0,[sp,#0]
        0x0000060c:    461c        .F      MOV      r4,r3
        0x0000060e:    1a50        P.      SUBS     r0,r2,r1
        0x00000610:    41b4        .A      SBCS     r4,r4,r6
        0x00000612:    d303        ..      BCC      0x61c ; __aeabi_ddiv + 92
        0x00000614:    9800        ..      LDR      r0,[sp,#0]
        0x00000616:    1c40        @.      ADDS     r0,r0,#1
        0x00000618:    9000        ..      STR      r0,[sp,#0]
        0x0000061a:    e002        ..      B        0x622 ; __aeabi_ddiv + 98
        0x0000061c:    1892        ..      ADDS     r2,r2,r2
        0x0000061e:    9800        ..      LDR      r0,[sp,#0]
        0x00000620:    415b        [A      ADCS     r3,r3,r3
        0x00000622:    2800        .(      CMP      r0,#0
        0x00000624:    da03        ..      BGE      0x62e ; __aeabi_ddiv + 110
        0x00000626:    2000        .       MOVS     r0,#0
        0x00000628:    4601        .F      MOV      r1,r0
        0x0000062a:    b005        ..      ADD      sp,sp,#0x14
        0x0000062c:    bdf0        ..      POP      {r4-r7,pc}
        0x0000062e:    2000        .       MOVS     r0,#0
        0x00000630:    2101        .!      MOVS     r1,#1
        0x00000632:    0509        ..      LSLS     r1,r1,#20
        0x00000634:    4607        .F      MOV      r7,r0
        0x00000636:    4686        .F      MOV      lr,r0
        0x00000638:    e011        ..      B        0x65e ; __aeabi_ddiv + 158
        0x0000063a:    4664        dF      MOV      r4,r12
        0x0000063c:    461d        .F      MOV      r5,r3
        0x0000063e:    1b14        ..      SUBS     r4,r2,r4
        0x00000640:    41b5        .A      SBCS     r5,r5,r6
        0x00000642:    d306        ..      BCC      0x652 ; __aeabi_ddiv + 146
        0x00000644:    4665        eF      MOV      r5,r12
        0x00000646:    1b52        R.      SUBS     r2,r2,r5
        0x00000648:    41b3        .A      SBCS     r3,r3,r6
        0x0000064a:    4674        tF      MOV      r4,lr
        0x0000064c:    4307        .C      ORRS     r7,r7,r0
        0x0000064e:    430c        .C      ORRS     r4,r4,r1
        0x00000650:    46a6        .F      MOV      lr,r4
        0x00000652:    07cd        ..      LSLS     r5,r1,#31
        0x00000654:    0840        @.      LSRS     r0,r0,#1
        0x00000656:    0849        I.      LSRS     r1,r1,#1
        0x00000658:    4328        (C      ORRS     r0,r0,r5
        0x0000065a:    1892        ..      ADDS     r2,r2,r2
        0x0000065c:    415b        [A      ADCS     r3,r3,r3
        0x0000065e:    4605        .F      MOV      r5,r0
        0x00000660:    430d        .C      ORRS     r5,r5,r1
        0x00000662:    d1ea        ..      BNE      0x63a ; __aeabi_ddiv + 122
        0x00000664:    4610        .F      MOV      r0,r2
        0x00000666:    4318        .C      ORRS     r0,r0,r3
        0x00000668:    d013        ..      BEQ      0x692 ; __aeabi_ddiv + 210
        0x0000066a:    4660        `F      MOV      r0,r12
        0x0000066c:    4619        .F      MOV      r1,r3
        0x0000066e:    4050        P@      EORS     r0,r0,r2
        0x00000670:    4071        q@      EORS     r1,r1,r6
        0x00000672:    4308        .C      ORRS     r0,r0,r1
        0x00000674:    d006        ..      BEQ      0x684 ; __aeabi_ddiv + 196
        0x00000676:    4660        `F      MOV      r0,r12
        0x00000678:    1a10        ..      SUBS     r0,r2,r0
        0x0000067a:    41b3        .A      SBCS     r3,r3,r6
        0x0000067c:    d206        ..      BCS      0x68c ; __aeabi_ddiv + 204
        0x0000067e:    2201        ."      MOVS     r2,#1
        0x00000680:    2300        .#      MOVS     r3,#0
        0x00000682:    e006        ..      B        0x692 ; __aeabi_ddiv + 210
        0x00000684:    2200        ."      MOVS     r2,#0
        0x00000686:    2301        .#      MOVS     r3,#1
        0x00000688:    07db        ..      LSLS     r3,r3,#31
        0x0000068a:    e002        ..      B        0x692 ; __aeabi_ddiv + 210
        0x0000068c:    2201        ."      MOVS     r2,#1
        0x0000068e:    43d2        .C      MVNS     r2,r2
        0x00000690:    1053        S.      ASRS     r3,r2,#1
        0x00000692:    9800        ..      LDR      r0,[sp,#0]
        0x00000694:    4674        tF      MOV      r4,lr
        0x00000696:    0501        ..      LSLS     r1,r0,#20
        0x00000698:    1c38        8.      ADDS     r0,r7,#0
        0x0000069a:    4161        aA      ADCS     r1,r1,r4
        0x0000069c:    9c02        ..      LDR      r4,[sp,#8]
        0x0000069e:    9d03        ..      LDR      r5,[sp,#0xc]
        0x000006a0:    1900        ..      ADDS     r0,r0,r4
        0x000006a2:    4169        iA      ADCS     r1,r1,r5
        0x000006a4:    f000f884    ....    BL       _double_round ; 0x7b0
        0x000006a8:    e7bf        ..      B        0x62a ; __aeabi_ddiv + 106
    $d
        0x000006aa:    0000        ..      DCW    0
        0x000006ac:    000003fd    ....    DCD    1021
    $t
    .text
    __aeabi_d2ulz
        0x000006b0:    004a        J.      LSLS     r2,r1,#1
        0x000006b2:    0309        ..      LSLS     r1,r1,#12
        0x000006b4:    2301        .#      MOVS     r3,#1
        0x000006b6:    0b09        ..      LSRS     r1,r1,#12
        0x000006b8:    051b        ..      LSLS     r3,r3,#20
        0x000006ba:    4319        .C      ORRS     r1,r1,r3
        0x000006bc:    4b0a        .K      LDR      r3,[pc,#40] ; [0x6e8] = 0x3ff
        0x000006be:    b510        ..      PUSH     {r4,lr}
        0x000006c0:    0d52        R.      LSRS     r2,r2,#21
        0x000006c2:    429a        .B      CMP      r2,r3
        0x000006c4:    da02        ..      BGE      0x6cc ; __aeabi_d2ulz + 28
        0x000006c6:    2000        .       MOVS     r0,#0
        0x000006c8:    4601        .F      MOV      r1,r0
        0x000006ca:    bd10        ..      POP      {r4,pc}
        0x000006cc:    4b06        .K      LDR      r3,[pc,#24] ; [0x6e8] = 0x3ff
        0x000006ce:    3334        43      ADDS     r3,r3,#0x34
        0x000006d0:    429a        .B      CMP      r2,r3
        0x000006d2:    dc03        ..      BGT      0x6dc ; __aeabi_d2ulz + 44
        0x000006d4:    1a9a        ..      SUBS     r2,r3,r2
        0x000006d6:    f000f847    ..G.    BL       __aeabi_llsr ; 0x768
        0x000006da:    bd10        ..      POP      {r4,pc}
        0x000006dc:    4b03        .K      LDR      r3,[pc,#12] ; [0x6ec] = 0xfffffbcd
        0x000006de:    18d2        ..      ADDS     r2,r2,r3
        0x000006e0:    f000f832    ..2.    BL       __aeabi_llsl ; 0x748
        0x000006e4:    bd10        ..      POP      {r4,pc}
    $d
        0x000006e6:    0000        ..      DCW    0
        0x000006e8:    000003ff    ....    DCD    1023
        0x000006ec:    fffffbcd    ....    DCD    4294966221
    $t
    .text
    __aeabi_cdrcmple
        0x000006f0:    b510        ..      PUSH     {r4,lr}
        0x000006f2:    2900        .)      CMP      r1,#0
        0x000006f4:    db04        ..      BLT      0x700 ; __aeabi_cdrcmple + 16
        0x000006f6:    2401        .$      MOVS     r4,#1
        0x000006f8:    07e4        ..      LSLS     r4,r4,#31
        0x000006fa:    4240        @B      RSBS     r0,r0,#0
        0x000006fc:    418c        .A      SBCS     r4,r4,r1
        0x000006fe:    4621        !F      MOV      r1,r4
        0x00000700:    2b00        .+      CMP      r3,#0
        0x00000702:    db04        ..      BLT      0x70e ; __aeabi_cdrcmple + 30
        0x00000704:    461c        .F      MOV      r4,r3
        0x00000706:    2301        .#      MOVS     r3,#1
        0x00000708:    07db        ..      LSLS     r3,r3,#31
        0x0000070a:    4252        RB      RSBS     r2,r2,#0
        0x0000070c:    41a3        .A      SBCS     r3,r3,r4
        0x0000070e:    4299        .B      CMP      r1,r3
        0x00000710:    d100        ..      BNE      0x714 ; __aeabi_cdrcmple + 36
        0x00000712:    4290        .B      CMP      r0,r2
        0x00000714:    bd10        ..      POP      {r4,pc}
    $d
        0x00000716:    0000        ..      DCW    0
    $t
    .text
    __scatterload
    __scatterload_rt2
        0x00000718:    b51c        ..      PUSH     {r2-r4,lr}
        0x0000071a:    4809        .H      LDR      r0,[pc,#36] ; [0x740] = 0x6bc8
        0x0000071c:    9000        ..      STR      r0,[sp,#0]
        0x0000071e:    4809        .H      LDR      r0,[pc,#36] ; [0x744] = 0x6be8
        0x00000720:    9001        ..      STR      r0,[sp,#4]
        0x00000722:    4605        .F      MOV      r5,r0
        0x00000724:    2601        .&      MOVS     r6,#1
        0x00000726:    9c00        ..      LDR      r4,[sp,#0]
        0x00000728:    e005        ..      B        0x736 ; __scatterload + 30
        0x0000072a:    68e3        .h      LDR      r3,[r4,#0xc]
        0x0000072c:    cc07        ..      LDM      r4!,{r0-r2}
        0x0000072e:    4333        3C      ORRS     r3,r3,r6
        0x00000730:    3c0c        .<      SUBS     r4,r4,#0xc
        0x00000732:    4798        .G      BLX      r3
        0x00000734:    3410        .4      ADDS     r4,r4,#0x10
        0x00000736:    42ac        .B      CMP      r4,r5
        0x00000738:    d3f7        ..      BCC      0x72a ; __scatterload + 18
        0x0000073a:    f7fffcc5    ....    BL       __main_after_scatterload ; 0xc8
    $d
        0x0000073e:    0000        ..      DCW    0
        0x00000740:    00006bc8    .k..    DCD    27592
        0x00000744:    00006be8    .k..    DCD    27624
    $t
    .text
    __aeabi_llsl
    _ll_shift_l
        0x00000748:    b510        ..      PUSH     {r4,lr}
        0x0000074a:    2a20         *      CMP      r2,#0x20
        0x0000074c:    db04        ..      BLT      0x758 ; __aeabi_llsl + 16
        0x0000074e:    4601        .F      MOV      r1,r0
        0x00000750:    3a20         :      SUBS     r2,r2,#0x20
        0x00000752:    4091        .@      LSLS     r1,r1,r2
        0x00000754:    2000        .       MOVS     r0,#0
        0x00000756:    bd10        ..      POP      {r4,pc}
        0x00000758:    4091        .@      LSLS     r1,r1,r2
        0x0000075a:    2320         #      MOVS     r3,#0x20
        0x0000075c:    1a9c        ..      SUBS     r4,r3,r2
        0x0000075e:    4603        .F      MOV      r3,r0
        0x00000760:    40e3        .@      LSRS     r3,r3,r4
        0x00000762:    4319        .C      ORRS     r1,r1,r3
        0x00000764:    4090        .@      LSLS     r0,r0,r2
        0x00000766:    bd10        ..      POP      {r4,pc}
    .text
    __aeabi_llsr
    _ll_ushift_r
        0x00000768:    b510        ..      PUSH     {r4,lr}
        0x0000076a:    2a20         *      CMP      r2,#0x20
        0x0000076c:    db04        ..      BLT      0x778 ; __aeabi_llsr + 16
        0x0000076e:    4608        .F      MOV      r0,r1
        0x00000770:    3a20         :      SUBS     r2,r2,#0x20
        0x00000772:    40d0        .@      LSRS     r0,r0,r2
        0x00000774:    2100        .!      MOVS     r1,#0
        0x00000776:    bd10        ..      POP      {r4,pc}
        0x00000778:    460b        .F      MOV      r3,r1
        0x0000077a:    40d3        .@      LSRS     r3,r3,r2
        0x0000077c:    40d0        .@      LSRS     r0,r0,r2
        0x0000077e:    2420         $      MOVS     r4,#0x20
        0x00000780:    1aa2        ..      SUBS     r2,r4,r2
        0x00000782:    4091        .@      LSLS     r1,r1,r2
        0x00000784:    4308        .C      ORRS     r0,r0,r1
        0x00000786:    4619        .F      MOV      r1,r3
        0x00000788:    bd10        ..      POP      {r4,pc}
    .text
    __aeabi_lasr
    _ll_sshift_r
        0x0000078a:    b510        ..      PUSH     {r4,lr}
        0x0000078c:    2a20         *      CMP      r2,#0x20
        0x0000078e:    db06        ..      BLT      0x79e ; __aeabi_lasr + 20
        0x00000790:    17cb        ..      ASRS     r3,r1,#31
        0x00000792:    4608        .F      MOV      r0,r1
        0x00000794:    3a20         :      SUBS     r2,r2,#0x20
        0x00000796:    4110        .A      ASRS     r0,r0,r2
        0x00000798:    17c1        ..      ASRS     r1,r0,#31
        0x0000079a:    430b        .C      ORRS     r3,r3,r1
        0x0000079c:    e006        ..      B        0x7ac ; __aeabi_lasr + 34
        0x0000079e:    460b        .F      MOV      r3,r1
        0x000007a0:    4113        .A      ASRS     r3,r3,r2
        0x000007a2:    40d0        .@      LSRS     r0,r0,r2
        0x000007a4:    2420         $      MOVS     r4,#0x20
        0x000007a6:    1aa2        ..      SUBS     r2,r4,r2
        0x000007a8:    4091        .@      LSLS     r1,r1,r2
        0x000007aa:    4308        .C      ORRS     r0,r0,r1
        0x000007ac:    4619        .F      MOV      r1,r3
        0x000007ae:    bd10        ..      POP      {r4,pc}
    .text
    _double_round
        0x000007b0:    b510        ..      PUSH     {r4,lr}
        0x000007b2:    2b00        .+      CMP      r3,#0
        0x000007b4:    da08        ..      BGE      0x7c8 ; _double_round + 24
        0x000007b6:    2400        .$      MOVS     r4,#0
        0x000007b8:    1c40        @.      ADDS     r0,r0,#1
        0x000007ba:    4161        aA      ADCS     r1,r1,r4
        0x000007bc:    1892        ..      ADDS     r2,r2,r2
        0x000007be:    415b        [A      ADCS     r3,r3,r3
        0x000007c0:    431a        .C      ORRS     r2,r2,r3
        0x000007c2:    d101        ..      BNE      0x7c8 ; _double_round + 24
        0x000007c4:    0840        @.      LSRS     r0,r0,#1
        0x000007c6:    0040        @.      LSLS     r0,r0,#1
        0x000007c8:    bd10        ..      POP      {r4,pc}
    _double_epilogue
        0x000007ca:    b5f0        ..      PUSH     {r4-r7,lr}
        0x000007cc:    b41f        ..      PUSH     {r0-r4}
        0x000007ce:    b082        ..      SUB      sp,sp,#8
        0x000007d0:    4605        .F      MOV      r5,r0
        0x000007d2:    000c        ..      MOVS     r4,r1
        0x000007d4:    d003        ..      BEQ      0x7de ; _double_epilogue + 20
        0x000007d6:    4608        .F      MOV      r0,r1
        0x000007d8:    f005fc62    ..b.    BL       __ARM_clz ; 0x60a0
        0x000007dc:    e002        ..      B        0x7e4 ; _double_epilogue + 26
        0x000007de:    f005fc5f    .._.    BL       __ARM_clz ; 0x60a0
        0x000007e2:    3020         0      ADDS     r0,r0,#0x20
        0x000007e4:    4602        .F      MOV      r2,r0
        0x000007e6:    9000        ..      STR      r0,[sp,#0]
        0x000007e8:    4621        !F      MOV      r1,r4
        0x000007ea:    4628        (F      MOV      r0,r5
        0x000007ec:    f7ffffac    ....    BL       __aeabi_llsl ; 0x748
        0x000007f0:    9b04        ..      LDR      r3,[sp,#0x10]
        0x000007f2:    9a05        ..      LDR      r2,[sp,#0x14]
        0x000007f4:    4604        .F      MOV      r4,r0
        0x000007f6:    460f        .F      MOV      r7,r1
        0x000007f8:    4318        .C      ORRS     r0,r0,r3
        0x000007fa:    4311        .C      ORRS     r1,r1,r2
        0x000007fc:    4308        .C      ORRS     r0,r0,r1
        0x000007fe:    d014        ..      BEQ      0x82a ; _double_epilogue + 96
        0x00000800:    4618        .F      MOV      r0,r3
        0x00000802:    4310        .C      ORRS     r0,r0,r2
        0x00000804:    d01b        ..      BEQ      0x83e ; _double_epilogue + 116
        0x00000806:    9800        ..      LDR      r0,[sp,#0]
        0x00000808:    2140        @!      MOVS     r1,#0x40
        0x0000080a:    1a0a        ..      SUBS     r2,r1,r0
        0x0000080c:    4618        .F      MOV      r0,r3
        0x0000080e:    9905        ..      LDR      r1,[sp,#0x14]
        0x00000810:    f7ffffaa    ....    BL       __aeabi_llsr ; 0x768
        0x00000814:    4605        .F      MOV      r5,r0
        0x00000816:    460e        .F      MOV      r6,r1
        0x00000818:    9a00        ..      LDR      r2,[sp,#0]
        0x0000081a:    9905        ..      LDR      r1,[sp,#0x14]
        0x0000081c:    9804        ..      LDR      r0,[sp,#0x10]
        0x0000081e:    f7ffff93    ....    BL       __aeabi_llsl ; 0x748
        0x00000822:    4308        .C      ORRS     r0,r0,r1
        0x00000824:    d005        ..      BEQ      0x832 ; _double_epilogue + 104
        0x00000826:    2001        .       MOVS     r0,#1
        0x00000828:    e004        ..      B        0x834 ; _double_epilogue + 106
        0x0000082a:    4620         F      MOV      r0,r4
        0x0000082c:    4639        9F      MOV      r1,r7
        0x0000082e:    b007        ..      ADD      sp,sp,#0x1c
        0x00000830:    bdf0        ..      POP      {r4-r7,pc}
        0x00000832:    2000        .       MOVS     r0,#0
        0x00000834:    17c1        ..      ASRS     r1,r0,#31
        0x00000836:    4305        .C      ORRS     r5,r5,r0
        0x00000838:    430e        .C      ORRS     r6,r6,r1
        0x0000083a:    432c        ,C      ORRS     r4,r4,r5
        0x0000083c:    4337        7C      ORRS     r7,r7,r6
        0x0000083e:    9900        ..      LDR      r1,[sp,#0]
        0x00000840:    980e        ..      LDR      r0,[sp,#0x38]
        0x00000842:    0563        c.      LSLS     r3,r4,#21
        0x00000844:    1a40        @.      SUBS     r0,r0,r1
        0x00000846:    0579        y.      LSLS     r1,r7,#21
        0x00000848:    0ae4        ..      LSRS     r4,r4,#11
        0x0000084a:    2200        ."      MOVS     r2,#0
        0x0000084c:    430c        .C      ORRS     r4,r4,r1
        0x0000084e:    0afd        ..      LSRS     r5,r7,#11
        0x00000850:    300a        .0      ADDS     r0,r0,#0xa
        0x00000852:    d502        ..      BPL      0x85a ; _double_epilogue + 144
        0x00000854:    2000        .       MOVS     r0,#0
        0x00000856:    4601        .F      MOV      r1,r0
        0x00000858:    e7e9        ..      B        0x82e ; _double_epilogue + 100
        0x0000085a:    0501        ..      LSLS     r1,r0,#20
        0x0000085c:    1910        ..      ADDS     r0,r2,r4
        0x0000085e:    4169        iA      ADCS     r1,r1,r5
        0x00000860:    9c0c        ..      LDR      r4,[sp,#0x30]
        0x00000862:    9d0d        ..      LDR      r5,[sp,#0x34]
        0x00000864:    1900        ..      ADDS     r0,r0,r4
        0x00000866:    4169        iA      ADCS     r1,r1,r5
        0x00000868:    f7ffffa2    ....    BL       _double_round ; 0x7b0
        0x0000086c:    e7df        ..      B        0x82e ; _double_epilogue + 100
    AO2022_MeterModule_1261_init
        0x0000086e:    b580        ..      PUSH     {r7,lr}
        0x00000870:    f000f816    ....    BL       AO2022_MeterModule_1261_init_ice ; 0x8a0
        0x00000874:    f000f820    .. .    BL       AO2022_MeterModule_1261_init_pa ; 0x8b8
        0x00000878:    f000f82a    ..*.    BL       AO2022_MeterModule_1261_init_pb ; 0x8d0
        0x0000087c:    f000f832    ..2.    BL       AO2022_MeterModule_1261_init_pc ; 0x8e4
        0x00000880:    f000f83a    ..:.    BL       AO2022_MeterModule_1261_init_pd ; 0x8f8
        0x00000884:    f000f842    ..B.    BL       AO2022_MeterModule_1261_init_pe ; 0x90c
        0x00000888:    f000f84a    ..J.    BL       AO2022_MeterModule_1261_init_pf ; 0x920
        0x0000088c:    f000f852    ..R.    BL       AO2022_MeterModule_1261_init_uart0 ; 0x934
        0x00000890:    f000f85c    ..\.    BL       AO2022_MeterModule_1261_init_uart1 ; 0x94c
        0x00000894:    f000f868    ..h.    BL       AO2022_MeterModule_1261_init_uart2 ; 0x968
        0x00000898:    f000f874    ..t.    BL       AO2022_MeterModule_1261_init_x32 ; 0x984
        0x0000089c:    bd80        ..      POP      {r7,pc}
        0x0000089e:    0000        ..      MOVS     r0,r0
    AO2022_MeterModule_1261_init_ice
        0x000008a0:    491e        .I      LDR      r1,[pc,#120] ; [0x91c] = 0x50000050
        0x000008a2:    6808        .h      LDR      r0,[r1,#0]
        0x000008a4:    22ff        ."      MOVS     r2,#0xff
        0x000008a6:    0612        ..      LSLS     r2,r2,#24
        0x000008a8:    4390        .C      BICS     r0,r0,r2
        0x000008aa:    6008        .`      STR      r0,[r1,#0]
        0x000008ac:    6808        .h      LDR      r0,[r1,#0]
        0x000008ae:    2211        ."      MOVS     r2,#0x11
        0x000008b0:    0612        ..      LSLS     r2,r2,#24
        0x000008b2:    4310        .C      ORRS     r0,r0,r2
        0x000008b4:    6008        .`      STR      r0,[r1,#0]
        0x000008b6:    4770        pG      BX       lr
    AO2022_MeterModule_1261_init_pa
        0x000008b8:    4903        .I      LDR      r1,[pc,#12] ; [0x8c8] = 0x50000030
        0x000008ba:    6808        .h      LDR      r0,[r1,#0]
        0x000008bc:    4a03        .J      LDR      r2,[pc,#12] ; [0x8cc] = 0xffff0000
        0x000008be:    4010        .@      ANDS     r0,r0,r2
        0x000008c0:    6008        .`      STR      r0,[r1,#0]
        0x000008c2:    6808        .h      LDR      r0,[r1,#0]
        0x000008c4:    6008        .`      STR      r0,[r1,#0]
        0x000008c6:    4770        pG      BX       lr
    $d
    __arm_cp.4_0
        0x000008c8:    50000030    0..P    DCD    1342177328
    __arm_cp.4_1
        0x000008cc:    ffff0000    ....    DCD    4294901760
    $t
    AO2022_MeterModule_1261_init_pb
        0x000008d0:    4903        .I      LDR      r1,[pc,#12] ; [0x8e0] = 0x50000038
        0x000008d2:    6808        .h      LDR      r0,[r1,#0]
        0x000008d4:    2000        .       MOVS     r0,#0
        0x000008d6:    6008        .`      STR      r0,[r1,#0]
        0x000008d8:    6808        .h      LDR      r0,[r1,#0]
        0x000008da:    6008        .`      STR      r0,[r1,#0]
        0x000008dc:    4770        pG      BX       lr
        0x000008de:    46c0        .F      MOV      r8,r8
    $d
    __arm_cp.6_0
        0x000008e0:    50000038    8..P    DCD    1342177336
    $t
    AO2022_MeterModule_1261_init_pc
        0x000008e4:    4926        &I      LDR      r1,[pc,#152] ; [0x980] = 0x50000040
        0x000008e6:    6808        .h      LDR      r0,[r1,#0]
        0x000008e8:    220f        ."      MOVS     r2,#0xf
        0x000008ea:    0412        ..      LSLS     r2,r2,#16
        0x000008ec:    4390        .C      BICS     r0,r0,r2
        0x000008ee:    6008        .`      STR      r0,[r1,#0]
        0x000008f0:    6808        .h      LDR      r0,[r1,#0]
        0x000008f2:    6008        .`      STR      r0,[r1,#0]
        0x000008f4:    4770        pG      BX       lr
        0x000008f6:    46c0        .F      MOV      r8,r8
    AO2022_MeterModule_1261_init_pd
        0x000008f8:    4913        .I      LDR      r1,[pc,#76] ; [0x948] = 0x50000048
        0x000008fa:    6808        .h      LDR      r0,[r1,#0]
        0x000008fc:    4a02        .J      LDR      r2,[pc,#8] ; [0x908] = 0xfff00ff
        0x000008fe:    4010        .@      ANDS     r0,r0,r2
        0x00000900:    6008        .`      STR      r0,[r1,#0]
        0x00000902:    6808        .h      LDR      r0,[r1,#0]
        0x00000904:    6008        .`      STR      r0,[r1,#0]
        0x00000906:    4770        pG      BX       lr
    $d
    __arm_cp.10_1
        0x00000908:    0fff00ff    ....    DCD    268370175
    $t
    AO2022_MeterModule_1261_init_pe
        0x0000090c:    4903        .I      LDR      r1,[pc,#12] ; [0x91c] = 0x50000050
        0x0000090e:    6808        .h      LDR      r0,[r1,#0]
        0x00000910:    220f        ."      MOVS     r2,#0xf
        0x00000912:    4390        .C      BICS     r0,r0,r2
        0x00000914:    6008        .`      STR      r0,[r1,#0]
        0x00000916:    6808        .h      LDR      r0,[r1,#0]
        0x00000918:    6008        .`      STR      r0,[r1,#0]
        0x0000091a:    4770        pG      BX       lr
    $d
    __arm_cp.12_0
        0x0000091c:    50000050    P..P    DCD    1342177360
    $t
    AO2022_MeterModule_1261_init_pf
        0x00000920:    491d        .I      LDR      r1,[pc,#116] ; [0x998] = 0x50000058
        0x00000922:    6808        .h      LDR      r0,[r1,#0]
        0x00000924:    4a02        .J      LDR      r2,[pc,#8] ; [0x930] = 0xff000ff
        0x00000926:    4010        .@      ANDS     r0,r0,r2
        0x00000928:    6008        .`      STR      r0,[r1,#0]
        0x0000092a:    6808        .h      LDR      r0,[r1,#0]
        0x0000092c:    6008        .`      STR      r0,[r1,#0]
        0x0000092e:    4770        pG      BX       lr
    $d
    __arm_cp.14_1
        0x00000930:    0ff000ff    ....    DCD    267387135
    $t
    AO2022_MeterModule_1261_init_uart0
        0x00000934:    4904        .I      LDR      r1,[pc,#16] ; [0x948] = 0x50000048
        0x00000936:    6808        .h      LDR      r0,[r1,#0]
        0x00000938:    22ff        ."      MOVS     r2,#0xff
        0x0000093a:    4390        .C      BICS     r0,r0,r2
        0x0000093c:    6008        .`      STR      r0,[r1,#0]
        0x0000093e:    6808        .h      LDR      r0,[r1,#0]
        0x00000940:    2233        3"      MOVS     r2,#0x33
        0x00000942:    4310        .C      ORRS     r0,r0,r2
        0x00000944:    6008        .`      STR      r0,[r1,#0]
        0x00000946:    4770        pG      BX       lr
    $d
    __arm_cp.16_0
        0x00000948:    50000048    H..P    DCD    1342177352
    $t
    AO2022_MeterModule_1261_init_uart1
        0x0000094c:    4905        .I      LDR      r1,[pc,#20] ; [0x964] = 0x50000054
        0x0000094e:    6808        .h      LDR      r0,[r1,#0]
        0x00000950:    22ff        ."      MOVS     r2,#0xff
        0x00000952:    0412        ..      LSLS     r2,r2,#16
        0x00000954:    4390        .C      BICS     r0,r0,r2
        0x00000956:    6008        .`      STR      r0,[r1,#0]
        0x00000958:    6808        .h      LDR      r0,[r1,#0]
        0x0000095a:    2233        3"      MOVS     r2,#0x33
        0x0000095c:    0412        ..      LSLS     r2,r2,#16
        0x0000095e:    4310        .C      ORRS     r0,r0,r2
        0x00000960:    6008        .`      STR      r0,[r1,#0]
        0x00000962:    4770        pG      BX       lr
    $d
    __arm_cp.18_0
        0x00000964:    50000054    T..P    DCD    1342177364
    $t
    AO2022_MeterModule_1261_init_uart2
        0x00000968:    4905        .I      LDR      r1,[pc,#20] ; [0x980] = 0x50000040
        0x0000096a:    6808        .h      LDR      r0,[r1,#0]
        0x0000096c:    22ff        ."      MOVS     r2,#0xff
        0x0000096e:    0212        ..      LSLS     r2,r2,#8
        0x00000970:    4390        .C      BICS     r0,r0,r2
        0x00000972:    6008        .`      STR      r0,[r1,#0]
        0x00000974:    6808        .h      LDR      r0,[r1,#0]
        0x00000976:    2233        3"      MOVS     r2,#0x33
        0x00000978:    0212        ..      LSLS     r2,r2,#8
        0x0000097a:    4310        .C      ORRS     r0,r0,r2
        0x0000097c:    6008        .`      STR      r0,[r1,#0]
        0x0000097e:    4770        pG      BX       lr
    $d
    __arm_cp.20_0
        0x00000980:    50000040    @..P    DCD    1342177344
    $t
    AO2022_MeterModule_1261_init_x32
        0x00000984:    4904        .I      LDR      r1,[pc,#16] ; [0x998] = 0x50000058
        0x00000986:    6808        .h      LDR      r0,[r1,#0]
        0x00000988:    22ff        ."      MOVS     r2,#0xff
        0x0000098a:    4390        .C      BICS     r0,r0,r2
        0x0000098c:    6008        .`      STR      r0,[r1,#0]
        0x0000098e:    6808        .h      LDR      r0,[r1,#0]
        0x00000990:    2211        ."      MOVS     r2,#0x11
        0x00000992:    4310        .C      ORRS     r0,r0,r2
        0x00000994:    6008        .`      STR      r0,[r1,#0]
        0x00000996:    4770        pG      BX       lr
    $d
    __arm_cp.22_0
        0x00000998:    50000058    X..P    DCD    1342177368
    $t
    BAW2A_AddBalance
        0x0000099c:    b580        ..      PUSH     {r7,lr}
        0x0000099e:    b082        ..      SUB      sp,sp,#8
        0x000009a0:    49c8        .I      LDR      r1,[pc,#800] ; [0xcc4] = 0x20000d06
        0x000009a2:    201a        .       MOVS     r0,#0x1a
        0x000009a4:    7008        .p      STRB     r0,[r1,#0]
        0x000009a6:    48c8        .H      LDR      r0,[pc,#800] ; [0xcc8] = 0x20000d0d
        0x000009a8:    9001        ..      STR      r0,[sp,#4]
        0x000009aa:    2110        .!      MOVS     r1,#0x10
        0x000009ac:    7041        Ap      STRB     r1,[r0,#1]
        0x000009ae:    2100        .!      MOVS     r1,#0
        0x000009b0:    7081        .p      STRB     r1,[r0,#2]
        0x000009b2:    22d4        ."      MOVS     r2,#0xd4
        0x000009b4:    70c2        .p      STRB     r2,[r0,#3]
        0x000009b6:    7101        .q      STRB     r1,[r0,#4]
        0x000009b8:    2102        .!      MOVS     r1,#2
        0x000009ba:    7141        Aq      STRB     r1,[r0,#5]
        0x000009bc:    2104        .!      MOVS     r1,#4
        0x000009be:    7181        .q      STRB     r1,[r0,#6]
        0x000009c0:    2133        3!      MOVS     r1,#0x33
        0x000009c2:    71c1        .q      STRB     r1,[r0,#7]
        0x000009c4:    217f        .!      MOVS     r1,#0x7f
        0x000009c6:    7201        .r      STRB     r1,[r0,#8]
        0x000009c8:    217e        ~!      MOVS     r1,#0x7e
        0x000009ca:    7241        Ar      STRB     r1,[r0,#9]
        0x000009cc:    2173        s!      MOVS     r1,#0x73
        0x000009ce:    7281        .r      STRB     r1,[r0,#0xa]
        0x000009d0:    210b        .!      MOVS     r1,#0xb
        0x000009d2:    f000febb    ....    BL       CRC16 ; 0x174c
        0x000009d6:    9801        ..      LDR      r0,[sp,#4]
        0x000009d8:    49ce        .I      LDR      r1,[pc,#824] ; [0xd14] = 0x2000000c
        0x000009da:    7809        .x      LDRB     r1,[r1,#0]
        0x000009dc:    72c1        .r      STRB     r1,[r0,#0xb]
        0x000009de:    49ce        .I      LDR      r1,[pc,#824] ; [0xd18] = 0x2000000d
        0x000009e0:    7809        .x      LDRB     r1,[r1,#0]
        0x000009e2:    7301        .s      STRB     r1,[r0,#0xc]
        0x000009e4:    210d        .!      MOVS     r1,#0xd
        0x000009e6:    f005f84f    ..O.    BL       _SendStringToMETER ; 0x5a88
        0x000009ea:    b002        ..      ADD      sp,sp,#8
        0x000009ec:    bd80        ..      POP      {r7,pc}
        0x000009ee:    46c0        .F      MOV      r8,r8
    BAW2A_ExitTestMode
        0x000009f0:    b580        ..      PUSH     {r7,lr}
        0x000009f2:    b082        ..      SUB      sp,sp,#8
        0x000009f4:    49c5        .I      LDR      r1,[pc,#788] ; [0xd0c] = 0x20000d06
        0x000009f6:    201a        .       MOVS     r0,#0x1a
        0x000009f8:    7008        .p      STRB     r0,[r1,#0]
        0x000009fa:    48c5        .H      LDR      r0,[pc,#788] ; [0xd10] = 0x20000d0d
        0x000009fc:    9001        ..      STR      r0,[sp,#4]
        0x000009fe:    2110        .!      MOVS     r1,#0x10
        0x00000a00:    7041        Ap      STRB     r1,[r0,#1]
        0x00000a02:    2100        .!      MOVS     r1,#0
        0x00000a04:    7081        .p      STRB     r1,[r0,#2]
        0x00000a06:    2249        I"      MOVS     r2,#0x49
        0x00000a08:    70c2        .p      STRB     r2,[r0,#3]
        0x00000a0a:    7101        .q      STRB     r1,[r0,#4]
        0x00000a0c:    2201        ."      MOVS     r2,#1
        0x00000a0e:    7142        Bq      STRB     r2,[r0,#5]
        0x00000a10:    2202        ."      MOVS     r2,#2
        0x00000a12:    7182        .q      STRB     r2,[r0,#6]
        0x00000a14:    71c1        .q      STRB     r1,[r0,#7]
        0x00000a16:    7201        .r      STRB     r1,[r0,#8]
        0x00000a18:    2109        .!      MOVS     r1,#9
        0x00000a1a:    f000fe97    ....    BL       CRC16 ; 0x174c
        0x00000a1e:    9801        ..      LDR      r0,[sp,#4]
        0x00000a20:    49d0        .I      LDR      r1,[pc,#832] ; [0xd64] = 0x2000000c
        0x00000a22:    7809        .x      LDRB     r1,[r1,#0]
        0x00000a24:    7241        Ar      STRB     r1,[r0,#9]
        0x00000a26:    49d0        .I      LDR      r1,[pc,#832] ; [0xd68] = 0x2000000d
        0x00000a28:    7809        .x      LDRB     r1,[r1,#0]
        0x00000a2a:    7281        .r      STRB     r1,[r0,#0xa]
        0x00000a2c:    210b        .!      MOVS     r1,#0xb
        0x00000a2e:    f005f82b    ..+.    BL       _SendStringToMETER ; 0x5a88
        0x00000a32:    b002        ..      ADD      sp,sp,#8
        0x00000a34:    bd80        ..      POP      {r7,pc}
        0x00000a36:    46c0        .F      MOV      r8,r8
    BAW2A_GetBalance
        0x00000a38:    b580        ..      PUSH     {r7,lr}
        0x00000a3a:    b082        ..      SUB      sp,sp,#8
        0x00000a3c:    49c7        .I      LDR      r1,[pc,#796] ; [0xd5c] = 0x20000d06
        0x00000a3e:    200c        .       MOVS     r0,#0xc
        0x00000a40:    7008        .p      STRB     r0,[r1,#0]
        0x00000a42:    495f        _I      LDR      r1,[pc,#380] ; [0xbc0] = 0x200010b9
        0x00000a44:    2001        .       MOVS     r0,#1
        0x00000a46:    7008        .p      STRB     r0,[r1,#0]
        0x00000a48:    48c5        .H      LDR      r0,[pc,#788] ; [0xd60] = 0x20000d0d
        0x00000a4a:    9001        ..      STR      r0,[sp,#4]
        0x00000a4c:    2103        .!      MOVS     r1,#3
        0x00000a4e:    7041        Ap      STRB     r1,[r0,#1]
        0x00000a50:    2100        .!      MOVS     r1,#0
        0x00000a52:    7081        .p      STRB     r1,[r0,#2]
        0x00000a54:    220a        ."      MOVS     r2,#0xa
        0x00000a56:    70c2        .p      STRB     r2,[r0,#3]
        0x00000a58:    7101        .q      STRB     r1,[r0,#4]
        0x00000a5a:    2102        .!      MOVS     r1,#2
        0x00000a5c:    7141        Aq      STRB     r1,[r0,#5]
        0x00000a5e:    2106        .!      MOVS     r1,#6
        0x00000a60:    f000fe74    ..t.    BL       CRC16 ; 0x174c
        0x00000a64:    9801        ..      LDR      r0,[sp,#4]
        0x00000a66:    49d7        .I      LDR      r1,[pc,#860] ; [0xdc4] = 0x2000000c
        0x00000a68:    7809        .x      LDRB     r1,[r1,#0]
        0x00000a6a:    7181        .q      STRB     r1,[r0,#6]
        0x00000a6c:    49d6        .I      LDR      r1,[pc,#856] ; [0xdc8] = 0x2000000d
        0x00000a6e:    7809        .x      LDRB     r1,[r1,#0]
        0x00000a70:    71c1        .q      STRB     r1,[r0,#7]
        0x00000a72:    2108        .!      MOVS     r1,#8
        0x00000a74:    f005f808    ....    BL       _SendStringToMETER ; 0x5a88
        0x00000a78:    b002        ..      ADD      sp,sp,#8
        0x00000a7a:    bd80        ..      POP      {r7,pc}
    BAW2A_GetCardID
        0x00000a7c:    b580        ..      PUSH     {r7,lr}
        0x00000a7e:    b082        ..      SUB      sp,sp,#8
        0x00000a80:    49cd        .I      LDR      r1,[pc,#820] ; [0xdb8] = 0x20000d06
        0x00000a82:    2015        .       MOVS     r0,#0x15
        0x00000a84:    7008        .p      STRB     r0,[r1,#0]
        0x00000a86:    48cd        .H      LDR      r0,[pc,#820] ; [0xdbc] = 0x20000d0d
        0x00000a88:    9001        ..      STR      r0,[sp,#4]
        0x00000a8a:    2103        .!      MOVS     r1,#3
        0x00000a8c:    7041        Ap      STRB     r1,[r0,#1]
        0x00000a8e:    2101        .!      MOVS     r1,#1
        0x00000a90:    7081        .p      STRB     r1,[r0,#2]
        0x00000a92:    2123        #!      MOVS     r1,#0x23
        0x00000a94:    70c1        .p      STRB     r1,[r0,#3]
        0x00000a96:    2100        .!      MOVS     r1,#0
        0x00000a98:    7101        .q      STRB     r1,[r0,#4]
        0x00000a9a:    2104        .!      MOVS     r1,#4
        0x00000a9c:    7141        Aq      STRB     r1,[r0,#5]
        0x00000a9e:    2106        .!      MOVS     r1,#6
        0x00000aa0:    f000fe54    ..T.    BL       CRC16 ; 0x174c
        0x00000aa4:    9801        ..      LDR      r0,[sp,#4]
        0x00000aa6:    49c7        .I      LDR      r1,[pc,#796] ; [0xdc4] = 0x2000000c
        0x00000aa8:    7809        .x      LDRB     r1,[r1,#0]
        0x00000aaa:    7181        .q      STRB     r1,[r0,#6]
        0x00000aac:    49c6        .I      LDR      r1,[pc,#792] ; [0xdc8] = 0x2000000d
        0x00000aae:    7809        .x      LDRB     r1,[r1,#0]
        0x00000ab0:    71c1        .q      STRB     r1,[r0,#7]
        0x00000ab2:    2108        .!      MOVS     r1,#8
        0x00000ab4:    f004ffe8    ....    BL       _SendStringToMETER ; 0x5a88
        0x00000ab8:    b002        ..      ADD      sp,sp,#8
        0x00000aba:    bd80        ..      POP      {r7,pc}
    BAW2A_GetPayMode
        0x00000abc:    b580        ..      PUSH     {r7,lr}
        0x00000abe:    b082        ..      SUB      sp,sp,#8
        0x00000ac0:    49d5        .I      LDR      r1,[pc,#852] ; [0xe18] = 0x20000d06
        0x00000ac2:    2013        .       MOVS     r0,#0x13
        0x00000ac4:    7008        .p      STRB     r0,[r1,#0]
        0x00000ac6:    48d5        .H      LDR      r0,[pc,#852] ; [0xe1c] = 0x20000d0d
        0x00000ac8:    9001        ..      STR      r0,[sp,#4]
        0x00000aca:    2103        .!      MOVS     r1,#3
        0x00000acc:    7041        Ap      STRB     r1,[r0,#1]
        0x00000ace:    2100        .!      MOVS     r1,#0
        0x00000ad0:    7081        .p      STRB     r1,[r0,#2]
        0x00000ad2:    22e0        ."      MOVS     r2,#0xe0
        0x00000ad4:    70c2        .p      STRB     r2,[r0,#3]
        0x00000ad6:    7101        .q      STRB     r1,[r0,#4]
        0x00000ad8:    2101        .!      MOVS     r1,#1
        0x00000ada:    7141        Aq      STRB     r1,[r0,#5]
        0x00000adc:    2106        .!      MOVS     r1,#6
        0x00000ade:    f000fe35    ..5.    BL       CRC16 ; 0x174c
        0x00000ae2:    9801        ..      LDR      r0,[sp,#4]
        0x00000ae4:    49cf        .I      LDR      r1,[pc,#828] ; [0xe24] = 0x2000000c
        0x00000ae6:    7809        .x      LDRB     r1,[r1,#0]
        0x00000ae8:    7181        .q      STRB     r1,[r0,#6]
        0x00000aea:    49cf        .I      LDR      r1,[pc,#828] ; [0xe28] = 0x2000000d
        0x00000aec:    7809        .x      LDRB     r1,[r1,#0]
        0x00000aee:    71c1        .q      STRB     r1,[r0,#7]
        0x00000af0:    2108        .!      MOVS     r1,#8
        0x00000af2:    f004ffc9    ....    BL       _SendStringToMETER ; 0x5a88
        0x00000af6:    b002        ..      ADD      sp,sp,#8
        0x00000af8:    bd80        ..      POP      {r7,pc}
        0x00000afa:    46c0        .F      MOV      r8,r8
    BAW2A_GetRelayStatus
        0x00000afc:    b580        ..      PUSH     {r7,lr}
        0x00000afe:    b082        ..      SUB      sp,sp,#8
        0x00000b00:    49df        .I      LDR      r1,[pc,#892] ; [0xe80] = 0x20000d06
        0x00000b02:    2005        .       MOVS     r0,#5
        0x00000b04:    7008        .p      STRB     r0,[r1,#0]
        0x00000b06:    482e        .H      LDR      r0,[pc,#184] ; [0xbc0] = 0x200010b9
        0x00000b08:    2101        .!      MOVS     r1,#1
        0x00000b0a:    7001        .p      STRB     r1,[r0,#0]
        0x00000b0c:    48dd        .H      LDR      r0,[pc,#884] ; [0xe84] = 0x20000d0d
        0x00000b0e:    9001        ..      STR      r0,[sp,#4]
        0x00000b10:    2203        ."      MOVS     r2,#3
        0x00000b12:    7042        Bp      STRB     r2,[r0,#1]
        0x00000b14:    2200        ."      MOVS     r2,#0
        0x00000b16:    7082        .p      STRB     r2,[r0,#2]
        0x00000b18:    2302        .#      MOVS     r3,#2
        0x00000b1a:    70c3        .p      STRB     r3,[r0,#3]
        0x00000b1c:    7102        .q      STRB     r2,[r0,#4]
        0x00000b1e:    7141        Aq      STRB     r1,[r0,#5]
        0x00000b20:    2106        .!      MOVS     r1,#6
        0x00000b22:    f000fe13    ....    BL       CRC16 ; 0x174c
        0x00000b26:    9801        ..      LDR      r0,[sp,#4]
        0x00000b28:    49d7        .I      LDR      r1,[pc,#860] ; [0xe88] = 0x2000000c
        0x00000b2a:    7809        .x      LDRB     r1,[r1,#0]
        0x00000b2c:    7181        .q      STRB     r1,[r0,#6]
        0x00000b2e:    49d7        .I      LDR      r1,[pc,#860] ; [0xe8c] = 0x2000000d
        0x00000b30:    7809        .x      LDRB     r1,[r1,#0]
        0x00000b32:    71c1        .q      STRB     r1,[r0,#7]
        0x00000b34:    2108        .!      MOVS     r1,#8
        0x00000b36:    f004ffa7    ....    BL       _SendStringToMETER ; 0x5a88
        0x00000b3a:    b002        ..      ADD      sp,sp,#8
        0x00000b3c:    bd80        ..      POP      {r7,pc}
        0x00000b3e:    46c0        .F      MOV      r8,r8
    BAW2A_GetStatus
        0x00000b40:    b580        ..      PUSH     {r7,lr}
        0x00000b42:    b082        ..      SUB      sp,sp,#8
        0x00000b44:    49e5        .I      LDR      r1,[pc,#916] ; [0xedc] = 0x20000d06
        0x00000b46:    2014        .       MOVS     r0,#0x14
        0x00000b48:    7008        .p      STRB     r0,[r1,#0]
        0x00000b4a:    48e5        .H      LDR      r0,[pc,#916] ; [0xee0] = 0x20000d0d
        0x00000b4c:    9001        ..      STR      r0,[sp,#4]
        0x00000b4e:    2103        .!      MOVS     r1,#3
        0x00000b50:    7041        Ap      STRB     r1,[r0,#1]
        0x00000b52:    2101        .!      MOVS     r1,#1
        0x00000b54:    7081        .p      STRB     r1,[r0,#2]
        0x00000b56:    2222        ""      MOVS     r2,#0x22
        0x00000b58:    70c2        .p      STRB     r2,[r0,#3]
        0x00000b5a:    2200        ."      MOVS     r2,#0
        0x00000b5c:    7102        .q      STRB     r2,[r0,#4]
        0x00000b5e:    7141        Aq      STRB     r1,[r0,#5]
        0x00000b60:    2106        .!      MOVS     r1,#6
        0x00000b62:    f000fdf3    ....    BL       CRC16 ; 0x174c
        0x00000b66:    9801        ..      LDR      r0,[sp,#4]
        0x00000b68:    49de        .I      LDR      r1,[pc,#888] ; [0xee4] = 0x2000000c
        0x00000b6a:    7809        .x      LDRB     r1,[r1,#0]
        0x00000b6c:    7181        .q      STRB     r1,[r0,#6]
        0x00000b6e:    49de        .I      LDR      r1,[pc,#888] ; [0xee8] = 0x2000000d
        0x00000b70:    7809        .x      LDRB     r1,[r1,#0]
        0x00000b72:    71c1        .q      STRB     r1,[r0,#7]
        0x00000b74:    2108        .!      MOVS     r1,#8
        0x00000b76:    f004ff87    ....    BL       _SendStringToMETER ; 0x5a88
        0x00000b7a:    b002        ..      ADD      sp,sp,#8
        0x00000b7c:    bd80        ..      POP      {r7,pc}
        0x00000b7e:    46c0        .F      MOV      r8,r8
    BAW2A_GetWatt
        0x00000b80:    b580        ..      PUSH     {r7,lr}
        0x00000b82:    b082        ..      SUB      sp,sp,#8
        0x00000b84:    49d5        .I      LDR      r1,[pc,#852] ; [0xedc] = 0x20000d06
        0x00000b86:    2001        .       MOVS     r0,#1
        0x00000b88:    7008        .p      STRB     r0,[r1,#0]
        0x00000b8a:    490d        .I      LDR      r1,[pc,#52] ; [0xbc0] = 0x200010b9
        0x00000b8c:    7008        .p      STRB     r0,[r1,#0]
        0x00000b8e:    48eb        .H      LDR      r0,[pc,#940] ; [0xf3c] = 0x20000d0d
        0x00000b90:    9001        ..      STR      r0,[sp,#4]
        0x00000b92:    2103        .!      MOVS     r1,#3
        0x00000b94:    7041        Ap      STRB     r1,[r0,#1]
        0x00000b96:    2200        ."      MOVS     r2,#0
        0x00000b98:    7082        .p      STRB     r2,[r0,#2]
        0x00000b9a:    2106        .!      MOVS     r1,#6
        0x00000b9c:    70c1        .p      STRB     r1,[r0,#3]
        0x00000b9e:    7102        .q      STRB     r2,[r0,#4]
        0x00000ba0:    2202        ."      MOVS     r2,#2
        0x00000ba2:    7142        Bq      STRB     r2,[r0,#5]
        0x00000ba4:    f000fdd2    ....    BL       CRC16 ; 0x174c
        0x00000ba8:    9801        ..      LDR      r0,[sp,#4]
        0x00000baa:    49e6        .I      LDR      r1,[pc,#920] ; [0xf44] = 0x2000000c
        0x00000bac:    7809        .x      LDRB     r1,[r1,#0]
        0x00000bae:    7181        .q      STRB     r1,[r0,#6]
        0x00000bb0:    49e5        .I      LDR      r1,[pc,#916] ; [0xf48] = 0x2000000d
        0x00000bb2:    7809        .x      LDRB     r1,[r1,#0]
        0x00000bb4:    71c1        .q      STRB     r1,[r0,#7]
        0x00000bb6:    2108        .!      MOVS     r1,#8
        0x00000bb8:    f004ff66    ..f.    BL       _SendStringToMETER ; 0x5a88
        0x00000bbc:    b002        ..      ADD      sp,sp,#8
        0x00000bbe:    bd80        ..      POP      {r7,pc}
    $d
    __arm_cp.7_1
        0x00000bc0:    200010b9    ...     DCD    536875193
    $t
    BAW2A_Get_F
        0x00000bc4:    b580        ..      PUSH     {r7,lr}
        0x00000bc6:    b082        ..      SUB      sp,sp,#8
        0x00000bc8:    49db        .I      LDR      r1,[pc,#876] ; [0xf38] = 0x20000d06
        0x00000bca:    200f        .       MOVS     r0,#0xf
        0x00000bcc:    7008        .p      STRB     r0,[r1,#0]
        0x00000bce:    48db        .H      LDR      r0,[pc,#876] ; [0xf3c] = 0x20000d0d
        0x00000bd0:    9001        ..      STR      r0,[sp,#4]
        0x00000bd2:    2103        .!      MOVS     r1,#3
        0x00000bd4:    7041        Ap      STRB     r1,[r0,#1]
        0x00000bd6:    2100        .!      MOVS     r1,#0
        0x00000bd8:    7081        .p      STRB     r1,[r0,#2]
        0x00000bda:    22da        ."      MOVS     r2,#0xda
        0x00000bdc:    70c2        .p      STRB     r2,[r0,#3]
        0x00000bde:    7101        .q      STRB     r1,[r0,#4]
        0x00000be0:    2101        .!      MOVS     r1,#1
        0x00000be2:    7141        Aq      STRB     r1,[r0,#5]
        0x00000be4:    2106        .!      MOVS     r1,#6
        0x00000be6:    f000fdb1    ....    BL       CRC16 ; 0x174c
        0x00000bea:    9801        ..      LDR      r0,[sp,#4]
        0x00000bec:    49d5        .I      LDR      r1,[pc,#852] ; [0xf44] = 0x2000000c
        0x00000bee:    7809        .x      LDRB     r1,[r1,#0]
        0x00000bf0:    7181        .q      STRB     r1,[r0,#6]
        0x00000bf2:    49d5        .I      LDR      r1,[pc,#852] ; [0xf48] = 0x2000000d
        0x00000bf4:    7809        .x      LDRB     r1,[r1,#0]
        0x00000bf6:    71c1        .q      STRB     r1,[r0,#7]
        0x00000bf8:    2108        .!      MOVS     r1,#8
        0x00000bfa:    f004ff45    ..E.    BL       _SendStringToMETER ; 0x5a88
        0x00000bfe:    b002        ..      ADD      sp,sp,#8
        0x00000c00:    bd80        ..      POP      {r7,pc}
        0x00000c02:    46c0        .F      MOV      r8,r8
    BAW2A_Get_I
        0x00000c04:    b580        ..      PUSH     {r7,lr}
        0x00000c06:    b082        ..      SUB      sp,sp,#8
        0x00000c08:    49e8        .I      LDR      r1,[pc,#928] ; [0xfac] = 0x20000d06
        0x00000c0a:    200e        .       MOVS     r0,#0xe
        0x00000c0c:    7008        .p      STRB     r0,[r1,#0]
        0x00000c0e:    48e8        .H      LDR      r0,[pc,#928] ; [0xfb0] = 0x20000d0d
        0x00000c10:    9001        ..      STR      r0,[sp,#4]
        0x00000c12:    2103        .!      MOVS     r1,#3
        0x00000c14:    7041        Ap      STRB     r1,[r0,#1]
        0x00000c16:    2100        .!      MOVS     r1,#0
        0x00000c18:    7081        .p      STRB     r1,[r0,#2]
        0x00000c1a:    22d8        ."      MOVS     r2,#0xd8
        0x00000c1c:    70c2        .p      STRB     r2,[r0,#3]
        0x00000c1e:    7101        .q      STRB     r1,[r0,#4]
        0x00000c20:    2102        .!      MOVS     r1,#2
        0x00000c22:    7141        Aq      STRB     r1,[r0,#5]
        0x00000c24:    2106        .!      MOVS     r1,#6
        0x00000c26:    f000fd91    ....    BL       CRC16 ; 0x174c
        0x00000c2a:    9801        ..      LDR      r0,[sp,#4]
        0x00000c2c:    49e2        .I      LDR      r1,[pc,#904] ; [0xfb8] = 0x2000000c
        0x00000c2e:    7809        .x      LDRB     r1,[r1,#0]
        0x00000c30:    7181        .q      STRB     r1,[r0,#6]
        0x00000c32:    49e2        .I      LDR      r1,[pc,#904] ; [0xfbc] = 0x2000000d
        0x00000c34:    7809        .x      LDRB     r1,[r1,#0]
        0x00000c36:    71c1        .q      STRB     r1,[r0,#7]
        0x00000c38:    2108        .!      MOVS     r1,#8
        0x00000c3a:    f004ff25    ..%.    BL       _SendStringToMETER ; 0x5a88
        0x00000c3e:    b002        ..      ADD      sp,sp,#8
        0x00000c40:    bd80        ..      POP      {r7,pc}
        0x00000c42:    46c0        .F      MOV      r8,r8
    BAW2A_Get_P
        0x00000c44:    b580        ..      PUSH     {r7,lr}
        0x00000c46:    b082        ..      SUB      sp,sp,#8
        0x00000c48:    49d8        .I      LDR      r1,[pc,#864] ; [0xfac] = 0x20000d06
        0x00000c4a:    2010        .       MOVS     r0,#0x10
        0x00000c4c:    7008        .p      STRB     r0,[r1,#0]
        0x00000c4e:    48d8        .H      LDR      r0,[pc,#864] ; [0xfb0] = 0x20000d0d
        0x00000c50:    9001        ..      STR      r0,[sp,#4]
        0x00000c52:    2103        .!      MOVS     r1,#3
        0x00000c54:    7041        Ap      STRB     r1,[r0,#1]
        0x00000c56:    2100        .!      MOVS     r1,#0
        0x00000c58:    7081        .p      STRB     r1,[r0,#2]
        0x00000c5a:    22db        ."      MOVS     r2,#0xdb
        0x00000c5c:    70c2        .p      STRB     r2,[r0,#3]
        0x00000c5e:    7101        .q      STRB     r1,[r0,#4]
        0x00000c60:    2102        .!      MOVS     r1,#2
        0x00000c62:    7141        Aq      STRB     r1,[r0,#5]
        0x00000c64:    2106        .!      MOVS     r1,#6
        0x00000c66:    f000fd71    ..q.    BL       CRC16 ; 0x174c
        0x00000c6a:    9801        ..      LDR      r0,[sp,#4]
        0x00000c6c:    49d2        .I      LDR      r1,[pc,#840] ; [0xfb8] = 0x2000000c
        0x00000c6e:    7809        .x      LDRB     r1,[r1,#0]
        0x00000c70:    7181        .q      STRB     r1,[r0,#6]
        0x00000c72:    49d2        .I      LDR      r1,[pc,#840] ; [0xfbc] = 0x2000000d
        0x00000c74:    7809        .x      LDRB     r1,[r1,#0]
        0x00000c76:    71c1        .q      STRB     r1,[r0,#7]
        0x00000c78:    2108        .!      MOVS     r1,#8
        0x00000c7a:    f004ff05    ....    BL       _SendStringToMETER ; 0x5a88
        0x00000c7e:    b002        ..      ADD      sp,sp,#8
        0x00000c80:    bd80        ..      POP      {r7,pc}
        0x00000c82:    46c0        .F      MOV      r8,r8
    BAW2A_Get_PF
        0x00000c84:    b580        ..      PUSH     {r7,lr}
        0x00000c86:    b082        ..      SUB      sp,sp,#8
        0x00000c88:    49e9        .I      LDR      r1,[pc,#932] ; [0x1030] = 0x20000d06
        0x00000c8a:    2012        .       MOVS     r0,#0x12
        0x00000c8c:    7008        .p      STRB     r0,[r1,#0]
        0x00000c8e:    48e9        .H      LDR      r0,[pc,#932] ; [0x1034] = 0x20000d0d
        0x00000c90:    9001        ..      STR      r0,[sp,#4]
        0x00000c92:    2103        .!      MOVS     r1,#3
        0x00000c94:    7041        Ap      STRB     r1,[r0,#1]
        0x00000c96:    2100        .!      MOVS     r1,#0
        0x00000c98:    7081        .p      STRB     r1,[r0,#2]
        0x00000c9a:    22df        ."      MOVS     r2,#0xdf
        0x00000c9c:    70c2        .p      STRB     r2,[r0,#3]
        0x00000c9e:    7101        .q      STRB     r1,[r0,#4]
        0x00000ca0:    2101        .!      MOVS     r1,#1
        0x00000ca2:    7141        Aq      STRB     r1,[r0,#5]
        0x00000ca4:    2106        .!      MOVS     r1,#6
        0x00000ca6:    f000fd51    ..Q.    BL       CRC16 ; 0x174c
        0x00000caa:    9801        ..      LDR      r0,[sp,#4]
        0x00000cac:    49e9        .I      LDR      r1,[pc,#932] ; [0x1054] = 0x2000000c
        0x00000cae:    7809        .x      LDRB     r1,[r1,#0]
        0x00000cb0:    7181        .q      STRB     r1,[r0,#6]
        0x00000cb2:    49e9        .I      LDR      r1,[pc,#932] ; [0x1058] = 0x2000000d
        0x00000cb4:    7809        .x      LDRB     r1,[r1,#0]
        0x00000cb6:    71c1        .q      STRB     r1,[r0,#7]
        0x00000cb8:    2108        .!      MOVS     r1,#8
        0x00000cba:    f004fee5    ....    BL       _SendStringToMETER ; 0x5a88
        0x00000cbe:    b002        ..      ADD      sp,sp,#8
        0x00000cc0:    bd80        ..      POP      {r7,pc}
        0x00000cc2:    46c0        .F      MOV      r8,r8
    $d
    __arm_cp.21_0
        0x00000cc4:    20000d06    ...     DCD    536874246
    __arm_cp.21_1
        0x00000cc8:    20000d0d    ...     DCD    536874253
    $t
    BAW2A_Get_S
        0x00000ccc:    b580        ..      PUSH     {r7,lr}
        0x00000cce:    b082        ..      SUB      sp,sp,#8
        0x00000cd0:    49d7        .I      LDR      r1,[pc,#860] ; [0x1030] = 0x20000d06
        0x00000cd2:    2011        .       MOVS     r0,#0x11
        0x00000cd4:    7008        .p      STRB     r0,[r1,#0]
        0x00000cd6:    48d7        .H      LDR      r0,[pc,#860] ; [0x1034] = 0x20000d0d
        0x00000cd8:    9001        ..      STR      r0,[sp,#4]
        0x00000cda:    2103        .!      MOVS     r1,#3
        0x00000cdc:    7041        Ap      STRB     r1,[r0,#1]
        0x00000cde:    2100        .!      MOVS     r1,#0
        0x00000ce0:    7081        .p      STRB     r1,[r0,#2]
        0x00000ce2:    22dd        ."      MOVS     r2,#0xdd
        0x00000ce4:    70c2        .p      STRB     r2,[r0,#3]
        0x00000ce6:    7101        .q      STRB     r1,[r0,#4]
        0x00000ce8:    2102        .!      MOVS     r1,#2
        0x00000cea:    7141        Aq      STRB     r1,[r0,#5]
        0x00000cec:    2106        .!      MOVS     r1,#6
        0x00000cee:    f000fd2d    ..-.    BL       CRC16 ; 0x174c
        0x00000cf2:    9801        ..      LDR      r0,[sp,#4]
        0x00000cf4:    49d7        .I      LDR      r1,[pc,#860] ; [0x1054] = 0x2000000c
        0x00000cf6:    7809        .x      LDRB     r1,[r1,#0]
        0x00000cf8:    7181        .q      STRB     r1,[r0,#6]
        0x00000cfa:    49d7        .I      LDR      r1,[pc,#860] ; [0x1058] = 0x2000000d
        0x00000cfc:    7809        .x      LDRB     r1,[r1,#0]
        0x00000cfe:    71c1        .q      STRB     r1,[r0,#7]
        0x00000d00:    2108        .!      MOVS     r1,#8
        0x00000d02:    f004fec1    ....    BL       _SendStringToMETER ; 0x5a88
        0x00000d06:    b002        ..      ADD      sp,sp,#8
        0x00000d08:    bd80        ..      POP      {r7,pc}
        0x00000d0a:    46c0        .F      MOV      r8,r8
    $d
    __arm_cp.20_0
        0x00000d0c:    20000d06    ...     DCD    536874246
    __arm_cp.20_1
        0x00000d10:    20000d0d    ...     DCD    536874253
    __arm_cp.20_2
        0x00000d14:    2000000c    ...     DCD    536870924
    __arm_cp.20_3
        0x00000d18:    2000000d    ...     DCD    536870925
    $t
    BAW2A_Get_V
        0x00000d1c:    b580        ..      PUSH     {r7,lr}
        0x00000d1e:    b082        ..      SUB      sp,sp,#8
        0x00000d20:    49c3        .I      LDR      r1,[pc,#780] ; [0x1030] = 0x20000d06
        0x00000d22:    200d        .       MOVS     r0,#0xd
        0x00000d24:    7008        .p      STRB     r0,[r1,#0]
        0x00000d26:    48c3        .H      LDR      r0,[pc,#780] ; [0x1034] = 0x20000d0d
        0x00000d28:    9001        ..      STR      r0,[sp,#4]
        0x00000d2a:    2103        .!      MOVS     r1,#3
        0x00000d2c:    7041        Ap      STRB     r1,[r0,#1]
        0x00000d2e:    2100        .!      MOVS     r1,#0
        0x00000d30:    7081        .p      STRB     r1,[r0,#2]
        0x00000d32:    22d6        ."      MOVS     r2,#0xd6
        0x00000d34:    70c2        .p      STRB     r2,[r0,#3]
        0x00000d36:    7101        .q      STRB     r1,[r0,#4]
        0x00000d38:    2102        .!      MOVS     r1,#2
        0x00000d3a:    7141        Aq      STRB     r1,[r0,#5]
        0x00000d3c:    2106        .!      MOVS     r1,#6
        0x00000d3e:    f000fd05    ....    BL       CRC16 ; 0x174c
        0x00000d42:    9801        ..      LDR      r0,[sp,#4]
        0x00000d44:    49c3        .I      LDR      r1,[pc,#780] ; [0x1054] = 0x2000000c
        0x00000d46:    7809        .x      LDRB     r1,[r1,#0]
        0x00000d48:    7181        .q      STRB     r1,[r0,#6]
        0x00000d4a:    49c3        .I      LDR      r1,[pc,#780] ; [0x1058] = 0x2000000d
        0x00000d4c:    7809        .x      LDRB     r1,[r1,#0]
        0x00000d4e:    71c1        .q      STRB     r1,[r0,#7]
        0x00000d50:    2108        .!      MOVS     r1,#8
        0x00000d52:    f004fe99    ....    BL       _SendStringToMETER ; 0x5a88
        0x00000d56:    b002        ..      ADD      sp,sp,#8
        0x00000d58:    bd80        ..      POP      {r7,pc}
        0x00000d5a:    46c0        .F      MOV      r8,r8
    $d
    __arm_cp.16_0
        0x00000d5c:    20000d06    ...     DCD    536874246
    __arm_cp.16_1
        0x00000d60:    20000d0d    ...     DCD    536874253
    __arm_cp.16_2
        0x00000d64:    2000000c    ...     DCD    536870924
    __arm_cp.16_3
        0x00000d68:    2000000d    ...     DCD    536870925
    $t
    BAW2A_SetAddr
        0x00000d6c:    b580        ..      PUSH     {r7,lr}
        0x00000d6e:    b082        ..      SUB      sp,sp,#8
        0x00000d70:    49af        .I      LDR      r1,[pc,#700] ; [0x1030] = 0x20000d06
        0x00000d72:    201a        .       MOVS     r0,#0x1a
        0x00000d74:    7008        .p      STRB     r0,[r1,#0]
        0x00000d76:    48af        .H      LDR      r0,[pc,#700] ; [0x1034] = 0x20000d0d
        0x00000d78:    9001        ..      STR      r0,[sp,#4]
        0x00000d7a:    2110        .!      MOVS     r1,#0x10
        0x00000d7c:    7041        Ap      STRB     r1,[r0,#1]
        0x00000d7e:    2100        .!      MOVS     r1,#0
        0x00000d80:    7081        .p      STRB     r1,[r0,#2]
        0x00000d82:    220e        ."      MOVS     r2,#0xe
        0x00000d84:    70c2        .p      STRB     r2,[r0,#3]
        0x00000d86:    7101        .q      STRB     r1,[r0,#4]
        0x00000d88:    2201        ."      MOVS     r2,#1
        0x00000d8a:    7142        Bq      STRB     r2,[r0,#5]
        0x00000d8c:    2202        ."      MOVS     r2,#2
        0x00000d8e:    7182        .q      STRB     r2,[r0,#6]
        0x00000d90:    4a0b        .J      LDR      r2,[pc,#44] ; [0xdc0] = 0x20000d55
        0x00000d92:    7812        .x      LDRB     r2,[r2,#0]
        0x00000d94:    71c2        .q      STRB     r2,[r0,#7]
        0x00000d96:    7201        .r      STRB     r1,[r0,#8]
        0x00000d98:    2109        .!      MOVS     r1,#9
        0x00000d9a:    f000fcd7    ....    BL       CRC16 ; 0x174c
        0x00000d9e:    9801        ..      LDR      r0,[sp,#4]
        0x00000da0:    49ac        .I      LDR      r1,[pc,#688] ; [0x1054] = 0x2000000c
        0x00000da2:    7809        .x      LDRB     r1,[r1,#0]
        0x00000da4:    7241        Ar      STRB     r1,[r0,#9]
        0x00000da6:    49ac        .I      LDR      r1,[pc,#688] ; [0x1058] = 0x2000000d
        0x00000da8:    7809        .x      LDRB     r1,[r1,#0]
        0x00000daa:    7281        .r      STRB     r1,[r0,#0xa]
        0x00000dac:    210b        .!      MOVS     r1,#0xb
        0x00000dae:    f004fe6b    ..k.    BL       _SendStringToMETER ; 0x5a88
        0x00000db2:    b002        ..      ADD      sp,sp,#8
        0x00000db4:    bd80        ..      POP      {r7,pc}
        0x00000db6:    46c0        .F      MOV      r8,r8
    $d
    __arm_cp.11_0
        0x00000db8:    20000d06    ...     DCD    536874246
    __arm_cp.11_1
        0x00000dbc:    20000d0d    ...     DCD    536874253
    __arm_cp.11_2
        0x00000dc0:    20000d55    U..     DCD    536874325
    __arm_cp.11_3
        0x00000dc4:    2000000c    ...     DCD    536870924
    __arm_cp.11_4
        0x00000dc8:    2000000d    ...     DCD    536870925
    $t
    BAW2A_SetBuadrate
        0x00000dcc:    b580        ..      PUSH     {r7,lr}
        0x00000dce:    b082        ..      SUB      sp,sp,#8
        0x00000dd0:    4997        .I      LDR      r1,[pc,#604] ; [0x1030] = 0x20000d06
        0x00000dd2:    201a        .       MOVS     r0,#0x1a
        0x00000dd4:    7008        .p      STRB     r0,[r1,#0]
        0x00000dd6:    4897        .H      LDR      r0,[pc,#604] ; [0x1034] = 0x20000d0d
        0x00000dd8:    9001        ..      STR      r0,[sp,#4]
        0x00000dda:    2110        .!      MOVS     r1,#0x10
        0x00000ddc:    7041        Ap      STRB     r1,[r0,#1]
        0x00000dde:    2100        .!      MOVS     r1,#0
        0x00000de0:    7081        .p      STRB     r1,[r0,#2]
        0x00000de2:    22d3        ."      MOVS     r2,#0xd3
        0x00000de4:    70c2        .p      STRB     r2,[r0,#3]
        0x00000de6:    7101        .q      STRB     r1,[r0,#4]
        0x00000de8:    2201        ."      MOVS     r2,#1
        0x00000dea:    7142        Bq      STRB     r2,[r0,#5]
        0x00000dec:    2202        ."      MOVS     r2,#2
        0x00000dee:    7182        .q      STRB     r2,[r0,#6]
        0x00000df0:    71c1        .q      STRB     r1,[r0,#7]
        0x00000df2:    490b        .I      LDR      r1,[pc,#44] ; [0xe20] = 0x20000d4c
        0x00000df4:    7809        .x      LDRB     r1,[r1,#0]
        0x00000df6:    7201        .r      STRB     r1,[r0,#8]
        0x00000df8:    2109        .!      MOVS     r1,#9
        0x00000dfa:    f000fca7    ....    BL       CRC16 ; 0x174c
        0x00000dfe:    9801        ..      LDR      r0,[sp,#4]
        0x00000e00:    4994        .I      LDR      r1,[pc,#592] ; [0x1054] = 0x2000000c
        0x00000e02:    7809        .x      LDRB     r1,[r1,#0]
        0x00000e04:    7241        Ar      STRB     r1,[r0,#9]
        0x00000e06:    4994        .I      LDR      r1,[pc,#592] ; [0x1058] = 0x2000000d
        0x00000e08:    7809        .x      LDRB     r1,[r1,#0]
        0x00000e0a:    7281        .r      STRB     r1,[r0,#0xa]
        0x00000e0c:    210b        .!      MOVS     r1,#0xb
        0x00000e0e:    f004fe3b    ..;.    BL       _SendStringToMETER ; 0x5a88
        0x00000e12:    b002        ..      ADD      sp,sp,#8
        0x00000e14:    bd80        ..      POP      {r7,pc}
        0x00000e16:    46c0        .F      MOV      r8,r8
    $d
    __arm_cp.12_0
        0x00000e18:    20000d06    ...     DCD    536874246
    __arm_cp.12_1
        0x00000e1c:    20000d0d    ...     DCD    536874253
    __arm_cp.12_2
        0x00000e20:    20000d4c    L..     DCD    536874316
    __arm_cp.12_3
        0x00000e24:    2000000c    ...     DCD    536870924
    __arm_cp.12_4
        0x00000e28:    2000000d    ...     DCD    536870925
    $t
    BAW2A_SetPassword
        0x00000e2c:    b580        ..      PUSH     {r7,lr}
        0x00000e2e:    b082        ..      SUB      sp,sp,#8
        0x00000e30:    497f        .I      LDR      r1,[pc,#508] ; [0x1030] = 0x20000d06
        0x00000e32:    201a        .       MOVS     r0,#0x1a
        0x00000e34:    7008        .p      STRB     r0,[r1,#0]
        0x00000e36:    487f        .H      LDR      r0,[pc,#508] ; [0x1034] = 0x20000d0d
        0x00000e38:    9001        ..      STR      r0,[sp,#4]
        0x00000e3a:    2116        .!      MOVS     r1,#0x16
        0x00000e3c:    7041        Ap      STRB     r1,[r0,#1]
        0x00000e3e:    2108        .!      MOVS     r1,#8
        0x00000e40:    7081        .p      STRB     r1,[r0,#2]
        0x00000e42:    70c1        .p      STRB     r1,[r0,#3]
        0x00000e44:    2100        .!      MOVS     r1,#0
        0x00000e46:    7101        .q      STRB     r1,[r0,#4]
        0x00000e48:    2102        .!      MOVS     r1,#2
        0x00000e4a:    7141        Aq      STRB     r1,[r0,#5]
        0x00000e4c:    2104        .!      MOVS     r1,#4
        0x00000e4e:    7181        .q      STRB     r1,[r0,#6]
        0x00000e50:    211d        .!      MOVS     r1,#0x1d
        0x00000e52:    71c1        .q      STRB     r1,[r0,#7]
        0x00000e54:    212c        ,!      MOVS     r1,#0x2c
        0x00000e56:    7201        .r      STRB     r1,[r0,#8]
        0x00000e58:    213b        ;!      MOVS     r1,#0x3b
        0x00000e5a:    7241        Ar      STRB     r1,[r0,#9]
        0x00000e5c:    214a        J!      MOVS     r1,#0x4a
        0x00000e5e:    7281        .r      STRB     r1,[r0,#0xa]
        0x00000e60:    210b        .!      MOVS     r1,#0xb
        0x00000e62:    f000fc73    ..s.    BL       CRC16 ; 0x174c
        0x00000e66:    9801        ..      LDR      r0,[sp,#4]
        0x00000e68:    497a        zI      LDR      r1,[pc,#488] ; [0x1054] = 0x2000000c
        0x00000e6a:    7809        .x      LDRB     r1,[r1,#0]
        0x00000e6c:    72c1        .r      STRB     r1,[r0,#0xb]
        0x00000e6e:    497a        zI      LDR      r1,[pc,#488] ; [0x1058] = 0x2000000d
        0x00000e70:    7809        .x      LDRB     r1,[r1,#0]
        0x00000e72:    7301        .s      STRB     r1,[r0,#0xc]
        0x00000e74:    210d        .!      MOVS     r1,#0xd
        0x00000e76:    f004fe07    ....    BL       _SendStringToMETER ; 0x5a88
        0x00000e7a:    b002        ..      ADD      sp,sp,#8
        0x00000e7c:    bd80        ..      POP      {r7,pc}
        0x00000e7e:    46c0        .F      MOV      r8,r8
    $d
    __arm_cp.13_0
        0x00000e80:    20000d06    ...     DCD    536874246
    __arm_cp.13_1
        0x00000e84:    20000d0d    ...     DCD    536874253
    __arm_cp.13_2
        0x00000e88:    2000000c    ...     DCD    536870924
    __arm_cp.13_3
        0x00000e8c:    2000000d    ...     DCD    536870925
    $t
    BAW2A_SetPayMode
        0x00000e90:    b580        ..      PUSH     {r7,lr}
        0x00000e92:    b082        ..      SUB      sp,sp,#8
        0x00000e94:    4966        fI      LDR      r1,[pc,#408] ; [0x1030] = 0x20000d06
        0x00000e96:    201a        .       MOVS     r0,#0x1a
        0x00000e98:    7008        .p      STRB     r0,[r1,#0]
        0x00000e9a:    4866        fH      LDR      r0,[pc,#408] ; [0x1034] = 0x20000d0d
        0x00000e9c:    9001        ..      STR      r0,[sp,#4]
        0x00000e9e:    2110        .!      MOVS     r1,#0x10
        0x00000ea0:    7041        Ap      STRB     r1,[r0,#1]
        0x00000ea2:    2100        .!      MOVS     r1,#0
        0x00000ea4:    7081        .p      STRB     r1,[r0,#2]
        0x00000ea6:    22e0        ."      MOVS     r2,#0xe0
        0x00000ea8:    70c2        .p      STRB     r2,[r0,#3]
        0x00000eaa:    7101        .q      STRB     r1,[r0,#4]
        0x00000eac:    2201        ."      MOVS     r2,#1
        0x00000eae:    7142        Bq      STRB     r2,[r0,#5]
        0x00000eb0:    2202        ."      MOVS     r2,#2
        0x00000eb2:    7182        .q      STRB     r2,[r0,#6]
        0x00000eb4:    71c1        .q      STRB     r1,[r0,#7]
        0x00000eb6:    4922        "I      LDR      r1,[pc,#136] ; [0xf40] = 0x20000d49
        0x00000eb8:    7809        .x      LDRB     r1,[r1,#0]
        0x00000eba:    7201        .r      STRB     r1,[r0,#8]
        0x00000ebc:    2109        .!      MOVS     r1,#9
        0x00000ebe:    f000fc45    ..E.    BL       CRC16 ; 0x174c
        0x00000ec2:    9801        ..      LDR      r0,[sp,#4]
        0x00000ec4:    4963        cI      LDR      r1,[pc,#396] ; [0x1054] = 0x2000000c
        0x00000ec6:    7809        .x      LDRB     r1,[r1,#0]
        0x00000ec8:    7241        Ar      STRB     r1,[r0,#9]
        0x00000eca:    4963        cI      LDR      r1,[pc,#396] ; [0x1058] = 0x2000000d
        0x00000ecc:    7809        .x      LDRB     r1,[r1,#0]
        0x00000ece:    7281        .r      STRB     r1,[r0,#0xa]
        0x00000ed0:    210b        .!      MOVS     r1,#0xb
        0x00000ed2:    f004fdd9    ....    BL       _SendStringToMETER ; 0x5a88
        0x00000ed6:    b002        ..      ADD      sp,sp,#8
        0x00000ed8:    bd80        ..      POP      {r7,pc}
        0x00000eda:    46c0        .F      MOV      r8,r8
    $d
    __arm_cp.22_0
        0x00000edc:    20000d06    ...     DCD    536874246
    __arm_cp.22_1
        0x00000ee0:    20000d0d    ...     DCD    536874253
    __arm_cp.22_3
        0x00000ee4:    2000000c    ...     DCD    536870924
    __arm_cp.22_4
        0x00000ee8:    2000000d    ...     DCD    536870925
    $t
    BAW2A_SetPowerOn
        0x00000eec:    b580        ..      PUSH     {r7,lr}
        0x00000eee:    b082        ..      SUB      sp,sp,#8
        0x00000ef0:    494f        OI      LDR      r1,[pc,#316] ; [0x1030] = 0x20000d06
        0x00000ef2:    201a        .       MOVS     r0,#0x1a
        0x00000ef4:    7008        .p      STRB     r0,[r1,#0]
        0x00000ef6:    484f        OH      LDR      r0,[pc,#316] ; [0x1034] = 0x20000d0d
        0x00000ef8:    9001        ..      STR      r0,[sp,#4]
        0x00000efa:    2110        .!      MOVS     r1,#0x10
        0x00000efc:    7041        Ap      STRB     r1,[r0,#1]
        0x00000efe:    2100        .!      MOVS     r1,#0
        0x00000f00:    7081        .p      STRB     r1,[r0,#2]
        0x00000f02:    22e2        ."      MOVS     r2,#0xe2
        0x00000f04:    70c2        .p      STRB     r2,[r0,#3]
        0x00000f06:    7101        .q      STRB     r1,[r0,#4]
        0x00000f08:    2201        ."      MOVS     r2,#1
        0x00000f0a:    7142        Bq      STRB     r2,[r0,#5]
        0x00000f0c:    2202        ."      MOVS     r2,#2
        0x00000f0e:    7182        .q      STRB     r2,[r0,#6]
        0x00000f10:    71c1        .q      STRB     r1,[r0,#7]
        0x00000f12:    490b        .I      LDR      r1,[pc,#44] ; [0xf40] = 0x20000d49
        0x00000f14:    7809        .x      LDRB     r1,[r1,#0]
        0x00000f16:    7201        .r      STRB     r1,[r0,#8]
        0x00000f18:    2109        .!      MOVS     r1,#9
        0x00000f1a:    f000fc17    ....    BL       CRC16 ; 0x174c
        0x00000f1e:    9801        ..      LDR      r0,[sp,#4]
        0x00000f20:    494c        LI      LDR      r1,[pc,#304] ; [0x1054] = 0x2000000c
        0x00000f22:    7809        .x      LDRB     r1,[r1,#0]
        0x00000f24:    7241        Ar      STRB     r1,[r0,#9]
        0x00000f26:    494c        LI      LDR      r1,[pc,#304] ; [0x1058] = 0x2000000d
        0x00000f28:    7809        .x      LDRB     r1,[r1,#0]
        0x00000f2a:    7281        .r      STRB     r1,[r0,#0xa]
        0x00000f2c:    210b        .!      MOVS     r1,#0xb
        0x00000f2e:    f004fdab    ....    BL       _SendStringToMETER ; 0x5a88
        0x00000f32:    b002        ..      ADD      sp,sp,#8
        0x00000f34:    bd80        ..      POP      {r7,pc}
        0x00000f36:    46c0        .F      MOV      r8,r8
    $d
    __arm_cp.23_0
        0x00000f38:    20000d06    ...     DCD    536874246
    __arm_cp.23_1
        0x00000f3c:    20000d0d    ...     DCD    536874253
    __arm_cp.23_2
        0x00000f40:    20000d49    I..     DCD    536874313
    __arm_cp.23_3
        0x00000f44:    2000000c    ...     DCD    536870924
    __arm_cp.23_4
        0x00000f48:    2000000d    ...     DCD    536870925
    $t
    BAW2A_SetRelay
        0x00000f4c:    b580        ..      PUSH     {r7,lr}
        0x00000f4e:    b082        ..      SUB      sp,sp,#8
        0x00000f50:    4937        7I      LDR      r1,[pc,#220] ; [0x1030] = 0x20000d06
        0x00000f52:    201a        .       MOVS     r0,#0x1a
        0x00000f54:    7008        .p      STRB     r0,[r1,#0]
        0x00000f56:    4937        7I      LDR      r1,[pc,#220] ; [0x1034] = 0x20000d0d
        0x00000f58:    2010        .       MOVS     r0,#0x10
        0x00000f5a:    7048        Hp      STRB     r0,[r1,#1]
        0x00000f5c:    2000        .       MOVS     r0,#0
        0x00000f5e:    7088        .p      STRB     r0,[r1,#2]
        0x00000f60:    22d2        ."      MOVS     r2,#0xd2
        0x00000f62:    70ca        .p      STRB     r2,[r1,#3]
        0x00000f64:    7108        .q      STRB     r0,[r1,#4]
        0x00000f66:    2201        ."      MOVS     r2,#1
        0x00000f68:    714a        Jq      STRB     r2,[r1,#5]
        0x00000f6a:    2202        ."      MOVS     r2,#2
        0x00000f6c:    718a        .q      STRB     r2,[r1,#6]
        0x00000f6e:    71c8        .q      STRB     r0,[r1,#7]
        0x00000f70:    4810        .H      LDR      r0,[pc,#64] ; [0xfb4] = 0x20000f24
        0x00000f72:    7800        .x      LDRB     r0,[r0,#0]
        0x00000f74:    2800        .(      CMP      r0,#0
        0x00000f76:    d004        ..      BEQ      0xf82 ; BAW2A_SetRelay + 54
        0x00000f78:    e7ff        ..      B        0xf7a ; BAW2A_SetRelay + 46
        0x00000f7a:    492e        .I      LDR      r1,[pc,#184] ; [0x1034] = 0x20000d0d
        0x00000f7c:    2001        .       MOVS     r0,#1
        0x00000f7e:    7208        .r      STRB     r0,[r1,#8]
        0x00000f80:    e003        ..      B        0xf8a ; BAW2A_SetRelay + 62
        0x00000f82:    492c        ,I      LDR      r1,[pc,#176] ; [0x1034] = 0x20000d0d
        0x00000f84:    2002        .       MOVS     r0,#2
        0x00000f86:    7208        .r      STRB     r0,[r1,#8]
        0x00000f88:    e7ff        ..      B        0xf8a ; BAW2A_SetRelay + 62
        0x00000f8a:    482a        *H      LDR      r0,[pc,#168] ; [0x1034] = 0x20000d0d
        0x00000f8c:    9001        ..      STR      r0,[sp,#4]
        0x00000f8e:    2109        .!      MOVS     r1,#9
        0x00000f90:    f000fbdc    ....    BL       CRC16 ; 0x174c
        0x00000f94:    9801        ..      LDR      r0,[sp,#4]
        0x00000f96:    492f        /I      LDR      r1,[pc,#188] ; [0x1054] = 0x2000000c
        0x00000f98:    7809        .x      LDRB     r1,[r1,#0]
        0x00000f9a:    7241        Ar      STRB     r1,[r0,#9]
        0x00000f9c:    492e        .I      LDR      r1,[pc,#184] ; [0x1058] = 0x2000000d
        0x00000f9e:    7809        .x      LDRB     r1,[r1,#0]
        0x00000fa0:    7281        .r      STRB     r1,[r0,#0xa]
        0x00000fa2:    210b        .!      MOVS     r1,#0xb
        0x00000fa4:    f004fd70    ..p.    BL       _SendStringToMETER ; 0x5a88
        0x00000fa8:    b002        ..      ADD      sp,sp,#8
        0x00000faa:    bd80        ..      POP      {r7,pc}
    $d
    __arm_cp.10_0
        0x00000fac:    20000d06    ...     DCD    536874246
    __arm_cp.10_1
        0x00000fb0:    20000d0d    ...     DCD    536874253
    __arm_cp.10_2
        0x00000fb4:    20000f24    $..     DCD    536874788
    __arm_cp.10_3
        0x00000fb8:    2000000c    ...     DCD    536870924
    __arm_cp.10_4
        0x00000fbc:    2000000d    ...     DCD    536870925
    $t
    BAW2A_SetTime
        0x00000fc0:    b580        ..      PUSH     {r7,lr}
        0x00000fc2:    b082        ..      SUB      sp,sp,#8
        0x00000fc4:    491a        .I      LDR      r1,[pc,#104] ; [0x1030] = 0x20000d06
        0x00000fc6:    201a        .       MOVS     r0,#0x1a
        0x00000fc8:    7008        .p      STRB     r0,[r1,#0]
        0x00000fca:    481a        .H      LDR      r0,[pc,#104] ; [0x1034] = 0x20000d0d
        0x00000fcc:    9000        ..      STR      r0,[sp,#0]
        0x00000fce:    2110        .!      MOVS     r1,#0x10
        0x00000fd0:    7041        Ap      STRB     r1,[r0,#1]
        0x00000fd2:    2100        .!      MOVS     r1,#0
        0x00000fd4:    7081        .p      STRB     r1,[r0,#2]
        0x00000fd6:    2212        ."      MOVS     r2,#0x12
        0x00000fd8:    9201        ..      STR      r2,[sp,#4]
        0x00000fda:    70c2        .p      STRB     r2,[r0,#3]
        0x00000fdc:    7101        .q      STRB     r1,[r0,#4]
        0x00000fde:    2204        ."      MOVS     r2,#4
        0x00000fe0:    7142        Bq      STRB     r2,[r0,#5]
        0x00000fe2:    2208        ."      MOVS     r2,#8
        0x00000fe4:    7182        .q      STRB     r2,[r0,#6]
        0x00000fe6:    71c1        .q      STRB     r1,[r0,#7]
        0x00000fe8:    4913        .I      LDR      r1,[pc,#76] ; [0x1038] = 0x20001146
        0x00000fea:    7809        .x      LDRB     r1,[r1,#0]
        0x00000fec:    7201        .r      STRB     r1,[r0,#8]
        0x00000fee:    4913        .I      LDR      r1,[pc,#76] ; [0x103c] = 0x20001143
        0x00000ff0:    7809        .x      LDRB     r1,[r1,#0]
        0x00000ff2:    7241        Ar      STRB     r1,[r0,#9]
        0x00000ff4:    4912        .I      LDR      r1,[pc,#72] ; [0x1040] = 0x20001140
        0x00000ff6:    7809        .x      LDRB     r1,[r1,#0]
        0x00000ff8:    7281        .r      STRB     r1,[r0,#0xa]
        0x00000ffa:    4912        .I      LDR      r1,[pc,#72] ; [0x1044] = 0x20001141
        0x00000ffc:    7809        .x      LDRB     r1,[r1,#0]
        0x00000ffe:    72c1        .r      STRB     r1,[r0,#0xb]
        0x00001000:    4911        .I      LDR      r1,[pc,#68] ; [0x1048] = 0x20001142
        0x00001002:    7809        .x      LDRB     r1,[r1,#0]
        0x00001004:    7301        .s      STRB     r1,[r0,#0xc]
        0x00001006:    4911        .I      LDR      r1,[pc,#68] ; [0x104c] = 0x20001144
        0x00001008:    7809        .x      LDRB     r1,[r1,#0]
        0x0000100a:    7341        As      STRB     r1,[r0,#0xd]
        0x0000100c:    4910        .I      LDR      r1,[pc,#64] ; [0x1050] = 0x20001145
        0x0000100e:    7809        .x      LDRB     r1,[r1,#0]
        0x00001010:    7381        .s      STRB     r1,[r0,#0xe]
        0x00001012:    210f        .!      MOVS     r1,#0xf
        0x00001014:    f000fb9a    ....    BL       CRC16 ; 0x174c
        0x00001018:    9800        ..      LDR      r0,[sp,#0]
        0x0000101a:    9901        ..      LDR      r1,[sp,#4]
        0x0000101c:    4a0d        .J      LDR      r2,[pc,#52] ; [0x1054] = 0x2000000c
        0x0000101e:    7812        .x      LDRB     r2,[r2,#0]
        0x00001020:    7402        .t      STRB     r2,[r0,#0x10]
        0x00001022:    4a0d        .J      LDR      r2,[pc,#52] ; [0x1058] = 0x2000000d
        0x00001024:    7812        .x      LDRB     r2,[r2,#0]
        0x00001026:    7442        Bt      STRB     r2,[r0,#0x11]
        0x00001028:    f004fd2e    ....    BL       _SendStringToMETER ; 0x5a88
        0x0000102c:    b002        ..      ADD      sp,sp,#8
        0x0000102e:    bd80        ..      POP      {r7,pc}
    $d
    __arm_cp.24_0
        0x00001030:    20000d06    ...     DCD    536874246
    __arm_cp.24_1
        0x00001034:    20000d0d    ...     DCD    536874253
    __arm_cp.24_2
        0x00001038:    20001146    F..     DCD    536875334
    __arm_cp.24_3
        0x0000103c:    20001143    C..     DCD    536875331
    __arm_cp.24_4
        0x00001040:    20001140    @..     DCD    536875328
    __arm_cp.24_5
        0x00001044:    20001141    A..     DCD    536875329
    __arm_cp.24_6
        0x00001048:    20001142    B..     DCD    536875330
    __arm_cp.24_7
        0x0000104c:    20001144    D..     DCD    536875332
    __arm_cp.24_8
        0x00001050:    20001145    E..     DCD    536875333
    __arm_cp.24_9
        0x00001054:    2000000c    ...     DCD    536870924
    __arm_cp.24_10
        0x00001058:    2000000d    ...     DCD    536870925
    $t
    BlinkStatusLED
        0x0000105c:    b510        ..      PUSH     {r4,lr}
        0x0000105e:    b086        ..      SUB      sp,sp,#0x18
        0x00001060:    9005        ..      STR      r0,[sp,#0x14]
        0x00001062:    9104        ..      STR      r1,[sp,#0x10]
        0x00001064:    a803        ..      ADD      r0,sp,#0xc
        0x00001066:    7002        .p      STRB     r2,[r0,#0]
        0x00001068:    9302        ..      STR      r3,[sp,#8]
        0x0000106a:    a901        ..      ADD      r1,sp,#4
        0x0000106c:    2000        .       MOVS     r0,#0
        0x0000106e:    7008        .p      STRB     r0,[r1,#0]
        0x00001070:    e7ff        ..      B        0x1072 ; BlinkStatusLED + 22
        0x00001072:    a801        ..      ADD      r0,sp,#4
        0x00001074:    7800        .x      LDRB     r0,[r0,#0]
        0x00001076:    a903        ..      ADD      r1,sp,#0xc
        0x00001078:    7809        .x      LDRB     r1,[r1,#0]
        0x0000107a:    4288        .B      CMP      r0,r1
        0x0000107c:    da13        ..      BGE      0x10a6 ; BlinkStatusLED + 74
        0x0000107e:    e7ff        ..      B        0x1080 ; BlinkStatusLED + 36
        0x00001080:    9804        ..      LDR      r0,[sp,#0x10]
        0x00001082:    2201        ."      MOVS     r2,#1
        0x00001084:    4082        .@      LSLS     r2,r2,r0
        0x00001086:    9905        ..      LDR      r1,[sp,#0x14]
        0x00001088:    6888        .h      LDR      r0,[r1,#8]
        0x0000108a:    4050        P@      EORS     r0,r0,r2
        0x0000108c:    6088        .`      STR      r0,[r1,#8]
        0x0000108e:    9902        ..      LDR      r1,[sp,#8]
        0x00001090:    207d        }       MOVS     r0,#0x7d
        0x00001092:    00c0        ..      LSLS     r0,r0,#3
        0x00001094:    4348        HC      MULS     r0,r1,r0
        0x00001096:    f000fb13    ....    BL       CLK_SysTickDelay ; 0x16c0
        0x0000109a:    e7ff        ..      B        0x109c ; BlinkStatusLED + 64
        0x0000109c:    9801        ..      LDR      r0,[sp,#4]
        0x0000109e:    1c40        @.      ADDS     r0,r0,#1
        0x000010a0:    a901        ..      ADD      r1,sp,#4
        0x000010a2:    7008        .p      STRB     r0,[r1,#0]
        0x000010a4:    e7e5        ..      B        0x1072 ; BlinkStatusLED + 22
        0x000010a6:    b006        ..      ADD      sp,sp,#0x18
        0x000010a8:    bd10        ..      POP      {r4,pc}
        0x000010aa:    0000        ..      MOVS     r0,r0
    CLK_EnableModuleClock
        0x000010ac:    b084        ..      SUB      sp,sp,#0x10
        0x000010ae:    9003        ..      STR      r0,[sp,#0xc]
        0x000010b0:    202c        ,       MOVS     r0,#0x2c
        0x000010b2:    9002        ..      STR      r0,[sp,#8]
        0x000010b4:    2004        .       MOVS     r0,#4
        0x000010b6:    9001        ..      STR      r0,[sp,#4]
        0x000010b8:    2000        .       MOVS     r0,#0
        0x000010ba:    9000        ..      STR      r0,[sp,#0]
        0x000010bc:    9803        ..      LDR      r0,[sp,#0xc]
        0x000010be:    221f        ."      MOVS     r2,#0x1f
        0x000010c0:    4601        .F      MOV      r1,r0
        0x000010c2:    4011        .@      ANDS     r1,r1,r2
        0x000010c4:    2301        .#      MOVS     r3,#1
        0x000010c6:    408b        .@      LSLS     r3,r3,r1
        0x000010c8:    0f80        ..      LSRS     r0,r0,#30
        0x000010ca:    0081        ..      LSLS     r1,r0,#2
        0x000010cc:    4668        hF      MOV      r0,sp
        0x000010ce:    5841        AX      LDR      r1,[r0,r1]
        0x000010d0:    4a02        .J      LDR      r2,[pc,#8] ; [0x10dc] = 0x50000204
        0x000010d2:    5888        .X      LDR      r0,[r1,r2]
        0x000010d4:    4318        .C      ORRS     r0,r0,r3
        0x000010d6:    5088        .P      STR      r0,[r1,r2]
        0x000010d8:    b004        ..      ADD      sp,sp,#0x10
        0x000010da:    4770        pG      BX       lr
    $d
    __arm_cp.18_0
        0x000010dc:    50000204    ...P    DCD    1342177796
    $t
    CLK_EnablePLL
        0x000010e0:    b580        ..      PUSH     {r7,lr}
        0x000010e2:    b090        ..      SUB      sp,sp,#0x40
        0x000010e4:    900e        ..      STR      r0,[sp,#0x38]
        0x000010e6:    910d        ..      STR      r1,[sp,#0x34]
        0x000010e8:    49d2        .I      LDR      r1,[pc,#840] ; [0x1434] = 0x50000220
        0x000010ea:    6808        .h      LDR      r0,[r1,#0]
        0x000010ec:    2201        ."      MOVS     r2,#1
        0x000010ee:    0412        ..      LSLS     r2,r2,#16
        0x000010f0:    4310        .C      ORRS     r0,r0,r2
        0x000010f2:    6008        .`      STR      r0,[r1,#0]
        0x000010f4:    980e        ..      LDR      r0,[sp,#0x38]
        0x000010f6:    2800        .(      CMP      r0,#0
        0x000010f8:    d10e        ..      BNE      0x1118 ; CLK_EnablePLL + 56
        0x000010fa:    e7ff        ..      B        0x10fc ; CLK_EnablePLL + 28
        0x000010fc:    4a80        .J      LDR      r2,[pc,#512] ; [0x1300] = 0x50000200
        0x000010fe:    6811        .h      LDR      r1,[r2,#0]
        0x00001100:    2001        .       MOVS     r0,#1
        0x00001102:    4301        .C      ORRS     r1,r1,r0
        0x00001104:    6011        .`      STR      r1,[r2,#0]
        0x00001106:    f000faff    ....    BL       CLK_WaitClockReady ; 0x1708
        0x0000110a:    2000        .       MOVS     r0,#0
        0x0000110c:    9008        ..      STR      r0,[sp,#0x20]
        0x0000110e:    48f2        .H      LDR      r0,[pc,#968] ; [0x14d8] = 0xb71b00
        0x00001110:    900c        ..      STR      r0,[sp,#0x30]
        0x00001112:    2002        .       MOVS     r0,#2
        0x00001114:    900b        ..      STR      r0,[sp,#0x2c]
        0x00001116:    e010        ..      B        0x113a ; CLK_EnablePLL + 90
        0x00001118:    4979        yI      LDR      r1,[pc,#484] ; [0x1300] = 0x50000200
        0x0000111a:    6808        .h      LDR      r0,[r1,#0]
        0x0000111c:    2204        ."      MOVS     r2,#4
        0x0000111e:    9201        ..      STR      r2,[sp,#4]
        0x00001120:    4310        .C      ORRS     r0,r0,r2
        0x00001122:    6008        .`      STR      r0,[r1,#0]
        0x00001124:    2010        .       MOVS     r0,#0x10
        0x00001126:    f000faef    ....    BL       CLK_WaitClockReady ; 0x1708
        0x0000112a:    9801        ..      LDR      r0,[sp,#4]
        0x0000112c:    2101        .!      MOVS     r1,#1
        0x0000112e:    04c9        ..      LSLS     r1,r1,#19
        0x00001130:    9108        ..      STR      r1,[sp,#0x20]
        0x00001132:    49ea        .I      LDR      r1,[pc,#936] ; [0x14dc] = 0x1518000
        0x00001134:    910c        ..      STR      r1,[sp,#0x30]
        0x00001136:    900b        ..      STR      r0,[sp,#0x2c]
        0x00001138:    e7ff        ..      B        0x113a ; CLK_EnablePLL + 90
        0x0000113a:    980d        ..      LDR      r0,[sp,#0x34]
        0x0000113c:    495f        _I      LDR      r1,[pc,#380] ; [0x12bc] = 0xbebc200
        0x0000113e:    4288        .B      CMP      r0,r1
        0x00001140:    d808        ..      BHI      0x1154 ; CLK_EnablePLL + 116
        0x00001142:    e7ff        ..      B        0x1144 ; CLK_EnablePLL + 100
        0x00001144:    980d        ..      LDR      r0,[sp,#0x34]
        0x00001146:    495e        ^I      LDR      r1,[pc,#376] ; [0x12c0] = 0x5f5e101
        0x00001148:    4288        .B      CMP      r0,r1
        0x0000114a:    d303        ..      BCC      0x1154 ; CLK_EnablePLL + 116
        0x0000114c:    e7ff        ..      B        0x114e ; CLK_EnablePLL + 110
        0x0000114e:    2000        .       MOVS     r0,#0
        0x00001150:    9009        ..      STR      r0,[sp,#0x24]
        0x00001152:    e022        ".      B        0x119a ; CLK_EnablePLL + 186
        0x00001154:    980d        ..      LDR      r0,[sp,#0x34]
        0x00001156:    495b        [I      LDR      r1,[pc,#364] ; [0x12c4] = 0x5f5e100
        0x00001158:    4288        .B      CMP      r0,r1
        0x0000115a:    d80b        ..      BHI      0x1174 ; CLK_EnablePLL + 148
        0x0000115c:    e7ff        ..      B        0x115e ; CLK_EnablePLL + 126
        0x0000115e:    980d        ..      LDR      r0,[sp,#0x34]
        0x00001160:    4959        YI      LDR      r1,[pc,#356] ; [0x12c8] = 0x2faf081
        0x00001162:    4288        .B      CMP      r0,r1
        0x00001164:    d306        ..      BCC      0x1174 ; CLK_EnablePLL + 148
        0x00001166:    e7ff        ..      B        0x1168 ; CLK_EnablePLL + 136
        0x00001168:    2001        .       MOVS     r0,#1
        0x0000116a:    9009        ..      STR      r0,[sp,#0x24]
        0x0000116c:    980d        ..      LDR      r0,[sp,#0x34]
        0x0000116e:    0040        @.      LSLS     r0,r0,#1
        0x00001170:    900d        ..      STR      r0,[sp,#0x34]
        0x00001172:    e011        ..      B        0x1198 ; CLK_EnablePLL + 184
        0x00001174:    980d        ..      LDR      r0,[sp,#0x34]
        0x00001176:    4955        UI      LDR      r1,[pc,#340] ; [0x12cc] = 0x2faf080
        0x00001178:    4288        .B      CMP      r0,r1
        0x0000117a:    d80b        ..      BHI      0x1194 ; CLK_EnablePLL + 180
        0x0000117c:    e7ff        ..      B        0x117e ; CLK_EnablePLL + 158
        0x0000117e:    980d        ..      LDR      r0,[sp,#0x34]
        0x00001180:    4953        SI      LDR      r1,[pc,#332] ; [0x12d0] = 0x17d7840
        0x00001182:    4288        .B      CMP      r0,r1
        0x00001184:    d306        ..      BCC      0x1194 ; CLK_EnablePLL + 180
        0x00001186:    e7ff        ..      B        0x1188 ; CLK_EnablePLL + 168
        0x00001188:    2003        .       MOVS     r0,#3
        0x0000118a:    9009        ..      STR      r0,[sp,#0x24]
        0x0000118c:    980d        ..      LDR      r0,[sp,#0x34]
        0x0000118e:    0080        ..      LSLS     r0,r0,#2
        0x00001190:    900d        ..      STR      r0,[sp,#0x34]
        0x00001192:    e000        ..      B        0x1196 ; CLK_EnablePLL + 182
        0x00001194:    e07b        {.      B        0x128e ; CLK_EnablePLL + 430
        0x00001196:    e7ff        ..      B        0x1198 ; CLK_EnablePLL + 184
        0x00001198:    e7ff        ..      B        0x119a ; CLK_EnablePLL + 186
        0x0000119a:    2000        .       MOVS     r0,#0
        0x0000119c:    43c1        .C      MVNS     r1,r0
        0x0000119e:    9104        ..      STR      r1,[sp,#0x10]
        0x000011a0:    9002        ..      STR      r0,[sp,#8]
        0x000011a2:    9003        ..      STR      r0,[sp,#0xc]
        0x000011a4:    e7ff        ..      B        0x11a6 ; CLK_EnablePLL + 198
        0x000011a6:    980b        ..      LDR      r0,[sp,#0x2c]
        0x000011a8:    2821        !(      CMP      r0,#0x21
        0x000011aa:    d853        S.      BHI      0x1254 ; CLK_EnablePLL + 372
        0x000011ac:    e7ff        ..      B        0x11ae ; CLK_EnablePLL + 206
        0x000011ae:    980c        ..      LDR      r0,[sp,#0x30]
        0x000011b0:    990b        ..      LDR      r1,[sp,#0x2c]
        0x000011b2:    f7fff85a    ..Z.    BL       __aeabi_uidiv ; 0x26a
        0x000011b6:    9007        ..      STR      r0,[sp,#0x1c]
        0x000011b8:    9807        ..      LDR      r0,[sp,#0x1c]
        0x000011ba:    4949        II      LDR      r1,[pc,#292] ; [0x12e0] = 0x186a01
        0x000011bc:    4288        .B      CMP      r0,r1
        0x000011be:    d344        D.      BCC      0x124a ; CLK_EnablePLL + 362
        0x000011c0:    e7ff        ..      B        0x11c2 ; CLK_EnablePLL + 226
        0x000011c2:    9807        ..      LDR      r0,[sp,#0x1c]
        0x000011c4:    4947        GI      LDR      r1,[pc,#284] ; [0x12e4] = 0xf423ff
        0x000011c6:    4288        .B      CMP      r0,r1
        0x000011c8:    d83f        ?.      BHI      0x124a ; CLK_EnablePLL + 362
        0x000011ca:    e7ff        ..      B        0x11cc ; CLK_EnablePLL + 236
        0x000011cc:    2002        .       MOVS     r0,#2
        0x000011ce:    900a        ..      STR      r0,[sp,#0x28]
        0x000011d0:    e7ff        ..      B        0x11d2 ; CLK_EnablePLL + 242
        0x000011d2:    980a        ..      LDR      r0,[sp,#0x28]
        0x000011d4:    4944        DI      LDR      r1,[pc,#272] ; [0x12e8] = 0x201
        0x000011d6:    4288        .B      CMP      r0,r1
        0x000011d8:    d836        6.      BHI      0x1248 ; CLK_EnablePLL + 360
        0x000011da:    e7ff        ..      B        0x11dc ; CLK_EnablePLL + 252
        0x000011dc:    9907        ..      LDR      r1,[sp,#0x1c]
        0x000011de:    980a        ..      LDR      r0,[sp,#0x28]
        0x000011e0:    4348        HC      MULS     r0,r1,r0
        0x000011e2:    9006        ..      STR      r0,[sp,#0x18]
        0x000011e4:    9806        ..      LDR      r0,[sp,#0x18]
        0x000011e6:    4937        7I      LDR      r1,[pc,#220] ; [0x12c4] = 0x5f5e100
        0x000011e8:    4288        .B      CMP      r0,r1
        0x000011ea:    d328        (.      BCC      0x123e ; CLK_EnablePLL + 350
        0x000011ec:    e7ff        ..      B        0x11ee ; CLK_EnablePLL + 270
        0x000011ee:    9806        ..      LDR      r0,[sp,#0x18]
        0x000011f0:    4932        2I      LDR      r1,[pc,#200] ; [0x12bc] = 0xbebc200
        0x000011f2:    4288        .B      CMP      r0,r1
        0x000011f4:    d823        #.      BHI      0x123e ; CLK_EnablePLL + 350
        0x000011f6:    e7ff        ..      B        0x11f8 ; CLK_EnablePLL + 280
        0x000011f8:    9806        ..      LDR      r0,[sp,#0x18]
        0x000011fa:    990d        ..      LDR      r1,[sp,#0x34]
        0x000011fc:    4288        .B      CMP      r0,r1
        0x000011fe:    d905        ..      BLS      0x120c ; CLK_EnablePLL + 300
        0x00001200:    e7ff        ..      B        0x1202 ; CLK_EnablePLL + 290
        0x00001202:    9806        ..      LDR      r0,[sp,#0x18]
        0x00001204:    990d        ..      LDR      r1,[sp,#0x34]
        0x00001206:    1a40        @.      SUBS     r0,r0,r1
        0x00001208:    9000        ..      STR      r0,[sp,#0]
        0x0000120a:    e004        ..      B        0x1216 ; CLK_EnablePLL + 310
        0x0000120c:    980d        ..      LDR      r0,[sp,#0x34]
        0x0000120e:    9906        ..      LDR      r1,[sp,#0x18]
        0x00001210:    1a40        @.      SUBS     r0,r0,r1
        0x00001212:    9000        ..      STR      r0,[sp,#0]
        0x00001214:    e7ff        ..      B        0x1216 ; CLK_EnablePLL + 310
        0x00001216:    9800        ..      LDR      r0,[sp,#0]
        0x00001218:    9005        ..      STR      r0,[sp,#0x14]
        0x0000121a:    9805        ..      LDR      r0,[sp,#0x14]
        0x0000121c:    9904        ..      LDR      r1,[sp,#0x10]
        0x0000121e:    4288        .B      CMP      r0,r1
        0x00001220:    d20c        ..      BCS      0x123c ; CLK_EnablePLL + 348
        0x00001222:    e7ff        ..      B        0x1224 ; CLK_EnablePLL + 324
        0x00001224:    9805        ..      LDR      r0,[sp,#0x14]
        0x00001226:    9004        ..      STR      r0,[sp,#0x10]
        0x00001228:    980b        ..      LDR      r0,[sp,#0x2c]
        0x0000122a:    9002        ..      STR      r0,[sp,#8]
        0x0000122c:    980a        ..      LDR      r0,[sp,#0x28]
        0x0000122e:    9003        ..      STR      r0,[sp,#0xc]
        0x00001230:    9804        ..      LDR      r0,[sp,#0x10]
        0x00001232:    2800        .(      CMP      r0,#0
        0x00001234:    d101        ..      BNE      0x123a ; CLK_EnablePLL + 346
        0x00001236:    e7ff        ..      B        0x1238 ; CLK_EnablePLL + 344
        0x00001238:    e006        ..      B        0x1248 ; CLK_EnablePLL + 360
        0x0000123a:    e7ff        ..      B        0x123c ; CLK_EnablePLL + 348
        0x0000123c:    e7ff        ..      B        0x123e ; CLK_EnablePLL + 350
        0x0000123e:    e7ff        ..      B        0x1240 ; CLK_EnablePLL + 352
        0x00001240:    980a        ..      LDR      r0,[sp,#0x28]
        0x00001242:    1c40        @.      ADDS     r0,r0,#1
        0x00001244:    900a        ..      STR      r0,[sp,#0x28]
        0x00001246:    e7c4        ..      B        0x11d2 ; CLK_EnablePLL + 242
        0x00001248:    e7ff        ..      B        0x124a ; CLK_EnablePLL + 362
        0x0000124a:    e7ff        ..      B        0x124c ; CLK_EnablePLL + 364
        0x0000124c:    980b        ..      LDR      r0,[sp,#0x2c]
        0x0000124e:    1c40        @.      ADDS     r0,r0,#1
        0x00001250:    900b        ..      STR      r0,[sp,#0x2c]
        0x00001252:    e7a8        ..      B        0x11a6 ; CLK_EnablePLL + 198
        0x00001254:    9808        ..      LDR      r0,[sp,#0x20]
        0x00001256:    9909        ..      LDR      r1,[sp,#0x24]
        0x00001258:    0389        ..      LSLS     r1,r1,#14
        0x0000125a:    4308        .C      ORRS     r0,r0,r1
        0x0000125c:    9902        ..      LDR      r1,[sp,#8]
        0x0000125e:    0249        I.      LSLS     r1,r1,#9
        0x00001260:    4a1e        .J      LDR      r2,[pc,#120] ; [0x12dc] = 0xfffffc00
        0x00001262:    1889        ..      ADDS     r1,r1,r2
        0x00001264:    4308        .C      ORRS     r0,r0,r1
        0x00001266:    9903        ..      LDR      r1,[sp,#0xc]
        0x00001268:    1e89        ..      SUBS     r1,r1,#2
        0x0000126a:    4308        .C      ORRS     r0,r0,r1
        0x0000126c:    4999        .I      LDR      r1,[pc,#612] ; [0x14d4] = 0x50000220
        0x0000126e:    6008        .`      STR      r0,[r1,#0]
        0x00001270:    2004        .       MOVS     r0,#4
        0x00001272:    f000fa49    ..I.    BL       CLK_WaitClockReady ; 0x1708
        0x00001276:    980c        ..      LDR      r0,[sp,#0x30]
        0x00001278:    9909        ..      LDR      r1,[sp,#0x24]
        0x0000127a:    1c4a        J.      ADDS     r2,r1,#1
        0x0000127c:    9902        ..      LDR      r1,[sp,#8]
        0x0000127e:    4351        QC      MULS     r1,r2,r1
        0x00001280:    f7fefff3    ....    BL       __aeabi_uidiv ; 0x26a
        0x00001284:    4601        .F      MOV      r1,r0
        0x00001286:    9803        ..      LDR      r0,[sp,#0xc]
        0x00001288:    4348        HC      MULS     r0,r1,r0
        0x0000128a:    900f        ..      STR      r0,[sp,#0x3c]
        0x0000128c:    e012        ..      B        0x12b4 ; CLK_EnablePLL + 468
        0x0000128e:    980e        ..      LDR      r0,[sp,#0x38]
        0x00001290:    2800        .(      CMP      r0,#0
        0x00001292:    d104        ..      BNE      0x129e ; CLK_EnablePLL + 446
        0x00001294:    e7ff        ..      B        0x1296 ; CLK_EnablePLL + 438
        0x00001296:    498f        .I      LDR      r1,[pc,#572] ; [0x14d4] = 0x50000220
        0x00001298:    480f        .H      LDR      r0,[pc,#60] ; [0x12d8] = 0x442e
        0x0000129a:    6008        .`      STR      r0,[r1,#0]
        0x0000129c:    e003        ..      B        0x12a6 ; CLK_EnablePLL + 454
        0x0000129e:    498d        .I      LDR      r1,[pc,#564] ; [0x14d4] = 0x50000220
        0x000012a0:    480c        .H      LDR      r0,[pc,#48] ; [0x12d4] = 0x84c32
        0x000012a2:    6008        .`      STR      r0,[r1,#0]
        0x000012a4:    e7ff        ..      B        0x12a6 ; CLK_EnablePLL + 454
        0x000012a6:    2004        .       MOVS     r0,#4
        0x000012a8:    f000fa2e    ....    BL       CLK_WaitClockReady ; 0x1708
        0x000012ac:    f000f8c4    ....    BL       CLK_GetPLLClockFreq ; 0x1438
        0x000012b0:    900f        ..      STR      r0,[sp,#0x3c]
        0x000012b2:    e7ff        ..      B        0x12b4 ; CLK_EnablePLL + 468
        0x000012b4:    980f        ..      LDR      r0,[sp,#0x3c]
        0x000012b6:    b010        ..      ADD      sp,sp,#0x40
        0x000012b8:    bd80        ..      POP      {r7,pc}
        0x000012ba:    46c0        .F      MOV      r8,r8
    $d
    __arm_cp.12_4
        0x000012bc:    0bebc200    ....    DCD    200000000
    __arm_cp.12_5
        0x000012c0:    05f5e101    ....    DCD    100000001
    __arm_cp.12_6
        0x000012c4:    05f5e100    ....    DCD    100000000
    __arm_cp.12_7
        0x000012c8:    02faf081    ....    DCD    50000001
    __arm_cp.12_8
        0x000012cc:    02faf080    ....    DCD    50000000
    __arm_cp.12_9
        0x000012d0:    017d7840    @x}.    DCD    25000000
    __arm_cp.12_10
        0x000012d4:    00084c32    2L..    DCD    543794
    __arm_cp.12_11
        0x000012d8:    0000442e    .D..    DCD    17454
    __arm_cp.12_12
        0x000012dc:    fffffc00    ....    DCD    4294966272
    __arm_cp.12_13
        0x000012e0:    00186a01    .j..    DCD    1600001
    __arm_cp.12_14
        0x000012e4:    00f423ff    .#..    DCD    15999999
    __arm_cp.12_15
        0x000012e8:    00000201    ....    DCD    513
    $t
    CLK_EnableXtalRC
        0x000012ec:    b081        ..      SUB      sp,sp,#4
        0x000012ee:    9000        ..      STR      r0,[sp,#0]
        0x000012f0:    9a00        ..      LDR      r2,[sp,#0]
        0x000012f2:    49c3        .I      LDR      r1,[pc,#780] ; [0x1600] = 0x50000200
        0x000012f4:    6808        .h      LDR      r0,[r1,#0]
        0x000012f6:    4310        .C      ORRS     r0,r0,r2
        0x000012f8:    6008        .`      STR      r0,[r1,#0]
        0x000012fa:    b001        ..      ADD      sp,sp,#4
        0x000012fc:    4770        pG      BX       lr
        0x000012fe:    46c0        .F      MOV      r8,r8
    $d
    __arm_cp.16_0
        0x00001300:    50000200    ...P    DCD    1342177792
    $t
    CLK_GetPLLClockFreq
        0x00001304:    b580        ..      PUSH     {r7,lr}
        0x00001306:    b088        ..      SUB      sp,sp,#0x20
        0x00001308:    2000        .       MOVS     r0,#0
        0x0000130a:    9006        ..      STR      r0,[sp,#0x18]
        0x0000130c:    4870        pH      LDR      r0,[pc,#448] ; [0x14d0] = 0x4020201
        0x0000130e:    9000        ..      STR      r0,[sp,#0]
        0x00001310:    4870        pH      LDR      r0,[pc,#448] ; [0x14d4] = 0x50000220
        0x00001312:    6800        .h      LDR      r0,[r0,#0]
        0x00001314:    9005        ..      STR      r0,[sp,#0x14]
        0x00001316:    a805        ..      ADD      r0,sp,#0x14
        0x00001318:    7880        .x      LDRB     r0,[r0,#2]
        0x0000131a:    2105        .!      MOVS     r1,#5
        0x0000131c:    4208        .B      TST      r0,r1
        0x0000131e:    d003        ..      BEQ      0x1328 ; CLK_GetPLLClockFreq + 36
        0x00001320:    e7ff        ..      B        0x1322 ; CLK_GetPLLClockFreq + 30
        0x00001322:    2000        .       MOVS     r0,#0
        0x00001324:    9007        ..      STR      r0,[sp,#0x1c]
        0x00001326:    e035        5.      B        0x1394 ; CLK_GetPLLClockFreq + 144
        0x00001328:    a805        ..      ADD      r0,sp,#0x14
        0x0000132a:    7880        .x      LDRB     r0,[r0,#2]
        0x0000132c:    0700        ..      LSLS     r0,r0,#28
        0x0000132e:    2800        .(      CMP      r0,#0
        0x00001330:    d503        ..      BPL      0x133a ; CLK_GetPLLClockFreq + 54
        0x00001332:    e7ff        ..      B        0x1334 ; CLK_GetPLLClockFreq + 48
        0x00001334:    4869        iH      LDR      r0,[pc,#420] ; [0x14dc] = 0x1518000
        0x00001336:    9004        ..      STR      r0,[sp,#0x10]
        0x00001338:    e002        ..      B        0x1340 ; CLK_GetPLLClockFreq + 60
        0x0000133a:    4867        gH      LDR      r0,[pc,#412] ; [0x14d8] = 0xb71b00
        0x0000133c:    9004        ..      STR      r0,[sp,#0x10]
        0x0000133e:    e7ff        ..      B        0x1340 ; CLK_GetPLLClockFreq + 60
        0x00001340:    a805        ..      ADD      r0,sp,#0x14
        0x00001342:    7880        .x      LDRB     r0,[r0,#2]
        0x00001344:    0780        ..      LSLS     r0,r0,#30
        0x00001346:    2800        .(      CMP      r0,#0
        0x00001348:    d503        ..      BPL      0x1352 ; CLK_GetPLLClockFreq + 78
        0x0000134a:    e7ff        ..      B        0x134c ; CLK_GetPLLClockFreq + 72
        0x0000134c:    9804        ..      LDR      r0,[sp,#0x10]
        0x0000134e:    9007        ..      STR      r0,[sp,#0x1c]
        0x00001350:    e020         .      B        0x1394 ; CLK_GetPLLClockFreq + 144
        0x00001352:    a805        ..      ADD      r0,sp,#0x14
        0x00001354:    8800        ..      LDRH     r0,[r0,#0]
        0x00001356:    0b81        ..      LSRS     r1,r0,#14
        0x00001358:    4668        hF      MOV      r0,sp
        0x0000135a:    1840        @.      ADDS     r0,r0,r1
        0x0000135c:    7800        .x      LDRB     r0,[r0,#0]
        0x0000135e:    9001        ..      STR      r0,[sp,#4]
        0x00001360:    9805        ..      LDR      r0,[sp,#0x14]
        0x00001362:    495f        _I      LDR      r1,[pc,#380] ; [0x14e0] = 0x1ff
        0x00001364:    4008        .@      ANDS     r0,r0,r1
        0x00001366:    1c80        ..      ADDS     r0,r0,#2
        0x00001368:    9003        ..      STR      r0,[sp,#0xc]
        0x0000136a:    9805        ..      LDR      r0,[sp,#0x14]
        0x0000136c:    211f        .!      MOVS     r1,#0x1f
        0x0000136e:    0249        I.      LSLS     r1,r1,#9
        0x00001370:    4008        .@      ANDS     r0,r0,r1
        0x00001372:    0a40        @.      LSRS     r0,r0,#9
        0x00001374:    1c80        ..      ADDS     r0,r0,#2
        0x00001376:    9002        ..      STR      r0,[sp,#8]
        0x00001378:    9804        ..      LDR      r0,[sp,#0x10]
        0x0000137a:    0881        ..      LSRS     r1,r0,#2
        0x0000137c:    9803        ..      LDR      r0,[sp,#0xc]
        0x0000137e:    4348        HC      MULS     r0,r1,r0
        0x00001380:    9a02        ..      LDR      r2,[sp,#8]
        0x00001382:    9901        ..      LDR      r1,[sp,#4]
        0x00001384:    4351        QC      MULS     r1,r2,r1
        0x00001386:    f7feff70    ..p.    BL       __aeabi_uidiv ; 0x26a
        0x0000138a:    0080        ..      LSLS     r0,r0,#2
        0x0000138c:    9006        ..      STR      r0,[sp,#0x18]
        0x0000138e:    9806        ..      LDR      r0,[sp,#0x18]
        0x00001390:    9007        ..      STR      r0,[sp,#0x1c]
        0x00001392:    e7ff        ..      B        0x1394 ; CLK_GetPLLClockFreq + 144
        0x00001394:    9807        ..      LDR      r0,[sp,#0x1c]
        0x00001396:    b008        ..      ADD      sp,sp,#0x20
        0x00001398:    bd80        ..      POP      {r7,pc}
        0x0000139a:    46c0        .F      MOV      r8,r8
    CLK_GetPLLClockFreq
        0x0000139c:    b580        ..      PUSH     {r7,lr}
        0x0000139e:    b088        ..      SUB      sp,sp,#0x20
        0x000013a0:    2000        .       MOVS     r0,#0
        0x000013a2:    9006        ..      STR      r0,[sp,#0x18]
        0x000013a4:    484a        JH      LDR      r0,[pc,#296] ; [0x14d0] = 0x4020201
        0x000013a6:    9000        ..      STR      r0,[sp,#0]
        0x000013a8:    484a        JH      LDR      r0,[pc,#296] ; [0x14d4] = 0x50000220
        0x000013aa:    6800        .h      LDR      r0,[r0,#0]
        0x000013ac:    9005        ..      STR      r0,[sp,#0x14]
        0x000013ae:    a805        ..      ADD      r0,sp,#0x14
        0x000013b0:    7880        .x      LDRB     r0,[r0,#2]
        0x000013b2:    2105        .!      MOVS     r1,#5
        0x000013b4:    4208        .B      TST      r0,r1
        0x000013b6:    d003        ..      BEQ      0x13c0 ; CLK_GetPLLClockFreq + 36
        0x000013b8:    e7ff        ..      B        0x13ba ; CLK_GetPLLClockFreq + 30
        0x000013ba:    2000        .       MOVS     r0,#0
        0x000013bc:    9007        ..      STR      r0,[sp,#0x1c]
        0x000013be:    e035        5.      B        0x142c ; CLK_GetPLLClockFreq + 144
        0x000013c0:    a805        ..      ADD      r0,sp,#0x14
        0x000013c2:    7880        .x      LDRB     r0,[r0,#2]
        0x000013c4:    0700        ..      LSLS     r0,r0,#28
        0x000013c6:    2800        .(      CMP      r0,#0
        0x000013c8:    d503        ..      BPL      0x13d2 ; CLK_GetPLLClockFreq + 54
        0x000013ca:    e7ff        ..      B        0x13cc ; CLK_GetPLLClockFreq + 48
        0x000013cc:    4843        CH      LDR      r0,[pc,#268] ; [0x14dc] = 0x1518000
        0x000013ce:    9004        ..      STR      r0,[sp,#0x10]
        0x000013d0:    e002        ..      B        0x13d8 ; CLK_GetPLLClockFreq + 60
        0x000013d2:    4841        AH      LDR      r0,[pc,#260] ; [0x14d8] = 0xb71b00
        0x000013d4:    9004        ..      STR      r0,[sp,#0x10]
        0x000013d6:    e7ff        ..      B        0x13d8 ; CLK_GetPLLClockFreq + 60
        0x000013d8:    a805        ..      ADD      r0,sp,#0x14
        0x000013da:    7880        .x      LDRB     r0,[r0,#2]
        0x000013dc:    0780        ..      LSLS     r0,r0,#30
        0x000013de:    2800        .(      CMP      r0,#0
        0x000013e0:    d503        ..      BPL      0x13ea ; CLK_GetPLLClockFreq + 78
        0x000013e2:    e7ff        ..      B        0x13e4 ; CLK_GetPLLClockFreq + 72
        0x000013e4:    9804        ..      LDR      r0,[sp,#0x10]
        0x000013e6:    9007        ..      STR      r0,[sp,#0x1c]
        0x000013e8:    e020         .      B        0x142c ; CLK_GetPLLClockFreq + 144
        0x000013ea:    a805        ..      ADD      r0,sp,#0x14
        0x000013ec:    8800        ..      LDRH     r0,[r0,#0]
        0x000013ee:    0b81        ..      LSRS     r1,r0,#14
        0x000013f0:    4668        hF      MOV      r0,sp
        0x000013f2:    1840        @.      ADDS     r0,r0,r1
        0x000013f4:    7800        .x      LDRB     r0,[r0,#0]
        0x000013f6:    9001        ..      STR      r0,[sp,#4]
        0x000013f8:    9805        ..      LDR      r0,[sp,#0x14]
        0x000013fa:    4939        9I      LDR      r1,[pc,#228] ; [0x14e0] = 0x1ff
        0x000013fc:    4008        .@      ANDS     r0,r0,r1
        0x000013fe:    1c80        ..      ADDS     r0,r0,#2
        0x00001400:    9003        ..      STR      r0,[sp,#0xc]
        0x00001402:    9805        ..      LDR      r0,[sp,#0x14]
        0x00001404:    211f        .!      MOVS     r1,#0x1f
        0x00001406:    0249        I.      LSLS     r1,r1,#9
        0x00001408:    4008        .@      ANDS     r0,r0,r1
        0x0000140a:    0a40        @.      LSRS     r0,r0,#9
        0x0000140c:    1c80        ..      ADDS     r0,r0,#2
        0x0000140e:    9002        ..      STR      r0,[sp,#8]
        0x00001410:    9804        ..      LDR      r0,[sp,#0x10]
        0x00001412:    0881        ..      LSRS     r1,r0,#2
        0x00001414:    9803        ..      LDR      r0,[sp,#0xc]
        0x00001416:    4348        HC      MULS     r0,r1,r0
        0x00001418:    9a02        ..      LDR      r2,[sp,#8]
        0x0000141a:    9901        ..      LDR      r1,[sp,#4]
        0x0000141c:    4351        QC      MULS     r1,r2,r1
        0x0000141e:    f7feff24    ..$.    BL       __aeabi_uidiv ; 0x26a
        0x00001422:    0080        ..      LSLS     r0,r0,#2
        0x00001424:    9006        ..      STR      r0,[sp,#0x18]
        0x00001426:    9806        ..      LDR      r0,[sp,#0x18]
        0x00001428:    9007        ..      STR      r0,[sp,#0x1c]
        0x0000142a:    e7ff        ..      B        0x142c ; CLK_GetPLLClockFreq + 144
        0x0000142c:    9807        ..      LDR      r0,[sp,#0x1c]
        0x0000142e:    b008        ..      ADD      sp,sp,#0x20
        0x00001430:    bd80        ..      POP      {r7,pc}
        0x00001432:    46c0        .F      MOV      r8,r8
    $d
    __arm_cp.11_1
        0x00001434:    50000220     ..P    DCD    1342177824
    $t
    CLK_GetPLLClockFreq
        0x00001438:    b580        ..      PUSH     {r7,lr}
        0x0000143a:    b088        ..      SUB      sp,sp,#0x20
        0x0000143c:    2000        .       MOVS     r0,#0
        0x0000143e:    9006        ..      STR      r0,[sp,#0x18]
        0x00001440:    4823        #H      LDR      r0,[pc,#140] ; [0x14d0] = 0x4020201
        0x00001442:    9000        ..      STR      r0,[sp,#0]
        0x00001444:    4823        #H      LDR      r0,[pc,#140] ; [0x14d4] = 0x50000220
        0x00001446:    6800        .h      LDR      r0,[r0,#0]
        0x00001448:    9005        ..      STR      r0,[sp,#0x14]
        0x0000144a:    a805        ..      ADD      r0,sp,#0x14
        0x0000144c:    7880        .x      LDRB     r0,[r0,#2]
        0x0000144e:    2105        .!      MOVS     r1,#5
        0x00001450:    4208        .B      TST      r0,r1
        0x00001452:    d003        ..      BEQ      0x145c ; CLK_GetPLLClockFreq + 36
        0x00001454:    e7ff        ..      B        0x1456 ; CLK_GetPLLClockFreq + 30
        0x00001456:    2000        .       MOVS     r0,#0
        0x00001458:    9007        ..      STR      r0,[sp,#0x1c]
        0x0000145a:    e035        5.      B        0x14c8 ; CLK_GetPLLClockFreq + 144
        0x0000145c:    a805        ..      ADD      r0,sp,#0x14
        0x0000145e:    7880        .x      LDRB     r0,[r0,#2]
        0x00001460:    0700        ..      LSLS     r0,r0,#28
        0x00001462:    2800        .(      CMP      r0,#0
        0x00001464:    d503        ..      BPL      0x146e ; CLK_GetPLLClockFreq + 54
        0x00001466:    e7ff        ..      B        0x1468 ; CLK_GetPLLClockFreq + 48
        0x00001468:    481c        .H      LDR      r0,[pc,#112] ; [0x14dc] = 0x1518000
        0x0000146a:    9004        ..      STR      r0,[sp,#0x10]
        0x0000146c:    e002        ..      B        0x1474 ; CLK_GetPLLClockFreq + 60
        0x0000146e:    481a        .H      LDR      r0,[pc,#104] ; [0x14d8] = 0xb71b00
        0x00001470:    9004        ..      STR      r0,[sp,#0x10]
        0x00001472:    e7ff        ..      B        0x1474 ; CLK_GetPLLClockFreq + 60
        0x00001474:    a805        ..      ADD      r0,sp,#0x14
        0x00001476:    7880        .x      LDRB     r0,[r0,#2]
        0x00001478:    0780        ..      LSLS     r0,r0,#30
        0x0000147a:    2800        .(      CMP      r0,#0
        0x0000147c:    d503        ..      BPL      0x1486 ; CLK_GetPLLClockFreq + 78
        0x0000147e:    e7ff        ..      B        0x1480 ; CLK_GetPLLClockFreq + 72
        0x00001480:    9804        ..      LDR      r0,[sp,#0x10]
        0x00001482:    9007        ..      STR      r0,[sp,#0x1c]
        0x00001484:    e020         .      B        0x14c8 ; CLK_GetPLLClockFreq + 144
        0x00001486:    a805        ..      ADD      r0,sp,#0x14
        0x00001488:    8800        ..      LDRH     r0,[r0,#0]
        0x0000148a:    0b81        ..      LSRS     r1,r0,#14
        0x0000148c:    4668        hF      MOV      r0,sp
        0x0000148e:    1840        @.      ADDS     r0,r0,r1
        0x00001490:    7800        .x      LDRB     r0,[r0,#0]
        0x00001492:    9001        ..      STR      r0,[sp,#4]
        0x00001494:    9805        ..      LDR      r0,[sp,#0x14]
        0x00001496:    4912        .I      LDR      r1,[pc,#72] ; [0x14e0] = 0x1ff
        0x00001498:    4008        .@      ANDS     r0,r0,r1
        0x0000149a:    1c80        ..      ADDS     r0,r0,#2
        0x0000149c:    9003        ..      STR      r0,[sp,#0xc]
        0x0000149e:    9805        ..      LDR      r0,[sp,#0x14]
        0x000014a0:    211f        .!      MOVS     r1,#0x1f
        0x000014a2:    0249        I.      LSLS     r1,r1,#9
        0x000014a4:    4008        .@      ANDS     r0,r0,r1
        0x000014a6:    0a40        @.      LSRS     r0,r0,#9
        0x000014a8:    1c80        ..      ADDS     r0,r0,#2
        0x000014aa:    9002        ..      STR      r0,[sp,#8]
        0x000014ac:    9804        ..      LDR      r0,[sp,#0x10]
        0x000014ae:    0881        ..      LSRS     r1,r0,#2
        0x000014b0:    9803        ..      LDR      r0,[sp,#0xc]
        0x000014b2:    4348        HC      MULS     r0,r1,r0
        0x000014b4:    9a02        ..      LDR      r2,[sp,#8]
        0x000014b6:    9901        ..      LDR      r1,[sp,#4]
        0x000014b8:    4351        QC      MULS     r1,r2,r1
        0x000014ba:    f7fefed6    ....    BL       __aeabi_uidiv ; 0x26a
        0x000014be:    0080        ..      LSLS     r0,r0,#2
        0x000014c0:    9006        ..      STR      r0,[sp,#0x18]
        0x000014c2:    9806        ..      LDR      r0,[sp,#0x18]
        0x000014c4:    9007        ..      STR      r0,[sp,#0x1c]
        0x000014c6:    e7ff        ..      B        0x14c8 ; CLK_GetPLLClockFreq + 144
        0x000014c8:    9807        ..      LDR      r0,[sp,#0x1c]
        0x000014ca:    b008        ..      ADD      sp,sp,#0x20
        0x000014cc:    bd80        ..      POP      {r7,pc}
        0x000014ce:    46c0        .F      MOV      r8,r8
    $d
    __arm_cp.20_0
        0x000014d0:    04020201    ....    DCD    67240449
    __arm_cp.20_1
        0x000014d4:    50000220     ..P    DCD    1342177824
    __arm_cp.20_2
        0x000014d8:    00b71b00    ....    DCD    12000000
    __arm_cp.20_3
        0x000014dc:    01518000    ..Q.    DCD    22118400
    __arm_cp.20_4
        0x000014e0:    000001ff    ....    DCD    511
    $t
    CLK_SetCoreClock
        0x000014e4:    b580        ..      PUSH     {r7,lr}
        0x000014e6:    b082        ..      SUB      sp,sp,#8
        0x000014e8:    9001        ..      STR      r0,[sp,#4]
        0x000014ea:    4897        .H      LDR      r0,[pc,#604] ; [0x1748] = 0x5000020c
        0x000014ec:    6800        .h      LDR      r0,[r0,#0]
        0x000014ee:    2110        .!      MOVS     r1,#0x10
        0x000014f0:    4008        .@      ANDS     r0,r0,r1
        0x000014f2:    9000        ..      STR      r0,[sp,#0]
        0x000014f4:    9801        ..      LDR      r0,[sp,#4]
        0x000014f6:    4926        &I      LDR      r1,[pc,#152] ; [0x1590] = 0x44aa201
        0x000014f8:    4288        .B      CMP      r0,r1
        0x000014fa:    d303        ..      BCC      0x1504 ; CLK_SetCoreClock + 32
        0x000014fc:    e7ff        ..      B        0x14fe ; CLK_SetCoreClock + 26
        0x000014fe:    4825        %H      LDR      r0,[pc,#148] ; [0x1594] = 0x44aa200
        0x00001500:    9001        ..      STR      r0,[sp,#4]
        0x00001502:    e7ff        ..      B        0x1504 ; CLK_SetCoreClock + 32
        0x00001504:    9801        ..      LDR      r0,[sp,#4]
        0x00001506:    4924        $I      LDR      r1,[pc,#144] ; [0x1598] = 0x17d783f
        0x00001508:    4288        .B      CMP      r0,r1
        0x0000150a:    d803        ..      BHI      0x1514 ; CLK_SetCoreClock + 48
        0x0000150c:    e7ff        ..      B        0x150e ; CLK_SetCoreClock + 42
        0x0000150e:    4823        #H      LDR      r0,[pc,#140] ; [0x159c] = 0x17d7840
        0x00001510:    9001        ..      STR      r0,[sp,#4]
        0x00001512:    e7ff        ..      B        0x1514 ; CLK_SetCoreClock + 48
        0x00001514:    493a        :I      LDR      r1,[pc,#232] ; [0x1600] = 0x50000200
        0x00001516:    6808        .h      LDR      r0,[r1,#0]
        0x00001518:    2204        ."      MOVS     r2,#4
        0x0000151a:    4310        .C      ORRS     r0,r0,r2
        0x0000151c:    6008        .`      STR      r0,[r1,#0]
        0x0000151e:    2010        .       MOVS     r0,#0x10
        0x00001520:    f000f8f2    ....    BL       CLK_WaitClockReady ; 0x1708
        0x00001524:    4965        eI      LDR      r1,[pc,#404] ; [0x16bc] = 0x50000210
        0x00001526:    6808        .h      LDR      r0,[r1,#0]
        0x00001528:    2207        ."      MOVS     r2,#7
        0x0000152a:    4310        .C      ORRS     r0,r0,r2
        0x0000152c:    6008        .`      STR      r0,[r1,#0]
        0x0000152e:    495c        \I      LDR      r1,[pc,#368] ; [0x16a0] = 0x50000218
        0x00001530:    6808        .h      LDR      r0,[r1,#0]
        0x00001532:    220f        ."      MOVS     r2,#0xf
        0x00001534:    4390        .C      BICS     r0,r0,r2
        0x00001536:    6008        .`      STR      r0,[r1,#0]
        0x00001538:    4883        .H      LDR      r0,[pc,#524] ; [0x1748] = 0x5000020c
        0x0000153a:    6800        .h      LDR      r0,[r0,#0]
        0x0000153c:    07c0        ..      LSLS     r0,r0,#31
        0x0000153e:    2800        .(      CMP      r0,#0
        0x00001540:    d007        ..      BEQ      0x1552 ; CLK_SetCoreClock + 110
        0x00001542:    e7ff        ..      B        0x1544 ; CLK_SetCoreClock + 96
        0x00001544:    9801        ..      LDR      r0,[sp,#4]
        0x00001546:    0041        A.      LSLS     r1,r0,#1
        0x00001548:    2000        .       MOVS     r0,#0
        0x0000154a:    f7fffdc9    ....    BL       CLK_EnablePLL ; 0x10e0
        0x0000154e:    9001        ..      STR      r0,[sp,#4]
        0x00001550:    e00c        ..      B        0x156c ; CLK_SetCoreClock + 136
        0x00001552:    9801        ..      LDR      r0,[sp,#4]
        0x00001554:    0041        A.      LSLS     r1,r0,#1
        0x00001556:    2001        .       MOVS     r0,#1
        0x00001558:    04c0        ..      LSLS     r0,r0,#19
        0x0000155a:    f7fffdc1    ....    BL       CLK_EnablePLL ; 0x10e0
        0x0000155e:    9001        ..      STR      r0,[sp,#4]
        0x00001560:    4879        yH      LDR      r0,[pc,#484] ; [0x1748] = 0x5000020c
        0x00001562:    6800        .h      LDR      r0,[r0,#0]
        0x00001564:    2110        .!      MOVS     r1,#0x10
        0x00001566:    4008        .@      ANDS     r0,r0,r1
        0x00001568:    9000        ..      STR      r0,[sp,#0]
        0x0000156a:    e7ff        ..      B        0x156c ; CLK_SetCoreClock + 136
        0x0000156c:    2002        .       MOVS     r0,#2
        0x0000156e:    2101        .!      MOVS     r1,#1
        0x00001570:    f000f816    ....    BL       CLK_SetHCLK ; 0x15a0
        0x00001574:    9800        ..      LDR      r0,[sp,#0]
        0x00001576:    2800        .(      CMP      r0,#0
        0x00001578:    d106        ..      BNE      0x1588 ; CLK_SetCoreClock + 164
        0x0000157a:    e7ff        ..      B        0x157c ; CLK_SetCoreClock + 152
        0x0000157c:    4920         I      LDR      r1,[pc,#128] ; [0x1600] = 0x50000200
        0x0000157e:    6808        .h      LDR      r0,[r1,#0]
        0x00001580:    2204        ."      MOVS     r2,#4
        0x00001582:    4390        .C      BICS     r0,r0,r2
        0x00001584:    6008        .`      STR      r0,[r1,#0]
        0x00001586:    e7ff        ..      B        0x1588 ; CLK_SetCoreClock + 164
        0x00001588:    9801        ..      LDR      r0,[sp,#4]
        0x0000158a:    0840        @.      LSRS     r0,r0,#1
        0x0000158c:    b002        ..      ADD      sp,sp,#8
        0x0000158e:    bd80        ..      POP      {r7,pc}
    $d
    __arm_cp.10_1
        0x00001590:    044aa201    ..J.    DCD    72000001
    __arm_cp.10_2
        0x00001594:    044aa200    ..J.    DCD    72000000
    __arm_cp.10_3
        0x00001598:    017d783f    ?x}.    DCD    24999999
    __arm_cp.10_4
        0x0000159c:    017d7840    @x}.    DCD    25000000
    $t
    CLK_SetHCLK
        0x000015a0:    b510        ..      PUSH     {r4,lr}
        0x000015a2:    b084        ..      SUB      sp,sp,#0x10
        0x000015a4:    9003        ..      STR      r0,[sp,#0xc]
        0x000015a6:    9102        ..      STR      r1,[sp,#8]
        0x000015a8:    4867        gH      LDR      r0,[pc,#412] ; [0x1748] = 0x5000020c
        0x000015aa:    6801        .h      LDR      r1,[r0,#0]
        0x000015ac:    2010        .       MOVS     r0,#0x10
        0x000015ae:    4001        .@      ANDS     r1,r1,r0
        0x000015b0:    9101        ..      STR      r1,[sp,#4]
        0x000015b2:    4a13        .J      LDR      r2,[pc,#76] ; [0x1600] = 0x50000200
        0x000015b4:    6811        .h      LDR      r1,[r2,#0]
        0x000015b6:    2304        .#      MOVS     r3,#4
        0x000015b8:    4319        .C      ORRS     r1,r1,r3
        0x000015ba:    6011        .`      STR      r1,[r2,#0]
        0x000015bc:    f000f8a4    ....    BL       CLK_WaitClockReady ; 0x1708
        0x000015c0:    493e        >I      LDR      r1,[pc,#248] ; [0x16bc] = 0x50000210
        0x000015c2:    6808        .h      LDR      r0,[r1,#0]
        0x000015c4:    2207        ."      MOVS     r2,#7
        0x000015c6:    4310        .C      ORRS     r0,r0,r2
        0x000015c8:    6008        .`      STR      r0,[r1,#0]
        0x000015ca:    4b35        5K      LDR      r3,[pc,#212] ; [0x16a0] = 0x50000218
        0x000015cc:    6818        .h      LDR      r0,[r3,#0]
        0x000015ce:    240f        .$      MOVS     r4,#0xf
        0x000015d0:    43a0        .C      BICS     r0,r0,r4
        0x000015d2:    9c02        ..      LDR      r4,[sp,#8]
        0x000015d4:    4320         C      ORRS     r0,r0,r4
        0x000015d6:    6018        .`      STR      r0,[r3,#0]
        0x000015d8:    6808        .h      LDR      r0,[r1,#0]
        0x000015da:    4390        .C      BICS     r0,r0,r2
        0x000015dc:    9a03        ..      LDR      r2,[sp,#0xc]
        0x000015de:    4310        .C      ORRS     r0,r0,r2
        0x000015e0:    6008        .`      STR      r0,[r1,#0]
        0x000015e2:    f003facd    ....    BL       SystemCoreClockUpdate ; 0x4b80
        0x000015e6:    9801        ..      LDR      r0,[sp,#4]
        0x000015e8:    2800        .(      CMP      r0,#0
        0x000015ea:    d106        ..      BNE      0x15fa ; CLK_SetHCLK + 90
        0x000015ec:    e7ff        ..      B        0x15ee ; CLK_SetHCLK + 78
        0x000015ee:    4904        .I      LDR      r1,[pc,#16] ; [0x1600] = 0x50000200
        0x000015f0:    6808        .h      LDR      r0,[r1,#0]
        0x000015f2:    2204        ."      MOVS     r2,#4
        0x000015f4:    4390        .C      BICS     r0,r0,r2
        0x000015f6:    6008        .`      STR      r0,[r1,#0]
        0x000015f8:    e7ff        ..      B        0x15fa ; CLK_SetHCLK + 90
        0x000015fa:    b004        ..      ADD      sp,sp,#0x10
        0x000015fc:    bd10        ..      POP      {r4,pc}
        0x000015fe:    46c0        .F      MOV      r8,r8
    $d
    __arm_cp.13_1
        0x00001600:    50000200    ...P    DCD    1342177792
    $t
    CLK_SetModuleClock
        0x00001604:    b08b        ..      SUB      sp,sp,#0x2c
        0x00001606:    900a        ..      STR      r0,[sp,#0x28]
        0x00001608:    9109        ..      STR      r1,[sp,#0x24]
        0x0000160a:    9208        ..      STR      r2,[sp,#0x20]
        0x0000160c:    2000        .       MOVS     r0,#0
        0x0000160e:    9007        ..      STR      r0,[sp,#0x1c]
        0x00001610:    9006        ..      STR      r0,[sp,#0x18]
        0x00001612:    2124        $!      MOVS     r1,#0x24
        0x00001614:    9105        ..      STR      r1,[sp,#0x14]
        0x00001616:    210c        .!      MOVS     r1,#0xc
        0x00001618:    9104        ..      STR      r1,[sp,#0x10]
        0x0000161a:    2104        .!      MOVS     r1,#4
        0x0000161c:    9103        ..      STR      r1,[sp,#0xc]
        0x0000161e:    9002        ..      STR      r0,[sp,#8]
        0x00001620:    2120         !      MOVS     r1,#0x20
        0x00001622:    9101        ..      STR      r1,[sp,#4]
        0x00001624:    9000        ..      STR      r0,[sp,#0]
        0x00001626:    980a        ..      LDR      r0,[sp,#0x28]
        0x00001628:    0a80        ..      LSRS     r0,r0,#10
        0x0000162a:    0600        ..      LSLS     r0,r0,#24
        0x0000162c:    2800        .(      CMP      r0,#0
        0x0000162e:    d017        ..      BEQ      0x1660 ; CLK_SetModuleClock + 92
        0x00001630:    e7ff        ..      B        0x1632 ; CLK_SetModuleClock + 46
        0x00001632:    a80a        ..      ADD      r0,sp,#0x28
        0x00001634:    8841        A.      LDRH     r1,[r0,#2]
        0x00001636:    200c        .       MOVS     r0,#0xc
        0x00001638:    4001        .@      ANDS     r1,r1,r0
        0x0000163a:    4668        hF      MOV      r0,sp
        0x0000163c:    5840        @X      LDR      r0,[r0,r1]
        0x0000163e:    4918        .I      LDR      r1,[pc,#96] ; [0x16a0] = 0x50000218
        0x00001640:    1840        @.      ADDS     r0,r0,r1
        0x00001642:    9006        ..      STR      r0,[sp,#0x18]
        0x00001644:    9806        ..      LDR      r0,[sp,#0x18]
        0x00001646:    6800        .h      LDR      r0,[r0,#0]
        0x00001648:    9a0a        ..      LDR      r2,[sp,#0x28]
        0x0000164a:    0a91        ..      LSRS     r1,r2,#10
        0x0000164c:    b2c9        ..      UXTB     r1,r1
        0x0000164e:    0592        ..      LSLS     r2,r2,#22
        0x00001650:    0ed2        ..      LSRS     r2,r2,#27
        0x00001652:    4091        .@      LSLS     r1,r1,r2
        0x00001654:    4388        .C      BICS     r0,r0,r1
        0x00001656:    9908        ..      LDR      r1,[sp,#0x20]
        0x00001658:    4308        .C      ORRS     r0,r0,r1
        0x0000165a:    9906        ..      LDR      r1,[sp,#0x18]
        0x0000165c:    6008        .`      STR      r0,[r1,#0]
        0x0000165e:    e7ff        ..      B        0x1660 ; CLK_SetModuleClock + 92
        0x00001660:    980a        ..      LDR      r0,[sp,#0x28]
        0x00001662:    0100        ..      LSLS     r0,r0,#4
        0x00001664:    0f40        @.      LSRS     r0,r0,#29
        0x00001666:    2800        .(      CMP      r0,#0
        0x00001668:    d017        ..      BEQ      0x169a ; CLK_SetModuleClock + 150
        0x0000166a:    e7ff        ..      B        0x166c ; CLK_SetModuleClock + 104
        0x0000166c:    980a        ..      LDR      r0,[sp,#0x28]
        0x0000166e:    0e81        ..      LSRS     r1,r0,#26
        0x00001670:    200c        .       MOVS     r0,#0xc
        0x00001672:    4001        .@      ANDS     r1,r1,r0
        0x00001674:    a802        ..      ADD      r0,sp,#8
        0x00001676:    5840        @X      LDR      r0,[r0,r1]
        0x00001678:    4910        .I      LDR      r1,[pc,#64] ; [0x16bc] = 0x50000210
        0x0000167a:    1840        @.      ADDS     r0,r0,r1
        0x0000167c:    9007        ..      STR      r0,[sp,#0x1c]
        0x0000167e:    9807        ..      LDR      r0,[sp,#0x1c]
        0x00001680:    6800        .h      LDR      r0,[r0,#0]
        0x00001682:    9a0a        ..      LDR      r2,[sp,#0x28]
        0x00001684:    0111        ..      LSLS     r1,r2,#4
        0x00001686:    0f49        I.      LSRS     r1,r1,#29
        0x00001688:    01d2        ..      LSLS     r2,r2,#7
        0x0000168a:    0ed2        ..      LSRS     r2,r2,#27
        0x0000168c:    4091        .@      LSLS     r1,r1,r2
        0x0000168e:    4388        .C      BICS     r0,r0,r1
        0x00001690:    9909        ..      LDR      r1,[sp,#0x24]
        0x00001692:    4308        .C      ORRS     r0,r0,r1
        0x00001694:    9907        ..      LDR      r1,[sp,#0x1c]
        0x00001696:    6008        .`      STR      r0,[r1,#0]
        0x00001698:    e7ff        ..      B        0x169a ; CLK_SetModuleClock + 150
        0x0000169a:    b00b        ..      ADD      sp,sp,#0x2c
        0x0000169c:    4770        pG      BX       lr
        0x0000169e:    46c0        .F      MOV      r8,r8
    $d
    __arm_cp.14_0
        0x000016a0:    50000218    ...P    DCD    1342177816
    $t
    CLK_SetSysTickClockSrc
        0x000016a4:    b081        ..      SUB      sp,sp,#4
        0x000016a6:    9000        ..      STR      r0,[sp,#0]
        0x000016a8:    4904        .I      LDR      r1,[pc,#16] ; [0x16bc] = 0x50000210
        0x000016aa:    6808        .h      LDR      r0,[r1,#0]
        0x000016ac:    2238        8"      MOVS     r2,#0x38
        0x000016ae:    4390        .C      BICS     r0,r0,r2
        0x000016b0:    9a00        ..      LDR      r2,[sp,#0]
        0x000016b2:    4310        .C      ORRS     r0,r0,r2
        0x000016b4:    6008        .`      STR      r0,[r1,#0]
        0x000016b6:    b001        ..      ADD      sp,sp,#4
        0x000016b8:    4770        pG      BX       lr
        0x000016ba:    46c0        .F      MOV      r8,r8
    $d
    __arm_cp.15_0
        0x000016bc:    50000210    ...P    DCD    1342177808
    $t
    CLK_SysTickDelay
        0x000016c0:    b081        ..      SUB      sp,sp,#4
        0x000016c2:    9000        ..      STR      r0,[sp,#0]
        0x000016c4:    9900        ..      LDR      r1,[sp,#0]
        0x000016c6:    480c        .H      LDR      r0,[pc,#48] ; [0x16f8] = 0x20000000
        0x000016c8:    6800        .h      LDR      r0,[r0,#0]
        0x000016ca:    4348        HC      MULS     r0,r1,r0
        0x000016cc:    490b        .I      LDR      r1,[pc,#44] ; [0x16fc] = 0xe000e014
        0x000016ce:    6008        .`      STR      r0,[r1,#0]
        0x000016d0:    490b        .I      LDR      r1,[pc,#44] ; [0x1700] = 0xe000e018
        0x000016d2:    2000        .       MOVS     r0,#0
        0x000016d4:    6008        .`      STR      r0,[r1,#0]
        0x000016d6:    490b        .I      LDR      r1,[pc,#44] ; [0x1704] = 0xe000e010
        0x000016d8:    2005        .       MOVS     r0,#5
        0x000016da:    6008        .`      STR      r0,[r1,#0]
        0x000016dc:    e7ff        ..      B        0x16de ; CLK_SysTickDelay + 30
        0x000016de:    4809        .H      LDR      r0,[pc,#36] ; [0x1704] = 0xe000e010
        0x000016e0:    6800        .h      LDR      r0,[r0,#0]
        0x000016e2:    03c0        ..      LSLS     r0,r0,#15
        0x000016e4:    2800        .(      CMP      r0,#0
        0x000016e6:    d401        ..      BMI      0x16ec ; CLK_SysTickDelay + 44
        0x000016e8:    e7ff        ..      B        0x16ea ; CLK_SysTickDelay + 42
        0x000016ea:    e7f8        ..      B        0x16de ; CLK_SysTickDelay + 30
        0x000016ec:    4905        .I      LDR      r1,[pc,#20] ; [0x1704] = 0xe000e010
        0x000016ee:    2000        .       MOVS     r0,#0
        0x000016f0:    6008        .`      STR      r0,[r1,#0]
        0x000016f2:    b001        ..      ADD      sp,sp,#4
        0x000016f4:    4770        pG      BX       lr
        0x000016f6:    46c0        .F      MOV      r8,r8
    $d
    __arm_cp.8_0
        0x000016f8:    20000000    ...     DCD    536870912
    __arm_cp.8_1
        0x000016fc:    e000e014    ....    DCD    3758153748
    __arm_cp.8_2
        0x00001700:    e000e018    ....    DCD    3758153752
    __arm_cp.8_3
        0x00001704:    e000e010    ....    DCD    3758153744
    $t
    CLK_WaitClockReady
        0x00001708:    b083        ..      SUB      sp,sp,#0xc
        0x0000170a:    9001        ..      STR      r0,[sp,#4]
        0x0000170c:    480d        .H      LDR      r0,[pc,#52] ; [0x1744] = 0x20000008
        0x0000170e:    6800        .h      LDR      r0,[r0,#0]
        0x00001710:    0840        @.      LSRS     r0,r0,#1
        0x00001712:    9000        ..      STR      r0,[sp,#0]
        0x00001714:    e7ff        ..      B        0x1716 ; CLK_WaitClockReady + 14
        0x00001716:    480c        .H      LDR      r0,[pc,#48] ; [0x1748] = 0x5000020c
        0x00001718:    6800        .h      LDR      r0,[r0,#0]
        0x0000171a:    9901        ..      LDR      r1,[sp,#4]
        0x0000171c:    4008        .@      ANDS     r0,r0,r1
        0x0000171e:    4288        .B      CMP      r0,r1
        0x00001720:    d00a        ..      BEQ      0x1738 ; CLK_WaitClockReady + 48
        0x00001722:    e7ff        ..      B        0x1724 ; CLK_WaitClockReady + 28
        0x00001724:    9800        ..      LDR      r0,[sp,#0]
        0x00001726:    1e41        A.      SUBS     r1,r0,#1
        0x00001728:    9100        ..      STR      r1,[sp,#0]
        0x0000172a:    2800        .(      CMP      r0,#0
        0x0000172c:    dc03        ..      BGT      0x1736 ; CLK_WaitClockReady + 46
        0x0000172e:    e7ff        ..      B        0x1730 ; CLK_WaitClockReady + 40
        0x00001730:    2000        .       MOVS     r0,#0
        0x00001732:    9002        ..      STR      r0,[sp,#8]
        0x00001734:    e003        ..      B        0x173e ; CLK_WaitClockReady + 54
        0x00001736:    e7ee        ..      B        0x1716 ; CLK_WaitClockReady + 14
        0x00001738:    2001        .       MOVS     r0,#1
        0x0000173a:    9002        ..      STR      r0,[sp,#8]
        0x0000173c:    e7ff        ..      B        0x173e ; CLK_WaitClockReady + 54
        0x0000173e:    9802        ..      LDR      r0,[sp,#8]
        0x00001740:    b003        ..      ADD      sp,sp,#0xc
        0x00001742:    4770        pG      BX       lr
    $d
    __arm_cp.11_0
        0x00001744:    20000008    ...     DCD    536870920
    __arm_cp.11_1
        0x00001748:    5000020c    ...P    DCD    1342177804
    $t
    CRC16
        0x0000174c:    b510        ..      PUSH     {r4,lr}
        0x0000174e:    b083        ..      SUB      sp,sp,#0xc
        0x00001750:    9002        ..      STR      r0,[sp,#8]
        0x00001752:    a801        ..      ADD      r0,sp,#4
        0x00001754:    8001        ..      STRH     r1,[r0,#0]
        0x00001756:    4911        .I      LDR      r1,[pc,#68] ; [0x179c] = 0x2000000c
        0x00001758:    20ff        .       MOVS     r0,#0xff
        0x0000175a:    7008        .p      STRB     r0,[r1,#0]
        0x0000175c:    4910        .I      LDR      r1,[pc,#64] ; [0x17a0] = 0x2000000d
        0x0000175e:    7008        .p      STRB     r0,[r1,#0]
        0x00001760:    e7ff        ..      B        0x1762 ; CRC16 + 22
        0x00001762:    aa01        ..      ADD      r2,sp,#4
        0x00001764:    8810        ..      LDRH     r0,[r2,#0]
        0x00001766:    1e41        A.      SUBS     r1,r0,#1
        0x00001768:    8011        ..      STRH     r1,[r2,#0]
        0x0000176a:    2800        .(      CMP      r0,#0
        0x0000176c:    d014        ..      BEQ      0x1798 ; CRC16 + 76
        0x0000176e:    e7ff        ..      B        0x1770 ; CRC16 + 36
        0x00001770:    4a0a        .J      LDR      r2,[pc,#40] ; [0x179c] = 0x2000000c
        0x00001772:    7810        .x      LDRB     r0,[r2,#0]
        0x00001774:    9902        ..      LDR      r1,[sp,#8]
        0x00001776:    1c4b        K.      ADDS     r3,r1,#1
        0x00001778:    9302        ..      STR      r3,[sp,#8]
        0x0000177a:    7809        .x      LDRB     r1,[r1,#0]
        0x0000177c:    4048        H@      EORS     r0,r0,r1
        0x0000177e:    9000        ..      STR      r0,[sp,#0]
        0x00001780:    4907        .I      LDR      r1,[pc,#28] ; [0x17a0] = 0x2000000d
        0x00001782:    7808        .x      LDRB     r0,[r1,#0]
        0x00001784:    9c00        ..      LDR      r4,[sp,#0]
        0x00001786:    4b07        .K      LDR      r3,[pc,#28] ; [0x17a4] = 0x6998
        0x00001788:    5d1b        .]      LDRB     r3,[r3,r4]
        0x0000178a:    4058        X@      EORS     r0,r0,r3
        0x0000178c:    7010        .p      STRB     r0,[r2,#0]
        0x0000178e:    9a00        ..      LDR      r2,[sp,#0]
        0x00001790:    4805        .H      LDR      r0,[pc,#20] ; [0x17a8] = 0x6a98
        0x00001792:    5c80        .\      LDRB     r0,[r0,r2]
        0x00001794:    7008        .p      STRB     r0,[r1,#0]
        0x00001796:    e7e4        ..      B        0x1762 ; CRC16 + 22
        0x00001798:    b003        ..      ADD      sp,sp,#0xc
        0x0000179a:    bd10        ..      POP      {r4,pc}
    $d
    __arm_cp.6_0
        0x0000179c:    2000000c    ...     DCD    536870924
    __arm_cp.6_1
        0x000017a0:    2000000d    ...     DCD    536870925
    __arm_cp.6_2
        0x000017a4:    00006998    .i..    DCD    27032
    __arm_cp.6_3
        0x000017a8:    00006a98    .j..    DCD    27288
    $t
    CRC32_Calc
        0x000017ac:    b580        ..      PUSH     {r7,lr}
        0x000017ae:    b088        ..      SUB      sp,sp,#0x20
        0x000017b0:    9007        ..      STR      r0,[sp,#0x1c]
        0x000017b2:    9106        ..      STR      r1,[sp,#0x18]
        0x000017b4:    2003        .       MOVS     r0,#3
        0x000017b6:    0780        ..      LSLS     r0,r0,#30
        0x000017b8:    210b        .!      MOVS     r1,#0xb
        0x000017ba:    0609        ..      LSLS     r1,r1,#24
        0x000017bc:    2200        ."      MOVS     r2,#0
        0x000017be:    9201        ..      STR      r2,[sp,#4]
        0x000017c0:    43d2        .C      MVNS     r2,r2
        0x000017c2:    2301        .#      MOVS     r3,#1
        0x000017c4:    075b        [.      LSLS     r3,r3,#29
        0x000017c6:    f000f86d    ..m.    BL       CRC_Open ; 0x18a4
        0x000017ca:    9801        ..      LDR      r0,[sp,#4]
        0x000017cc:    9005        ..      STR      r0,[sp,#0x14]
        0x000017ce:    e7ff        ..      B        0x17d0 ; CRC32_Calc + 36
        0x000017d0:    9805        ..      LDR      r0,[sp,#0x14]
        0x000017d2:    1d00        ..      ADDS     r0,r0,#4
        0x000017d4:    9906        ..      LDR      r1,[sp,#0x18]
        0x000017d6:    4288        .B      CMP      r0,r1
        0x000017d8:    d816        ..      BHI      0x1808 ; CRC32_Calc + 92
        0x000017da:    e7ff        ..      B        0x17dc ; CRC32_Calc + 48
        0x000017dc:    9907        ..      LDR      r1,[sp,#0x1c]
        0x000017de:    9a05        ..      LDR      r2,[sp,#0x14]
        0x000017e0:    1888        ..      ADDS     r0,r1,r2
        0x000017e2:    5c8a        .\      LDRB     r2,[r1,r2]
        0x000017e4:    7841        Ax      LDRB     r1,[r0,#1]
        0x000017e6:    0209        ..      LSLS     r1,r1,#8
        0x000017e8:    1889        ..      ADDS     r1,r1,r2
        0x000017ea:    7882        .x      LDRB     r2,[r0,#2]
        0x000017ec:    0412        ..      LSLS     r2,r2,#16
        0x000017ee:    78c0        .x      LDRB     r0,[r0,#3]
        0x000017f0:    0600        ..      LSLS     r0,r0,#24
        0x000017f2:    1880        ..      ADDS     r0,r0,r2
        0x000017f4:    1840        @.      ADDS     r0,r0,r1
        0x000017f6:    9003        ..      STR      r0,[sp,#0xc]
        0x000017f8:    9803        ..      LDR      r0,[sp,#0xc]
        0x000017fa:    4910        .I      LDR      r1,[pc,#64] ; [0x183c] = 0x50018004
        0x000017fc:    6008        .`      STR      r0,[r1,#0]
        0x000017fe:    e7ff        ..      B        0x1800 ; CRC32_Calc + 84
        0x00001800:    9805        ..      LDR      r0,[sp,#0x14]
        0x00001802:    1d00        ..      ADDS     r0,r0,#4
        0x00001804:    9005        ..      STR      r0,[sp,#0x14]
        0x00001806:    e7e3        ..      B        0x17d0 ; CRC32_Calc + 36
        0x00001808:    9805        ..      LDR      r0,[sp,#0x14]
        0x0000180a:    9906        ..      LDR      r1,[sp,#0x18]
        0x0000180c:    4288        .B      CMP      r0,r1
        0x0000180e:    d20f        ..      BCS      0x1830 ; CRC32_Calc + 132
        0x00001810:    e7ff        ..      B        0x1812 ; CRC32_Calc + 102
        0x00001812:    2000        .       MOVS     r0,#0
        0x00001814:    43c0        .C      MVNS     r0,r0
        0x00001816:    9002        ..      STR      r0,[sp,#8]
        0x00001818:    9807        ..      LDR      r0,[sp,#0x1c]
        0x0000181a:    9a05        ..      LDR      r2,[sp,#0x14]
        0x0000181c:    1881        ..      ADDS     r1,r0,r2
        0x0000181e:    9806        ..      LDR      r0,[sp,#0x18]
        0x00001820:    1a82        ..      SUBS     r2,r0,r2
        0x00001822:    a802        ..      ADD      r0,sp,#8
        0x00001824:    f7fefc74    ..t.    BL       __aeabi_memcpy ; 0x110
        0x00001828:    9802        ..      LDR      r0,[sp,#8]
        0x0000182a:    4904        .I      LDR      r1,[pc,#16] ; [0x183c] = 0x50018004
        0x0000182c:    6008        .`      STR      r0,[r1,#0]
        0x0000182e:    e7ff        ..      B        0x1830 ; CRC32_Calc + 132
        0x00001830:    f000f806    ....    BL       CRC_GetChecksum ; 0x1840
        0x00001834:    9004        ..      STR      r0,[sp,#0x10]
        0x00001836:    9804        ..      LDR      r0,[sp,#0x10]
        0x00001838:    b008        ..      ADD      sp,sp,#0x20
        0x0000183a:    bd80        ..      POP      {r7,pc}
    $d
    __arm_cp.11_0
        0x0000183c:    50018004    ...P    DCD    1342275588
    $t
    CRC_GetChecksum
        0x00001840:    b082        ..      SUB      sp,sp,#8
        0x00001842:    4825        %H      LDR      r0,[pc,#148] ; [0x18d8] = 0x50018000
        0x00001844:    6800        .h      LDR      r0,[r0,#0]
        0x00001846:    2103        .!      MOVS     r1,#3
        0x00001848:    0789        ..      LSLS     r1,r1,#30
        0x0000184a:    4008        .@      ANDS     r0,r0,r1
        0x0000184c:    9000        ..      STR      r0,[sp,#0]
        0x0000184e:    2101        .!      MOVS     r1,#1
        0x00001850:    07c9        ..      LSLS     r1,r1,#31
        0x00001852:    4288        .B      CMP      r0,r1
        0x00001854:    d010        ..      BEQ      0x1878 ; CRC_GetChecksum + 56
        0x00001856:    e7ff        ..      B        0x1858 ; CRC_GetChecksum + 24
        0x00001858:    9800        ..      LDR      r0,[sp,#0]
        0x0000185a:    2103        .!      MOVS     r1,#3
        0x0000185c:    0789        ..      LSLS     r1,r1,#30
        0x0000185e:    4288        .B      CMP      r0,r1
        0x00001860:    d00f        ..      BEQ      0x1882 ; CRC_GetChecksum + 66
        0x00001862:    e7ff        ..      B        0x1864 ; CRC_GetChecksum + 36
        0x00001864:    9800        ..      LDR      r0,[sp,#0]
        0x00001866:    2800        .(      CMP      r0,#0
        0x00001868:    d006        ..      BEQ      0x1878 ; CRC_GetChecksum + 56
        0x0000186a:    e7ff        ..      B        0x186c ; CRC_GetChecksum + 44
        0x0000186c:    9800        ..      LDR      r0,[sp,#0]
        0x0000186e:    2101        .!      MOVS     r1,#1
        0x00001870:    0789        ..      LSLS     r1,r1,#30
        0x00001872:    4288        .B      CMP      r0,r1
        0x00001874:    d009        ..      BEQ      0x188a ; CRC_GetChecksum + 74
        0x00001876:    e00d        ..      B        0x1894 ; CRC_GetChecksum + 84
        0x00001878:    4809        .H      LDR      r0,[pc,#36] ; [0x18a0] = 0x5001800c
        0x0000187a:    6800        .h      LDR      r0,[r0,#0]
        0x0000187c:    b280        ..      UXTH     r0,r0
        0x0000187e:    9001        ..      STR      r0,[sp,#4]
        0x00001880:    e00b        ..      B        0x189a ; CRC_GetChecksum + 90
        0x00001882:    4807        .H      LDR      r0,[pc,#28] ; [0x18a0] = 0x5001800c
        0x00001884:    6800        .h      LDR      r0,[r0,#0]
        0x00001886:    9001        ..      STR      r0,[sp,#4]
        0x00001888:    e007        ..      B        0x189a ; CRC_GetChecksum + 90
        0x0000188a:    4805        .H      LDR      r0,[pc,#20] ; [0x18a0] = 0x5001800c
        0x0000188c:    6800        .h      LDR      r0,[r0,#0]
        0x0000188e:    b2c0        ..      UXTB     r0,r0
        0x00001890:    9001        ..      STR      r0,[sp,#4]
        0x00001892:    e002        ..      B        0x189a ; CRC_GetChecksum + 90
        0x00001894:    2000        .       MOVS     r0,#0
        0x00001896:    9001        ..      STR      r0,[sp,#4]
        0x00001898:    e7ff        ..      B        0x189a ; CRC_GetChecksum + 90
        0x0000189a:    9801        ..      LDR      r0,[sp,#4]
        0x0000189c:    b002        ..      ADD      sp,sp,#8
        0x0000189e:    4770        pG      BX       lr
    $d
    __arm_cp.1_1
        0x000018a0:    5001800c    ...P    DCD    1342275596
    $t
    CRC_Open
        0x000018a4:    b084        ..      SUB      sp,sp,#0x10
        0x000018a6:    9003        ..      STR      r0,[sp,#0xc]
        0x000018a8:    9102        ..      STR      r1,[sp,#8]
        0x000018aa:    9201        ..      STR      r2,[sp,#4]
        0x000018ac:    9300        ..      STR      r3,[sp,#0]
        0x000018ae:    9801        ..      LDR      r0,[sp,#4]
        0x000018b0:    4908        .I      LDR      r1,[pc,#32] ; [0x18d4] = 0x50018008
        0x000018b2:    6008        .`      STR      r0,[r1,#0]
        0x000018b4:    9803        ..      LDR      r0,[sp,#0xc]
        0x000018b6:    9902        ..      LDR      r1,[sp,#8]
        0x000018b8:    4308        .C      ORRS     r0,r0,r1
        0x000018ba:    9900        ..      LDR      r1,[sp,#0]
        0x000018bc:    4308        .C      ORRS     r0,r0,r1
        0x000018be:    2101        .!      MOVS     r1,#1
        0x000018c0:    4308        .C      ORRS     r0,r0,r1
        0x000018c2:    4905        .I      LDR      r1,[pc,#20] ; [0x18d8] = 0x50018000
        0x000018c4:    6008        .`      STR      r0,[r1,#0]
        0x000018c6:    6808        .h      LDR      r0,[r1,#0]
        0x000018c8:    2202        ."      MOVS     r2,#2
        0x000018ca:    4310        .C      ORRS     r0,r0,r2
        0x000018cc:    6008        .`      STR      r0,[r1,#0]
        0x000018ce:    b004        ..      ADD      sp,sp,#0x10
        0x000018d0:    4770        pG      BX       lr
        0x000018d2:    46c0        .F      MOV      r8,r8
    $d
    __arm_cp.0_0
        0x000018d4:    50018008    ...P    DCD    1342275592
    __arm_cp.0_1
        0x000018d8:    50018000    ...P    DCD    1342275584
    $t
    CalChecksumH
        0x000018dc:    b580        ..      PUSH     {r7,lr}
        0x000018de:    b084        ..      SUB      sp,sp,#0x10
        0x000018e0:    4917        .I      LDR      r1,[pc,#92] ; [0x1940] = 0x20000106
        0x000018e2:    2055        U       MOVS     r0,#0x55
        0x000018e4:    7008        .p      STRB     r0,[r1,#0]
        0x000018e6:    4817        .H      LDR      r0,[pc,#92] ; [0x1944] = 0x20000d48
        0x000018e8:    7800        .x      LDRB     r0,[r0,#0]
        0x000018ea:    7048        Hp      STRB     r0,[r1,#1]
        0x000018ec:    a902        ..      ADD      r1,sp,#8
        0x000018ee:    2000        .       MOVS     r0,#0
        0x000018f0:    7008        .p      STRB     r0,[r1,#0]
        0x000018f2:    a903        ..      ADD      r1,sp,#0xc
        0x000018f4:    2001        .       MOVS     r0,#1
        0x000018f6:    7008        .p      STRB     r0,[r1,#0]
        0x000018f8:    e7ff        ..      B        0x18fa ; CalChecksumH + 30
        0x000018fa:    a803        ..      ADD      r0,sp,#0xc
        0x000018fc:    7800        .x      LDRB     r0,[r0,#0]
        0x000018fe:    2861        a(      CMP      r0,#0x61
        0x00001900:    dc0e        ..      BGT      0x1920 ; CalChecksumH + 68
        0x00001902:    e7ff        ..      B        0x1904 ; CalChecksumH + 40
        0x00001904:    a803        ..      ADD      r0,sp,#0xc
        0x00001906:    7801        .x      LDRB     r1,[r0,#0]
        0x00001908:    480d        .H      LDR      r0,[pc,#52] ; [0x1940] = 0x20000106
        0x0000190a:    5c41        A\      LDRB     r1,[r0,r1]
        0x0000190c:    9802        ..      LDR      r0,[sp,#8]
        0x0000190e:    1840        @.      ADDS     r0,r0,r1
        0x00001910:    a902        ..      ADD      r1,sp,#8
        0x00001912:    7008        .p      STRB     r0,[r1,#0]
        0x00001914:    e7ff        ..      B        0x1916 ; CalChecksumH + 58
        0x00001916:    9803        ..      LDR      r0,[sp,#0xc]
        0x00001918:    1c40        @.      ADDS     r0,r0,#1
        0x0000191a:    a903        ..      ADD      r1,sp,#0xc
        0x0000191c:    7008        .p      STRB     r0,[r1,#0]
        0x0000191e:    e7ec        ..      B        0x18fa ; CalChecksumH + 30
        0x00001920:    9802        ..      LDR      r0,[sp,#8]
        0x00001922:    4907        .I      LDR      r1,[pc,#28] ; [0x1940] = 0x20000106
        0x00001924:    9101        ..      STR      r1,[sp,#4]
        0x00001926:    2262        b"      MOVS     r2,#0x62
        0x00001928:    5488        .T      STRB     r0,[r1,r2]
        0x0000192a:    2263        c"      MOVS     r2,#0x63
        0x0000192c:    200a        .       MOVS     r0,#0xa
        0x0000192e:    5488        .T      STRB     r0,[r1,r2]
        0x00001930:    f000fc44    ..D.    BL       EnableHostUartTx ; 0x21bc
        0x00001934:    9801        ..      LDR      r0,[sp,#4]
        0x00001936:    2164        d!      MOVS     r1,#0x64
        0x00001938:    f004f846    ..F.    BL       _SendStringToHOST ; 0x59c8
        0x0000193c:    b004        ..      ADD      sp,sp,#0x10
        0x0000193e:    bd80        ..      POP      {r7,pc}
    $d
    __arm_cp.11_0
        0x00001940:    20000106    ...     DCD    536871174
    __arm_cp.11_1
        0x00001944:    20000d48    H..     DCD    536874312
    $t
    CalErrorRate
        0x00001948:    b570        p.      PUSH     {r4-r6,lr}
        0x0000194a:    b086        ..      SUB      sp,sp,#0x18
        0x0000194c:    4957        WI      LDR      r1,[pc,#348] ; [0x1aac] = 0x20000cc8
        0x0000194e:    2000        .       MOVS     r0,#0
        0x00001950:    8008        ..      STRH     r0,[r1,#0]
        0x00001952:    4957        WI      LDR      r1,[pc,#348] ; [0x1ab0] = 0x20000c8a
        0x00001954:    8008        ..      STRH     r0,[r1,#0]
        0x00001956:    a904        ..      ADD      r1,sp,#0x10
        0x00001958:    7008        .p      STRB     r0,[r1,#0]
        0x0000195a:    e7ff        ..      B        0x195c ; CalErrorRate + 20
        0x0000195c:    a804        ..      ADD      r0,sp,#0x10
        0x0000195e:    7800        .x      LDRB     r0,[r0,#0]
        0x00001960:    280b        .(      CMP      r0,#0xb
        0x00001962:    dc17        ..      BGT      0x1994 ; CalErrorRate + 76
        0x00001964:    e7ff        ..      B        0x1966 ; CalErrorRate + 30
        0x00001966:    a804        ..      ADD      r0,sp,#0x10
        0x00001968:    7801        .x      LDRB     r1,[r0,#0]
        0x0000196a:    004a        J.      LSLS     r2,r1,#1
        0x0000196c:    4956        VI      LDR      r1,[pc,#344] ; [0x1ac8] = 0x200009a0
        0x0000196e:    5a8b        .Z      LDRH     r3,[r1,r2]
        0x00001970:    4a4e        NJ      LDR      r2,[pc,#312] ; [0x1aac] = 0x20000cc8
        0x00001972:    8811        ..      LDRH     r1,[r2,#0]
        0x00001974:    18c9        ..      ADDS     r1,r1,r3
        0x00001976:    8011        ..      STRH     r1,[r2,#0]
        0x00001978:    7800        .x      LDRB     r0,[r0,#0]
        0x0000197a:    0041        A.      LSLS     r1,r0,#1
        0x0000197c:    4853        SH      LDR      r0,[pc,#332] ; [0x1acc] = 0x200006b8
        0x0000197e:    5a42        BZ      LDRH     r2,[r0,r1]
        0x00001980:    494b        KI      LDR      r1,[pc,#300] ; [0x1ab0] = 0x20000c8a
        0x00001982:    8808        ..      LDRH     r0,[r1,#0]
        0x00001984:    1880        ..      ADDS     r0,r0,r2
        0x00001986:    8008        ..      STRH     r0,[r1,#0]
        0x00001988:    e7ff        ..      B        0x198a ; CalErrorRate + 66
        0x0000198a:    9804        ..      LDR      r0,[sp,#0x10]
        0x0000198c:    1c40        @.      ADDS     r0,r0,#1
        0x0000198e:    a904        ..      ADD      r1,sp,#0x10
        0x00001990:    7008        .p      STRB     r0,[r1,#0]
        0x00001992:    e7e3        ..      B        0x195c ; CalErrorRate + 20
        0x00001994:    4845        EH      LDR      r0,[pc,#276] ; [0x1aac] = 0x20000cc8
        0x00001996:    8800        ..      LDRH     r0,[r0,#0]
        0x00001998:    f7fefc47    ..G.    BL       __aeabi_ui2f ; 0x22a
        0x0000199c:    4945        EI      LDR      r1,[pc,#276] ; [0x1ab4] = 0x20001134
        0x0000199e:    9103        ..      STR      r1,[sp,#0xc]
        0x000019a0:    6008        .`      STR      r0,[r1,#0]
        0x000019a2:    4843        CH      LDR      r0,[pc,#268] ; [0x1ab0] = 0x20000c8a
        0x000019a4:    8800        ..      LDRH     r0,[r0,#0]
        0x000019a6:    f7fefc40    ..@.    BL       __aeabi_ui2f ; 0x22a
        0x000019aa:    9903        ..      LDR      r1,[sp,#0xc]
        0x000019ac:    4602        .F      MOV      r2,r0
        0x000019ae:    4842        BH      LDR      r0,[pc,#264] ; [0x1ab8] = 0x20001130
        0x000019b0:    6002        .`      STR      r2,[r0,#0]
        0x000019b2:    6800        .h      LDR      r0,[r0,#0]
        0x000019b4:    6809        .h      LDR      r1,[r1,#0]
        0x000019b6:    f7fefbfa    ....    BL       __aeabi_fdiv ; 0x1ae
        0x000019ba:    4601        .F      MOV      r1,r0
        0x000019bc:    483f        ?H      LDR      r0,[pc,#252] ; [0x1abc] = 0x200010bc
        0x000019be:    6001        .`      STR      r1,[r0,#0]
        0x000019c0:    6800        .h      LDR      r0,[r0,#0]
        0x000019c2:    493f        ?I      LDR      r1,[pc,#252] ; [0x1ac0] = 0x42c80000
        0x000019c4:    f7fefbb6    ....    BL       __aeabi_fmul ; 0x134
        0x000019c8:    f7fefc36    ..6.    BL       __aeabi_f2iz ; 0x238
        0x000019cc:    493d        =I      LDR      r1,[pc,#244] ; [0x1ac4] = 0x20000698
        0x000019ce:    7008        .p      STRB     r0,[r1,#0]
        0x000019d0:    a905        ..      ADD      r1,sp,#0x14
        0x000019d2:    2000        .       MOVS     r0,#0
        0x000019d4:    7008        .p      STRB     r0,[r1,#0]
        0x000019d6:    e7ff        ..      B        0x19d8 ; CalErrorRate + 144
        0x000019d8:    a805        ..      ADD      r0,sp,#0x14
        0x000019da:    7800        .x      LDRB     r0,[r0,#0]
        0x000019dc:    281e        .(      CMP      r0,#0x1e
        0x000019de:    dc62        b.      BGT      0x1aa6 ; CalErrorRate + 350
        0x000019e0:    e7ff        ..      B        0x19e2 ; CalErrorRate + 154
        0x000019e2:    a905        ..      ADD      r1,sp,#0x14
        0x000019e4:    7808        .x      LDRB     r0,[r1,#0]
        0x000019e6:    0043        C.      LSLS     r3,r0,#1
        0x000019e8:    4a30        0J      LDR      r2,[pc,#192] ; [0x1aac] = 0x20000cc8
        0x000019ea:    2000        .       MOVS     r0,#0
        0x000019ec:    52d0        .R      STRH     r0,[r2,r3]
        0x000019ee:    7809        .x      LDRB     r1,[r1,#0]
        0x000019f0:    004a        J.      LSLS     r2,r1,#1
        0x000019f2:    492f        /I      LDR      r1,[pc,#188] ; [0x1ab0] = 0x20000c8a
        0x000019f4:    5288        .R      STRH     r0,[r1,r2]
        0x000019f6:    a904        ..      ADD      r1,sp,#0x10
        0x000019f8:    7008        .p      STRB     r0,[r1,#0]
        0x000019fa:    e7ff        ..      B        0x19fc ; CalErrorRate + 180
        0x000019fc:    a804        ..      ADD      r0,sp,#0x10
        0x000019fe:    7800        .x      LDRB     r0,[r0,#0]
        0x00001a00:    280b        .(      CMP      r0,#0xb
        0x00001a02:    dc22        ".      BGT      0x1a4a ; CalErrorRate + 258
        0x00001a04:    e7ff        ..      B        0x1a06 ; CalErrorRate + 190
        0x00001a06:    a805        ..      ADD      r0,sp,#0x14
        0x00001a08:    7801        .x      LDRB     r1,[r0,#0]
        0x00001a0a:    2318        .#      MOVS     r3,#0x18
        0x00001a0c:    461c        .F      MOV      r4,r3
        0x00001a0e:    434c        LC      MULS     r4,r1,r4
        0x00001a10:    4a2d        -J      LDR      r2,[pc,#180] ; [0x1ac8] = 0x200009a0
        0x00001a12:    1914        ..      ADDS     r4,r2,r4
        0x00001a14:    aa04        ..      ADD      r2,sp,#0x10
        0x00001a16:    7815        .x      LDRB     r5,[r2,#0]
        0x00001a18:    006d        m.      LSLS     r5,r5,#1
        0x00001a1a:    5b66        f[      LDRH     r6,[r4,r5]
        0x00001a1c:    004d        M.      LSLS     r5,r1,#1
        0x00001a1e:    4c23        #L      LDR      r4,[pc,#140] ; [0x1aac] = 0x20000cc8
        0x00001a20:    5b61        a[      LDRH     r1,[r4,r5]
        0x00001a22:    1989        ..      ADDS     r1,r1,r6
        0x00001a24:    5361        aS      STRH     r1,[r4,r5]
        0x00001a26:    7800        .x      LDRB     r0,[r0,#0]
        0x00001a28:    4343        CC      MULS     r3,r0,r3
        0x00001a2a:    4928        (I      LDR      r1,[pc,#160] ; [0x1acc] = 0x200006b8
        0x00001a2c:    18c9        ..      ADDS     r1,r1,r3
        0x00001a2e:    7812        .x      LDRB     r2,[r2,#0]
        0x00001a30:    0052        R.      LSLS     r2,r2,#1
        0x00001a32:    5a8b        .Z      LDRH     r3,[r1,r2]
        0x00001a34:    0042        B.      LSLS     r2,r0,#1
        0x00001a36:    491e        .I      LDR      r1,[pc,#120] ; [0x1ab0] = 0x20000c8a
        0x00001a38:    5a88        .Z      LDRH     r0,[r1,r2]
        0x00001a3a:    18c0        ..      ADDS     r0,r0,r3
        0x00001a3c:    5288        .R      STRH     r0,[r1,r2]
        0x00001a3e:    e7ff        ..      B        0x1a40 ; CalErrorRate + 248
        0x00001a40:    9804        ..      LDR      r0,[sp,#0x10]
        0x00001a42:    1c40        @.      ADDS     r0,r0,#1
        0x00001a44:    a904        ..      ADD      r1,sp,#0x10
        0x00001a46:    7008        .p      STRB     r0,[r1,#0]
        0x00001a48:    e7d8        ..      B        0x19fc ; CalErrorRate + 180
        0x00001a4a:    a805        ..      ADD      r0,sp,#0x14
        0x00001a4c:    9002        ..      STR      r0,[sp,#8]
        0x00001a4e:    7800        .x      LDRB     r0,[r0,#0]
        0x00001a50:    0041        A.      LSLS     r1,r0,#1
        0x00001a52:    4816        .H      LDR      r0,[pc,#88] ; [0x1aac] = 0x20000cc8
        0x00001a54:    5a40        @Z      LDRH     r0,[r0,r1]
        0x00001a56:    f7fefbe8    ....    BL       __aeabi_ui2f ; 0x22a
        0x00001a5a:    4601        .F      MOV      r1,r0
        0x00001a5c:    9802        ..      LDR      r0,[sp,#8]
        0x00001a5e:    4a15        .J      LDR      r2,[pc,#84] ; [0x1ab4] = 0x20001134
        0x00001a60:    9201        ..      STR      r2,[sp,#4]
        0x00001a62:    6011        .`      STR      r1,[r2,#0]
        0x00001a64:    7800        .x      LDRB     r0,[r0,#0]
        0x00001a66:    0041        A.      LSLS     r1,r0,#1
        0x00001a68:    4811        .H      LDR      r0,[pc,#68] ; [0x1ab0] = 0x20000c8a
        0x00001a6a:    5a40        @Z      LDRH     r0,[r0,r1]
        0x00001a6c:    f7fefbdd    ....    BL       __aeabi_ui2f ; 0x22a
        0x00001a70:    9901        ..      LDR      r1,[sp,#4]
        0x00001a72:    4602        .F      MOV      r2,r0
        0x00001a74:    4810        .H      LDR      r0,[pc,#64] ; [0x1ab8] = 0x20001130
        0x00001a76:    6002        .`      STR      r2,[r0,#0]
        0x00001a78:    6800        .h      LDR      r0,[r0,#0]
        0x00001a7a:    6809        .h      LDR      r1,[r1,#0]
        0x00001a7c:    f7fefb97    ....    BL       __aeabi_fdiv ; 0x1ae
        0x00001a80:    4601        .F      MOV      r1,r0
        0x00001a82:    480e        .H      LDR      r0,[pc,#56] ; [0x1abc] = 0x200010bc
        0x00001a84:    6001        .`      STR      r1,[r0,#0]
        0x00001a86:    6800        .h      LDR      r0,[r0,#0]
        0x00001a88:    490d        .I      LDR      r1,[pc,#52] ; [0x1ac0] = 0x42c80000
        0x00001a8a:    f7fefb53    ..S.    BL       __aeabi_fmul ; 0x134
        0x00001a8e:    f7fefbd3    ....    BL       __aeabi_f2iz ; 0x238
        0x00001a92:    9902        ..      LDR      r1,[sp,#8]
        0x00001a94:    780a        .x      LDRB     r2,[r1,#0]
        0x00001a96:    490b        .I      LDR      r1,[pc,#44] ; [0x1ac4] = 0x20000698
        0x00001a98:    5488        .T      STRB     r0,[r1,r2]
        0x00001a9a:    e7ff        ..      B        0x1a9c ; CalErrorRate + 340
        0x00001a9c:    9805        ..      LDR      r0,[sp,#0x14]
        0x00001a9e:    1c40        @.      ADDS     r0,r0,#1
        0x00001aa0:    a905        ..      ADD      r1,sp,#0x14
        0x00001aa2:    7008        .p      STRB     r0,[r1,#0]
        0x00001aa4:    e798        ..      B        0x19d8 ; CalErrorRate + 144
        0x00001aa6:    b006        ..      ADD      sp,sp,#0x18
        0x00001aa8:    bd70        p.      POP      {r4-r6,pc}
        0x00001aaa:    46c0        .F      MOV      r8,r8
    $d
    __arm_cp.27_0
        0x00001aac:    20000cc8    ...     DCD    536874184
    __arm_cp.27_1
        0x00001ab0:    20000c8a    ...     DCD    536874122
    __arm_cp.27_2
        0x00001ab4:    20001134    4..     DCD    536875316
    __arm_cp.27_3
        0x00001ab8:    20001130    0..     DCD    536875312
    __arm_cp.27_4
        0x00001abc:    200010bc    ...     DCD    536875196
    __arm_cp.27_5
        0x00001ac0:    42c80000    ...B    DCD    1120403456
    __arm_cp.27_6
        0x00001ac4:    20000698    ...     DCD    536872600
    __arm_cp.27_7
        0x00001ac8:    200009a0    ...     DCD    536873376
    __arm_cp.27_8
        0x00001acc:    200006b8    ...     DCD    536872632
    $t
    ChangeRS485Direct
        0x00001ad0:    b580        ..      PUSH     {r7,lr}
        0x00001ad2:    480f        .H      LDR      r0,[pc,#60] ; [0x1b10] = 0x200010c4
        0x00001ad4:    7800        .x      LDRB     r0,[r0,#0]
        0x00001ad6:    2101        .!      MOVS     r1,#1
        0x00001ad8:    4008        .@      ANDS     r0,r0,r1
        0x00001ada:    2801        .(      CMP      r0,#1
        0x00001adc:    db16        ..      BLT      0x1b0c ; ChangeRS485Direct + 60
        0x00001ade:    e7ff        ..      B        0x1ae0 ; ChangeRS485Direct + 16
        0x00001ae0:    480c        .H      LDR      r0,[pc,#48] ; [0x1b14] = 0x20000101
        0x00001ae2:    7800        .x      LDRB     r0,[r0,#0]
        0x00001ae4:    2800        .(      CMP      r0,#0
        0x00001ae6:    d111        ..      BNE      0x1b0c ; ChangeRS485Direct + 60
        0x00001ae8:    e7ff        ..      B        0x1aea ; ChangeRS485Direct + 26
        0x00001aea:    480b        .H      LDR      r0,[pc,#44] ; [0x1b18] = 0x20000f72
        0x00001aec:    8801        ..      LDRH     r1,[r0,#0]
        0x00001aee:    1c49        I.      ADDS     r1,r1,#1
        0x00001af0:    8001        ..      STRH     r1,[r0,#0]
        0x00001af2:    8800        ..      LDRH     r0,[r0,#0]
        0x00001af4:    2865        e(      CMP      r0,#0x65
        0x00001af6:    db08        ..      BLT      0x1b0a ; ChangeRS485Direct + 58
        0x00001af8:    e7ff        ..      B        0x1afa ; ChangeRS485Direct + 42
        0x00001afa:    4905        .I      LDR      r1,[pc,#20] ; [0x1b10] = 0x200010c4
        0x00001afc:    2000        .       MOVS     r0,#0
        0x00001afe:    7008        .p      STRB     r0,[r1,#0]
        0x00001b00:    4905        .I      LDR      r1,[pc,#20] ; [0x1b18] = 0x20000f72
        0x00001b02:    8008        ..      STRH     r0,[r1,#0]
        0x00001b04:    f000fb4e    ..N.    BL       DisableHostUartTx ; 0x21a4
        0x00001b08:    e7ff        ..      B        0x1b0a ; ChangeRS485Direct + 58
        0x00001b0a:    e7ff        ..      B        0x1b0c ; ChangeRS485Direct + 60
        0x00001b0c:    bd80        ..      POP      {r7,pc}
        0x00001b0e:    46c0        .F      MOV      r8,r8
    $d
    __arm_cp.26_0
        0x00001b10:    200010c4    ...     DCD    536875204
    __arm_cp.26_1
        0x00001b14:    20000101    ...     DCD    536871169
    __arm_cp.26_2
        0x00001b18:    20000f72    r..     DCD    536874866
    $t
    CheckRoomMode
        0x00001b1c:    b081        ..      SUB      sp,sp,#4
        0x00001b1e:    4871        qH      LDR      r0,[pc,#452] ; [0x1ce4] = 0x20000f6c
        0x00001b20:    8800        ..      LDRH     r0,[r0,#0]
        0x00001b22:    2831        1(      CMP      r0,#0x31
        0x00001b24:    dc01        ..      BGT      0x1b2a ; CheckRoomMode + 14
        0x00001b26:    e7ff        ..      B        0x1b28 ; CheckRoomMode + 12
        0x00001b28:    e0da        ..      B        0x1ce0 ; CheckRoomMode + 452
        0x00001b2a:    496e        nI      LDR      r1,[pc,#440] ; [0x1ce4] = 0x20000f6c
        0x00001b2c:    2000        .       MOVS     r0,#0
        0x00001b2e:    8008        ..      STRH     r0,[r1,#0]
        0x00001b30:    4669        iF      MOV      r1,sp
        0x00001b32:    7008        .p      STRB     r0,[r1,#0]
        0x00001b34:    e7ff        ..      B        0x1b36 ; CheckRoomMode + 26
        0x00001b36:    4668        hF      MOV      r0,sp
        0x00001b38:    7800        .x      LDRB     r0,[r0,#0]
        0x00001b3a:    496b        kI      LDR      r1,[pc,#428] ; [0x1ce8] = 0x20000238
        0x00001b3c:    7809        .x      LDRB     r1,[r1,#0]
        0x00001b3e:    4288        .B      CMP      r0,r1
        0x00001b40:    da56        V.      BGE      0x1bf0 ; CheckRoomMode + 212
        0x00001b42:    e7ff        ..      B        0x1b44 ; CheckRoomMode + 40
        0x00001b44:    4668        hF      MOV      r0,sp
        0x00001b46:    7802        .x      LDRB     r2,[r0,#0]
        0x00001b48:    486c        lH      LDR      r0,[pc,#432] ; [0x1cfc] = 0x200001e9
        0x00001b4a:    5c80        .\      LDRB     r0,[r0,r2]
        0x00001b4c:    4968        hI      LDR      r1,[pc,#416] ; [0x1cf0] = 0x20000f27
        0x00001b4e:    5c89        .\      LDRB     r1,[r1,r2]
        0x00001b50:    4288        .B      CMP      r0,r1
        0x00001b52:    d106        ..      BNE      0x1b62 ; CheckRoomMode + 70
        0x00001b54:    e7ff        ..      B        0x1b56 ; CheckRoomMode + 58
        0x00001b56:    4668        hF      MOV      r0,sp
        0x00001b58:    7802        .x      LDRB     r2,[r0,#0]
        0x00001b5a:    4969        iI      LDR      r1,[pc,#420] ; [0x1d00] = 0x20000f46
        0x00001b5c:    2000        .       MOVS     r0,#0
        0x00001b5e:    5488        .T      STRB     r0,[r1,r2]
        0x00001b60:    e040        @.      B        0x1be4 ; CheckRoomMode + 200
        0x00001b62:    4669        iF      MOV      r1,sp
        0x00001b64:    780b        .x      LDRB     r3,[r1,#0]
        0x00001b66:    4866        fH      LDR      r0,[pc,#408] ; [0x1d00] = 0x20000f46
        0x00001b68:    5cc2        .\      LDRB     r2,[r0,r3]
        0x00001b6a:    1c52        R.      ADDS     r2,r2,#1
        0x00001b6c:    54c2        .T      STRB     r2,[r0,r3]
        0x00001b6e:    7809        .x      LDRB     r1,[r1,#0]
        0x00001b70:    5c40        @\      LDRB     r0,[r0,r1]
        0x00001b72:    2806        .(      CMP      r0,#6
        0x00001b74:    db35        5.      BLT      0x1be2 ; CheckRoomMode + 198
        0x00001b76:    e7ff        ..      B        0x1b78 ; CheckRoomMode + 92
        0x00001b78:    4668        hF      MOV      r0,sp
        0x00001b7a:    7803        .x      LDRB     r3,[r0,#0]
        0x00001b7c:    4a60        `J      LDR      r2,[pc,#384] ; [0x1d00] = 0x20000f46
        0x00001b7e:    2100        .!      MOVS     r1,#0
        0x00001b80:    54d1        .T      STRB     r1,[r2,r3]
        0x00001b82:    7801        .x      LDRB     r1,[r0,#0]
        0x00001b84:    485a        ZH      LDR      r0,[pc,#360] ; [0x1cf0] = 0x20000f27
        0x00001b86:    5c40        @\      LDRB     r0,[r0,r1]
        0x00001b88:    2803        .(      CMP      r0,#3
        0x00001b8a:    d109        ..      BNE      0x1ba0 ; CheckRoomMode + 132
        0x00001b8c:    e7ff        ..      B        0x1b8e ; CheckRoomMode + 114
        0x00001b8e:    4668        hF      MOV      r0,sp
        0x00001b90:    7802        .x      LDRB     r2,[r0,#0]
        0x00001b92:    4959        YI      LDR      r1,[pc,#356] ; [0x1cf8] = 0x20000d28
        0x00001b94:    2009        .       MOVS     r0,#9
        0x00001b96:    5488        .T      STRB     r0,[r1,r2]
        0x00001b98:    4954        TI      LDR      r1,[pc,#336] ; [0x1cec] = 0x20000f68
        0x00001b9a:    2000        .       MOVS     r0,#0
        0x00001b9c:    7008        .p      STRB     r0,[r1,#0]
        0x00001b9e:    e019        ..      B        0x1bd4 ; CheckRoomMode + 184
        0x00001ba0:    4668        hF      MOV      r0,sp
        0x00001ba2:    7801        .x      LDRB     r1,[r0,#0]
        0x00001ba4:    4852        RH      LDR      r0,[pc,#328] ; [0x1cf0] = 0x20000f27
        0x00001ba6:    5c40        @\      LDRB     r0,[r0,r1]
        0x00001ba8:    2804        .(      CMP      r0,#4
        0x00001baa:    d109        ..      BNE      0x1bc0 ; CheckRoomMode + 164
        0x00001bac:    e7ff        ..      B        0x1bae ; CheckRoomMode + 146
        0x00001bae:    4668        hF      MOV      r0,sp
        0x00001bb0:    7802        .x      LDRB     r2,[r0,#0]
        0x00001bb2:    4951        QI      LDR      r1,[pc,#324] ; [0x1cf8] = 0x20000d28
        0x00001bb4:    200a        .       MOVS     r0,#0xa
        0x00001bb6:    5488        .T      STRB     r0,[r1,r2]
        0x00001bb8:    494c        LI      LDR      r1,[pc,#304] ; [0x1cec] = 0x20000f68
        0x00001bba:    2000        .       MOVS     r0,#0
        0x00001bbc:    7008        .p      STRB     r0,[r1,#0]
        0x00001bbe:    e008        ..      B        0x1bd2 ; CheckRoomMode + 182
        0x00001bc0:    4668        hF      MOV      r0,sp
        0x00001bc2:    7802        .x      LDRB     r2,[r0,#0]
        0x00001bc4:    494c        LI      LDR      r1,[pc,#304] ; [0x1cf8] = 0x20000d28
        0x00001bc6:    200b        .       MOVS     r0,#0xb
        0x00001bc8:    5488        .T      STRB     r0,[r1,r2]
        0x00001bca:    4948        HI      LDR      r1,[pc,#288] ; [0x1cec] = 0x20000f68
        0x00001bcc:    2000        .       MOVS     r0,#0
        0x00001bce:    7008        .p      STRB     r0,[r1,#0]
        0x00001bd0:    e7ff        ..      B        0x1bd2 ; CheckRoomMode + 182
        0x00001bd2:    e7ff        ..      B        0x1bd4 ; CheckRoomMode + 184
        0x00001bd4:    4668        hF      MOV      r0,sp
        0x00001bd6:    7802        .x      LDRB     r2,[r0,#0]
        0x00001bd8:    4845        EH      LDR      r0,[pc,#276] ; [0x1cf0] = 0x20000f27
        0x00001bda:    5c80        .\      LDRB     r0,[r0,r2]
        0x00001bdc:    4947        GI      LDR      r1,[pc,#284] ; [0x1cfc] = 0x200001e9
        0x00001bde:    5488        .T      STRB     r0,[r1,r2]
        0x00001be0:    e7ff        ..      B        0x1be2 ; CheckRoomMode + 198
        0x00001be2:    e7ff        ..      B        0x1be4 ; CheckRoomMode + 200
        0x00001be4:    e7ff        ..      B        0x1be6 ; CheckRoomMode + 202
        0x00001be6:    9800        ..      LDR      r0,[sp,#0]
        0x00001be8:    1c40        @.      ADDS     r0,r0,#1
        0x00001bea:    4669        iF      MOV      r1,sp
        0x00001bec:    7008        .p      STRB     r0,[r1,#0]
        0x00001bee:    e7a2        ..      B        0x1b36 ; CheckRoomMode + 26
        0x00001bf0:    483e        >H      LDR      r0,[pc,#248] ; [0x1cec] = 0x20000f68
        0x00001bf2:    7800        .x      LDRB     r0,[r0,#0]
        0x00001bf4:    2813        .(      CMP      r0,#0x13
        0x00001bf6:    dc01        ..      BGT      0x1bfc ; CheckRoomMode + 224
        0x00001bf8:    e7ff        ..      B        0x1bfa ; CheckRoomMode + 222
        0x00001bfa:    e071        q.      B        0x1ce0 ; CheckRoomMode + 452
        0x00001bfc:    493b        ;I      LDR      r1,[pc,#236] ; [0x1cec] = 0x20000f68
        0x00001bfe:    2000        .       MOVS     r0,#0
        0x00001c00:    7008        .p      STRB     r0,[r1,#0]
        0x00001c02:    4669        iF      MOV      r1,sp
        0x00001c04:    7008        .p      STRB     r0,[r1,#0]
        0x00001c06:    e7ff        ..      B        0x1c08 ; CheckRoomMode + 236
        0x00001c08:    4668        hF      MOV      r0,sp
        0x00001c0a:    7800        .x      LDRB     r0,[r0,#0]
        0x00001c0c:    4936        6I      LDR      r1,[pc,#216] ; [0x1ce8] = 0x20000238
        0x00001c0e:    7809        .x      LDRB     r1,[r1,#0]
        0x00001c10:    4288        .B      CMP      r0,r1
        0x00001c12:    da65        e.      BGE      0x1ce0 ; CheckRoomMode + 452
        0x00001c14:    e7ff        ..      B        0x1c16 ; CheckRoomMode + 250
        0x00001c16:    4668        hF      MOV      r0,sp
        0x00001c18:    7801        .x      LDRB     r1,[r0,#0]
        0x00001c1a:    4835        5H      LDR      r0,[pc,#212] ; [0x1cf0] = 0x20000f27
        0x00001c1c:    5c40        @\      LDRB     r0,[r0,r1]
        0x00001c1e:    2803        .(      CMP      r0,#3
        0x00001c20:    d119        ..      BNE      0x1c56 ; CheckRoomMode + 314
        0x00001c22:    e7ff        ..      B        0x1c24 ; CheckRoomMode + 264
        0x00001c24:    4668        hF      MOV      r0,sp
        0x00001c26:    7800        .x      LDRB     r0,[r0,#0]
        0x00001c28:    2124        $!      MOVS     r1,#0x24
        0x00001c2a:    4341        AC      MULS     r1,r0,r1
        0x00001c2c:    4831        1H      LDR      r0,[pc,#196] ; [0x1cf4] = 0x2000023c
        0x00001c2e:    5c40        @\      LDRB     r0,[r0,r1]
        0x00001c30:    2802        .(      CMP      r0,#2
        0x00001c32:    d009        ..      BEQ      0x1c48 ; CheckRoomMode + 300
        0x00001c34:    e7ff        ..      B        0x1c36 ; CheckRoomMode + 282
        0x00001c36:    4668        hF      MOV      r0,sp
        0x00001c38:    7800        .x      LDRB     r0,[r0,#0]
        0x00001c3a:    2124        $!      MOVS     r1,#0x24
        0x00001c3c:    4341        AC      MULS     r1,r0,r1
        0x00001c3e:    482d        -H      LDR      r0,[pc,#180] ; [0x1cf4] = 0x2000023c
        0x00001c40:    5c40        @\      LDRB     r0,[r0,r1]
        0x00001c42:    2800        .(      CMP      r0,#0
        0x00001c44:    d106        ..      BNE      0x1c54 ; CheckRoomMode + 312
        0x00001c46:    e7ff        ..      B        0x1c48 ; CheckRoomMode + 300
        0x00001c48:    4668        hF      MOV      r0,sp
        0x00001c4a:    7802        .x      LDRB     r2,[r0,#0]
        0x00001c4c:    492a        *I      LDR      r1,[pc,#168] ; [0x1cf8] = 0x20000d28
        0x00001c4e:    2009        .       MOVS     r0,#9
        0x00001c50:    5488        .T      STRB     r0,[r1,r2]
        0x00001c52:    e7ff        ..      B        0x1c54 ; CheckRoomMode + 312
        0x00001c54:    e7ff        ..      B        0x1c56 ; CheckRoomMode + 314
        0x00001c56:    4668        hF      MOV      r0,sp
        0x00001c58:    7801        .x      LDRB     r1,[r0,#0]
        0x00001c5a:    4825        %H      LDR      r0,[pc,#148] ; [0x1cf0] = 0x20000f27
        0x00001c5c:    5c40        @\      LDRB     r0,[r0,r1]
        0x00001c5e:    2804        .(      CMP      r0,#4
        0x00001c60:    d119        ..      BNE      0x1c96 ; CheckRoomMode + 378
        0x00001c62:    e7ff        ..      B        0x1c64 ; CheckRoomMode + 328
        0x00001c64:    4668        hF      MOV      r0,sp
        0x00001c66:    7800        .x      LDRB     r0,[r0,#0]
        0x00001c68:    2124        $!      MOVS     r1,#0x24
        0x00001c6a:    4341        AC      MULS     r1,r0,r1
        0x00001c6c:    4821        !H      LDR      r0,[pc,#132] ; [0x1cf4] = 0x2000023c
        0x00001c6e:    5c40        @\      LDRB     r0,[r0,r1]
        0x00001c70:    2801        .(      CMP      r0,#1
        0x00001c72:    d009        ..      BEQ      0x1c88 ; CheckRoomMode + 364
        0x00001c74:    e7ff        ..      B        0x1c76 ; CheckRoomMode + 346
        0x00001c76:    4668        hF      MOV      r0,sp
        0x00001c78:    7800        .x      LDRB     r0,[r0,#0]
        0x00001c7a:    2124        $!      MOVS     r1,#0x24
        0x00001c7c:    4341        AC      MULS     r1,r0,r1
        0x00001c7e:    481d        .H      LDR      r0,[pc,#116] ; [0x1cf4] = 0x2000023c
        0x00001c80:    5c40        @\      LDRB     r0,[r0,r1]
        0x00001c82:    2800        .(      CMP      r0,#0
        0x00001c84:    d106        ..      BNE      0x1c94 ; CheckRoomMode + 376
        0x00001c86:    e7ff        ..      B        0x1c88 ; CheckRoomMode + 364
        0x00001c88:    4668        hF      MOV      r0,sp
        0x00001c8a:    7802        .x      LDRB     r2,[r0,#0]
        0x00001c8c:    491a        .I      LDR      r1,[pc,#104] ; [0x1cf8] = 0x20000d28
        0x00001c8e:    200a        .       MOVS     r0,#0xa
        0x00001c90:    5488        .T      STRB     r0,[r1,r2]
        0x00001c92:    e7ff        ..      B        0x1c94 ; CheckRoomMode + 376
        0x00001c94:    e7ff        ..      B        0x1c96 ; CheckRoomMode + 378
        0x00001c96:    4668        hF      MOV      r0,sp
        0x00001c98:    7801        .x      LDRB     r1,[r0,#0]
        0x00001c9a:    4815        .H      LDR      r0,[pc,#84] ; [0x1cf0] = 0x20000f27
        0x00001c9c:    5c40        @\      LDRB     r0,[r0,r1]
        0x00001c9e:    2801        .(      CMP      r0,#1
        0x00001ca0:    d007        ..      BEQ      0x1cb2 ; CheckRoomMode + 406
        0x00001ca2:    e7ff        ..      B        0x1ca4 ; CheckRoomMode + 392
        0x00001ca4:    4668        hF      MOV      r0,sp
        0x00001ca6:    7801        .x      LDRB     r1,[r0,#0]
        0x00001ca8:    4811        .H      LDR      r0,[pc,#68] ; [0x1cf0] = 0x20000f27
        0x00001caa:    5c40        @\      LDRB     r0,[r0,r1]
        0x00001cac:    2802        .(      CMP      r0,#2
        0x00001cae:    d111        ..      BNE      0x1cd4 ; CheckRoomMode + 440
        0x00001cb0:    e7ff        ..      B        0x1cb2 ; CheckRoomMode + 406
        0x00001cb2:    4668        hF      MOV      r0,sp
        0x00001cb4:    7800        .x      LDRB     r0,[r0,#0]
        0x00001cb6:    2124        $!      MOVS     r1,#0x24
        0x00001cb8:    4341        AC      MULS     r1,r0,r1
        0x00001cba:    480e        .H      LDR      r0,[pc,#56] ; [0x1cf4] = 0x2000023c
        0x00001cbc:    1840        @.      ADDS     r0,r0,r1
        0x00001cbe:    7840        @x      LDRB     r0,[r0,#1]
        0x00001cc0:    2800        .(      CMP      r0,#0
        0x00001cc2:    d106        ..      BNE      0x1cd2 ; CheckRoomMode + 438
        0x00001cc4:    e7ff        ..      B        0x1cc6 ; CheckRoomMode + 426
        0x00001cc6:    4668        hF      MOV      r0,sp
        0x00001cc8:    7802        .x      LDRB     r2,[r0,#0]
        0x00001cca:    490b        .I      LDR      r1,[pc,#44] ; [0x1cf8] = 0x20000d28
        0x00001ccc:    200b        .       MOVS     r0,#0xb
        0x00001cce:    5488        .T      STRB     r0,[r1,r2]
        0x00001cd0:    e7ff        ..      B        0x1cd2 ; CheckRoomMode + 438
        0x00001cd2:    e7ff        ..      B        0x1cd4 ; CheckRoomMode + 440
        0x00001cd4:    e7ff        ..      B        0x1cd6 ; CheckRoomMode + 442
        0x00001cd6:    9800        ..      LDR      r0,[sp,#0]
        0x00001cd8:    1c40        @.      ADDS     r0,r0,#1
        0x00001cda:    4669        iF      MOV      r1,sp
        0x00001cdc:    7008        .p      STRB     r0,[r1,#0]
        0x00001cde:    e793        ..      B        0x1c08 ; CheckRoomMode + 236
        0x00001ce0:    b001        ..      ADD      sp,sp,#4
        0x00001ce2:    4770        pG      BX       lr
    $d
    __arm_cp.28_0
        0x00001ce4:    20000f6c    l..     DCD    536874860
    __arm_cp.28_1
        0x00001ce8:    20000238    8..     DCD    536871480
    __arm_cp.28_2
        0x00001cec:    20000f68    h..     DCD    536874856
    __arm_cp.28_3
        0x00001cf0:    20000f27    '..     DCD    536874791
    __arm_cp.28_4
        0x00001cf4:    2000023c    <..     DCD    536871484
    __arm_cp.28_5
        0x00001cf8:    20000d28    (..     DCD    536874280
    __arm_cp.28_6
        0x00001cfc:    200001e9    ...     DCD    536871401
    __arm_cp.28_7
        0x00001d00:    20000f46    F..     DCD    536874822
    $t
    ClearRespDelayTimer
        0x00001d04:    4904        .I      LDR      r1,[pc,#16] ; [0x1d18] = 0x20001060
        0x00001d06:    2001        .       MOVS     r0,#1
        0x00001d08:    7008        .p      STRB     r0,[r1,#0]
        0x00001d0a:    4904        .I      LDR      r1,[pc,#16] ; [0x1d1c] = 0x200010b8
        0x00001d0c:    7008        .p      STRB     r0,[r1,#0]
        0x00001d0e:    4904        .I      LDR      r1,[pc,#16] ; [0x1d20] = 0x200010ef
        0x00001d10:    2000        .       MOVS     r0,#0
        0x00001d12:    7008        .p      STRB     r0,[r1,#0]
        0x00001d14:    4770        pG      BX       lr
        0x00001d16:    46c0        .F      MOV      r8,r8
    $d
    __arm_cp.3_0
        0x00001d18:    20001060    `..     DCD    536875104
    __arm_cp.3_1
        0x00001d1c:    200010b8    ...     DCD    536875192
    __arm_cp.3_2
        0x00001d20:    200010ef    ...     DCD    536875247
    $t
    CmdModBus_BAW2A
        0x00001d24:    b580        ..      PUSH     {r7,lr}
        0x00001d26:    b082        ..      SUB      sp,sp,#8
        0x00001d28:    4601        .F      MOV      r1,r0
        0x00001d2a:    a801        ..      ADD      r0,sp,#4
        0x00001d2c:    7001        .p      STRB     r1,[r0,#0]
        0x00001d2e:    7800        .x      LDRB     r0,[r0,#0]
        0x00001d30:    9000        ..      STR      r0,[sp,#0]
        0x00001d32:    2818        .(      CMP      r0,#0x18
        0x00001d34:    d879        y.      BHI      0x1e2a ; CmdModBus_BAW2A + 262
        0x00001d36:    9800        ..      LDR      r0,[sp,#0]
        0x00001d38:    0081        ..      LSLS     r1,r0,#2
        0x00001d3a:    a001        ..      ADR      r0,{pc}+6 ; 0x1d40
        0x00001d3c:    5840        @X      LDR      r0,[r0,r1]
        0x00001d3e:    4687        .F      MOV      pc,r0
    $d
        0x00001d40:    00001da5    ....    DCD    7589
        0x00001d44:    00001dad    ....    DCD    7597
        0x00001d48:    00001dbf    ....    DCD    7615
        0x00001d4c:    00001dc5    ....    DCD    7621
        0x00001d50:    00001dcb    ....    DCD    7627
        0x00001d54:    00001db3    ....    DCD    7603
        0x00001d58:    00001e2b    +...    DCD    7723
        0x00001d5c:    00001e2b    +...    DCD    7723
        0x00001d60:    00001dd1    ....    DCD    7633
        0x00001d64:    00001e2b    +...    DCD    7723
        0x00001d68:    00001ddd    ....    DCD    7645
        0x00001d6c:    00001dd7    ....    DCD    7639
        0x00001d70:    00001db9    ....    DCD    7609
        0x00001d74:    00001de3    ....    DCD    7651
        0x00001d78:    00001de9    ....    DCD    7657
        0x00001d7c:    00001def    ....    DCD    7663
        0x00001d80:    00001df5    ....    DCD    7669
        0x00001d84:    00001dfb    ....    DCD    7675
        0x00001d88:    00001e01    ....    DCD    7681
        0x00001d8c:    00001e19    ....    DCD    7705
        0x00001d90:    00001e1f    ....    DCD    7711
        0x00001d94:    00001e25    %...    DCD    7717
        0x00001d98:    00001e0d    ....    DCD    7693
        0x00001d9c:    00001e07    ....    DCD    7687
        0x00001da0:    00001e13    ....    DCD    7699
    $t
        0x00001da4:    49a1        .I      LDR      r1,[pc,#644] ; [0x202c] = 0x20000d47
        0x00001da6:    2000        .       MOVS     r0,#0
        0x00001da8:    7008        .p      STRB     r0,[r1,#0]
        0x00001daa:    e042        B.      B        0x1e32 ; CmdModBus_BAW2A + 270
        0x00001dac:    f7fefee8    ....    BL       BAW2A_GetWatt ; 0xb80
        0x00001db0:    e03f        ?.      B        0x1e32 ; CmdModBus_BAW2A + 270
        0x00001db2:    f7fefea3    ....    BL       BAW2A_GetRelayStatus ; 0xafc
        0x00001db6:    e03c        <.      B        0x1e32 ; CmdModBus_BAW2A + 270
        0x00001db8:    f7fefe3e    ..>.    BL       BAW2A_GetBalance ; 0xa38
        0x00001dbc:    e039        9.      B        0x1e32 ; CmdModBus_BAW2A + 270
        0x00001dbe:    f7fff8c5    ....    BL       BAW2A_SetRelay ; 0xf4c
        0x00001dc2:    e036        6.      B        0x1e32 ; CmdModBus_BAW2A + 270
        0x00001dc4:    f7feffd2    ....    BL       BAW2A_SetAddr ; 0xd6c
        0x00001dc8:    e033        3.      B        0x1e32 ; CmdModBus_BAW2A + 270
        0x00001dca:    f7feffff    ....    BL       BAW2A_SetBuadrate ; 0xdcc
        0x00001dce:    e030        0.      B        0x1e32 ; CmdModBus_BAW2A + 270
        0x00001dd0:    f7fff82c    ..,.    BL       BAW2A_SetPassword ; 0xe2c
        0x00001dd4:    e02d        -.      B        0x1e32 ; CmdModBus_BAW2A + 270
        0x00001dd6:    f7fefde1    ....    BL       BAW2A_AddBalance ; 0x99c
        0x00001dda:    e02a        *.      B        0x1e32 ; CmdModBus_BAW2A + 270
        0x00001ddc:    f7fefe08    ....    BL       BAW2A_ExitTestMode ; 0x9f0
        0x00001de0:    e027        '.      B        0x1e32 ; CmdModBus_BAW2A + 270
        0x00001de2:    f7feff9b    ....    BL       BAW2A_Get_V ; 0xd1c
        0x00001de6:    e024        $.      B        0x1e32 ; CmdModBus_BAW2A + 270
        0x00001de8:    f7feff0c    ....    BL       BAW2A_Get_I ; 0xc04
        0x00001dec:    e021        !.      B        0x1e32 ; CmdModBus_BAW2A + 270
        0x00001dee:    f7fefee9    ....    BL       BAW2A_Get_F ; 0xbc4
        0x00001df2:    e01e        ..      B        0x1e32 ; CmdModBus_BAW2A + 270
        0x00001df4:    f7feff26    ..&.    BL       BAW2A_Get_P ; 0xc44
        0x00001df8:    e01b        ..      B        0x1e32 ; CmdModBus_BAW2A + 270
        0x00001dfa:    f7feff67    ..g.    BL       BAW2A_Get_S ; 0xccc
        0x00001dfe:    e018        ..      B        0x1e32 ; CmdModBus_BAW2A + 270
        0x00001e00:    f7feff40    ..@.    BL       BAW2A_Get_PF ; 0xc84
        0x00001e04:    e015        ..      B        0x1e32 ; CmdModBus_BAW2A + 270
        0x00001e06:    f7fff843    ..C.    BL       BAW2A_SetPayMode ; 0xe90
        0x00001e0a:    e012        ..      B        0x1e32 ; CmdModBus_BAW2A + 270
        0x00001e0c:    f7fff86e    ..n.    BL       BAW2A_SetPowerOn ; 0xeec
        0x00001e10:    e00f        ..      B        0x1e32 ; CmdModBus_BAW2A + 270
        0x00001e12:    f7fff8d5    ....    BL       BAW2A_SetTime ; 0xfc0
        0x00001e16:    e00c        ..      B        0x1e32 ; CmdModBus_BAW2A + 270
        0x00001e18:    f7fefe50    ..P.    BL       BAW2A_GetPayMode ; 0xabc
        0x00001e1c:    e009        ..      B        0x1e32 ; CmdModBus_BAW2A + 270
        0x00001e1e:    f7fefe8f    ....    BL       BAW2A_GetStatus ; 0xb40
        0x00001e22:    e006        ..      B        0x1e32 ; CmdModBus_BAW2A + 270
        0x00001e24:    f7fefe2a    ..*.    BL       BAW2A_GetCardID ; 0xa7c
        0x00001e28:    e003        ..      B        0x1e32 ; CmdModBus_BAW2A + 270
        0x00001e2a:    49d6        .I      LDR      r1,[pc,#856] ; [0x2184] = 0x20000d06
        0x00001e2c:    201a        .       MOVS     r0,#0x1a
        0x00001e2e:    7008        .p      STRB     r0,[r1,#0]
        0x00001e30:    e7ff        ..      B        0x1e32 ; CmdModBus_BAW2A + 270
        0x00001e32:    b002        ..      ADD      sp,sp,#8
        0x00001e34:    bd80        ..      POP      {r7,pc}
        0x00001e36:    46c0        .F      MOV      r8,r8
    CmdModBus_DEM5x0
        0x00001e38:    b580        ..      PUSH     {r7,lr}
        0x00001e3a:    b08a        ..      SUB      sp,sp,#0x28
        0x00001e3c:    4601        .F      MOV      r1,r0
        0x00001e3e:    a809        ..      ADD      r0,sp,#0x24
        0x00001e40:    7001        .p      STRB     r1,[r0,#0]
        0x00001e42:    7800        .x      LDRB     r0,[r0,#0]
        0x00001e44:    9008        ..      STR      r0,[sp,#0x20]
        0x00001e46:    2809        .(      CMP      r0,#9
        0x00001e48:    d900        ..      BLS      0x1e4c ; CmdModBus_DEM5x0 + 20
        0x00001e4a:    e0e8        ..      B        0x201e ; CmdModBus_DEM5x0 + 486
        0x00001e4c:    9808        ..      LDR      r0,[sp,#0x20]
        0x00001e4e:    0081        ..      LSLS     r1,r0,#2
        0x00001e50:    a001        ..      ADR      r0,{pc}+8 ; 0x1e58
        0x00001e52:    5840        @X      LDR      r0,[r0,r1]
        0x00001e54:    4687        .F      MOV      pc,r0
        0x00001e56:    46c0        .F      MOV      r8,r8
    $d
        0x00001e58:    00001e81    ....    DCD    7809
        0x00001e5c:    00001e89    ....    DCD    7817
        0x00001e60:    00001efd    ....    DCD    7933
        0x00001e64:    00001f33    3...    DCD    7987
        0x00001e68:    00001f77    w...    DCD    8055
        0x00001e6c:    00001ec3    ....    DCD    7875
        0x00001e70:    0000201f    . ..    DCD    8223
        0x00001e74:    0000201f    . ..    DCD    8223
        0x00001e78:    00001faf    ....    DCD    8111
        0x00001e7c:    00001fe7    ....    DCD    8167
    $t
        0x00001e80:    49c7        .I      LDR      r1,[pc,#796] ; [0x21a0] = 0x20000d47
        0x00001e82:    2000        .       MOVS     r0,#0
        0x00001e84:    7008        .p      STRB     r0,[r1,#0]
        0x00001e86:    e0ce        ..      B        0x2026 ; CmdModBus_DEM5x0 + 494
        0x00001e88:    49be        .I      LDR      r1,[pc,#760] ; [0x2184] = 0x20000d06
        0x00001e8a:    2001        .       MOVS     r0,#1
        0x00001e8c:    7008        .p      STRB     r0,[r1,#0]
        0x00001e8e:    49c3        .I      LDR      r1,[pc,#780] ; [0x219c] = 0x200010b9
        0x00001e90:    7008        .p      STRB     r0,[r1,#0]
        0x00001e92:    48bd        .H      LDR      r0,[pc,#756] ; [0x2188] = 0x20000d0d
        0x00001e94:    9007        ..      STR      r0,[sp,#0x1c]
        0x00001e96:    2103        .!      MOVS     r1,#3
        0x00001e98:    7041        Ap      STRB     r1,[r0,#1]
        0x00001e9a:    2100        .!      MOVS     r1,#0
        0x00001e9c:    7081        .p      STRB     r1,[r0,#2]
        0x00001e9e:    70c1        .p      STRB     r1,[r0,#3]
        0x00001ea0:    7101        .q      STRB     r1,[r0,#4]
        0x00001ea2:    2102        .!      MOVS     r1,#2
        0x00001ea4:    7141        Aq      STRB     r1,[r0,#5]
        0x00001ea6:    2106        .!      MOVS     r1,#6
        0x00001ea8:    f7fffc50    ..P.    BL       CRC16 ; 0x174c
        0x00001eac:    9807        ..      LDR      r0,[sp,#0x1c]
        0x00001eae:    49b8        .I      LDR      r1,[pc,#736] ; [0x2190] = 0x2000000c
        0x00001eb0:    7809        .x      LDRB     r1,[r1,#0]
        0x00001eb2:    7181        .q      STRB     r1,[r0,#6]
        0x00001eb4:    49b7        .I      LDR      r1,[pc,#732] ; [0x2194] = 0x2000000d
        0x00001eb6:    7809        .x      LDRB     r1,[r1,#0]
        0x00001eb8:    71c1        .q      STRB     r1,[r0,#7]
        0x00001eba:    2108        .!      MOVS     r1,#8
        0x00001ebc:    f003fde4    ....    BL       _SendStringToMETER ; 0x5a88
        0x00001ec0:    e0b1        ..      B        0x2026 ; CmdModBus_DEM5x0 + 494
        0x00001ec2:    49b0        .I      LDR      r1,[pc,#704] ; [0x2184] = 0x20000d06
        0x00001ec4:    2005        .       MOVS     r0,#5
        0x00001ec6:    7008        .p      STRB     r0,[r1,#0]
        0x00001ec8:    48b4        .H      LDR      r0,[pc,#720] ; [0x219c] = 0x200010b9
        0x00001eca:    2101        .!      MOVS     r1,#1
        0x00001ecc:    7001        .p      STRB     r1,[r0,#0]
        0x00001ece:    48ae        .H      LDR      r0,[pc,#696] ; [0x2188] = 0x20000d0d
        0x00001ed0:    9006        ..      STR      r0,[sp,#0x18]
        0x00001ed2:    2303        .#      MOVS     r3,#3
        0x00001ed4:    7043        Cp      STRB     r3,[r0,#1]
        0x00001ed6:    2200        ."      MOVS     r2,#0
        0x00001ed8:    7082        .p      STRB     r2,[r0,#2]
        0x00001eda:    70c3        .p      STRB     r3,[r0,#3]
        0x00001edc:    7102        .q      STRB     r2,[r0,#4]
        0x00001ede:    7141        Aq      STRB     r1,[r0,#5]
        0x00001ee0:    2106        .!      MOVS     r1,#6
        0x00001ee2:    f7fffc33    ..3.    BL       CRC16 ; 0x174c
        0x00001ee6:    9806        ..      LDR      r0,[sp,#0x18]
        0x00001ee8:    49a9        .I      LDR      r1,[pc,#676] ; [0x2190] = 0x2000000c
        0x00001eea:    7809        .x      LDRB     r1,[r1,#0]
        0x00001eec:    7181        .q      STRB     r1,[r0,#6]
        0x00001eee:    49a9        .I      LDR      r1,[pc,#676] ; [0x2194] = 0x2000000d
        0x00001ef0:    7809        .x      LDRB     r1,[r1,#0]
        0x00001ef2:    71c1        .q      STRB     r1,[r0,#7]
        0x00001ef4:    2108        .!      MOVS     r1,#8
        0x00001ef6:    f003fdc7    ....    BL       _SendStringToMETER ; 0x5a88
        0x00001efa:    e094        ..      B        0x2026 ; CmdModBus_DEM5x0 + 494
        0x00001efc:    49a1        .I      LDR      r1,[pc,#644] ; [0x2184] = 0x20000d06
        0x00001efe:    201a        .       MOVS     r0,#0x1a
        0x00001f00:    7008        .p      STRB     r0,[r1,#0]
        0x00001f02:    48a1        .H      LDR      r0,[pc,#644] ; [0x2188] = 0x20000d0d
        0x00001f04:    9005        ..      STR      r0,[sp,#0x14]
        0x00001f06:    2105        .!      MOVS     r1,#5
        0x00001f08:    7041        Ap      STRB     r1,[r0,#1]
        0x00001f0a:    2100        .!      MOVS     r1,#0
        0x00001f0c:    7081        .p      STRB     r1,[r0,#2]
        0x00001f0e:    2230        0"      MOVS     r2,#0x30
        0x00001f10:    70c2        .p      STRB     r2,[r0,#3]
        0x00001f12:    7101        .q      STRB     r1,[r0,#4]
        0x00001f14:    7141        Aq      STRB     r1,[r0,#5]
        0x00001f16:    2106        .!      MOVS     r1,#6
        0x00001f18:    f7fffc18    ....    BL       CRC16 ; 0x174c
        0x00001f1c:    9805        ..      LDR      r0,[sp,#0x14]
        0x00001f1e:    499c        .I      LDR      r1,[pc,#624] ; [0x2190] = 0x2000000c
        0x00001f20:    7809        .x      LDRB     r1,[r1,#0]
        0x00001f22:    7181        .q      STRB     r1,[r0,#6]
        0x00001f24:    499b        .I      LDR      r1,[pc,#620] ; [0x2194] = 0x2000000d
        0x00001f26:    7809        .x      LDRB     r1,[r1,#0]
        0x00001f28:    71c1        .q      STRB     r1,[r0,#7]
        0x00001f2a:    2108        .!      MOVS     r1,#8
        0x00001f2c:    f003fdac    ....    BL       _SendStringToMETER ; 0x5a88
        0x00001f30:    e079        y.      B        0x2026 ; CmdModBus_DEM5x0 + 494
        0x00001f32:    4994        .I      LDR      r1,[pc,#592] ; [0x2184] = 0x20000d06
        0x00001f34:    201a        .       MOVS     r0,#0x1a
        0x00001f36:    7008        .p      STRB     r0,[r1,#0]
        0x00001f38:    4893        .H      LDR      r0,[pc,#588] ; [0x2188] = 0x20000d0d
        0x00001f3a:    9004        ..      STR      r0,[sp,#0x10]
        0x00001f3c:    2110        .!      MOVS     r1,#0x10
        0x00001f3e:    7041        Ap      STRB     r1,[r0,#1]
        0x00001f40:    2100        .!      MOVS     r1,#0
        0x00001f42:    7081        .p      STRB     r1,[r0,#2]
        0x00001f44:    2230        0"      MOVS     r2,#0x30
        0x00001f46:    70c2        .p      STRB     r2,[r0,#3]
        0x00001f48:    7101        .q      STRB     r1,[r0,#4]
        0x00001f4a:    2201        ."      MOVS     r2,#1
        0x00001f4c:    7142        Bq      STRB     r2,[r0,#5]
        0x00001f4e:    2202        ."      MOVS     r2,#2
        0x00001f50:    7182        .q      STRB     r2,[r0,#6]
        0x00001f52:    4a8e        .J      LDR      r2,[pc,#568] ; [0x218c] = 0x20000d55
        0x00001f54:    7812        .x      LDRB     r2,[r2,#0]
        0x00001f56:    71c2        .q      STRB     r2,[r0,#7]
        0x00001f58:    7201        .r      STRB     r1,[r0,#8]
        0x00001f5a:    2109        .!      MOVS     r1,#9
        0x00001f5c:    f7fffbf6    ....    BL       CRC16 ; 0x174c
        0x00001f60:    9804        ..      LDR      r0,[sp,#0x10]
        0x00001f62:    498b        .I      LDR      r1,[pc,#556] ; [0x2190] = 0x2000000c
        0x00001f64:    7809        .x      LDRB     r1,[r1,#0]
        0x00001f66:    7241        Ar      STRB     r1,[r0,#9]
        0x00001f68:    498a        .I      LDR      r1,[pc,#552] ; [0x2194] = 0x2000000d
        0x00001f6a:    7809        .x      LDRB     r1,[r1,#0]
        0x00001f6c:    7281        .r      STRB     r1,[r0,#0xa]
        0x00001f6e:    210b        .!      MOVS     r1,#0xb
        0x00001f70:    f003fd8a    ....    BL       _SendStringToMETER ; 0x5a88
        0x00001f74:    e057        W.      B        0x2026 ; CmdModBus_DEM5x0 + 494
        0x00001f76:    4983        .I      LDR      r1,[pc,#524] ; [0x2184] = 0x20000d06
        0x00001f78:    201a        .       MOVS     r0,#0x1a
        0x00001f7a:    7008        .p      STRB     r0,[r1,#0]
        0x00001f7c:    4882        .H      LDR      r0,[pc,#520] ; [0x2188] = 0x20000d0d
        0x00001f7e:    9003        ..      STR      r0,[sp,#0xc]
        0x00001f80:    2105        .!      MOVS     r1,#5
        0x00001f82:    7041        Ap      STRB     r1,[r0,#1]
        0x00001f84:    2100        .!      MOVS     r1,#0
        0x00001f86:    7081        .p      STRB     r1,[r0,#2]
        0x00001f88:    2230        0"      MOVS     r2,#0x30
        0x00001f8a:    70c2        .p      STRB     r2,[r0,#3]
        0x00001f8c:    22ff        ."      MOVS     r2,#0xff
        0x00001f8e:    7102        .q      STRB     r2,[r0,#4]
        0x00001f90:    7141        Aq      STRB     r1,[r0,#5]
        0x00001f92:    2106        .!      MOVS     r1,#6
        0x00001f94:    f7fffbda    ....    BL       CRC16 ; 0x174c
        0x00001f98:    9803        ..      LDR      r0,[sp,#0xc]
        0x00001f9a:    497d        }I      LDR      r1,[pc,#500] ; [0x2190] = 0x2000000c
        0x00001f9c:    7809        .x      LDRB     r1,[r1,#0]
        0x00001f9e:    7181        .q      STRB     r1,[r0,#6]
        0x00001fa0:    497c        |I      LDR      r1,[pc,#496] ; [0x2194] = 0x2000000d
        0x00001fa2:    7809        .x      LDRB     r1,[r1,#0]
        0x00001fa4:    71c1        .q      STRB     r1,[r0,#7]
        0x00001fa6:    2108        .!      MOVS     r1,#8
        0x00001fa8:    f003fd6e    ..n.    BL       _SendStringToMETER ; 0x5a88
        0x00001fac:    e03b        ;.      B        0x2026 ; CmdModBus_DEM5x0 + 494
        0x00001fae:    4975        uI      LDR      r1,[pc,#468] ; [0x2184] = 0x20000d06
        0x00001fb0:    201a        .       MOVS     r0,#0x1a
        0x00001fb2:    7008        .p      STRB     r0,[r1,#0]
        0x00001fb4:    4874        tH      LDR      r0,[pc,#464] ; [0x2188] = 0x20000d0d
        0x00001fb6:    9002        ..      STR      r0,[sp,#8]
        0x00001fb8:    2105        .!      MOVS     r1,#5
        0x00001fba:    7041        Ap      STRB     r1,[r0,#1]
        0x00001fbc:    2100        .!      MOVS     r1,#0
        0x00001fbe:    7081        .p      STRB     r1,[r0,#2]
        0x00001fc0:    2230        0"      MOVS     r2,#0x30
        0x00001fc2:    70c2        .p      STRB     r2,[r0,#3]
        0x00001fc4:    22ff        ."      MOVS     r2,#0xff
        0x00001fc6:    7102        .q      STRB     r2,[r0,#4]
        0x00001fc8:    7141        Aq      STRB     r1,[r0,#5]
        0x00001fca:    2106        .!      MOVS     r1,#6
        0x00001fcc:    f7fffbbe    ....    BL       CRC16 ; 0x174c
        0x00001fd0:    9802        ..      LDR      r0,[sp,#8]
        0x00001fd2:    496f        oI      LDR      r1,[pc,#444] ; [0x2190] = 0x2000000c
        0x00001fd4:    7809        .x      LDRB     r1,[r1,#0]
        0x00001fd6:    7181        .q      STRB     r1,[r0,#6]
        0x00001fd8:    496e        nI      LDR      r1,[pc,#440] ; [0x2194] = 0x2000000d
        0x00001fda:    7809        .x      LDRB     r1,[r1,#0]
        0x00001fdc:    71c1        .q      STRB     r1,[r0,#7]
        0x00001fde:    2108        .!      MOVS     r1,#8
        0x00001fe0:    f003fd52    ..R.    BL       _SendStringToMETER ; 0x5a88
        0x00001fe4:    e01f        ..      B        0x2026 ; CmdModBus_DEM5x0 + 494
        0x00001fe6:    4967        gI      LDR      r1,[pc,#412] ; [0x2184] = 0x20000d06
        0x00001fe8:    201a        .       MOVS     r0,#0x1a
        0x00001fea:    7008        .p      STRB     r0,[r1,#0]
        0x00001fec:    4866        fH      LDR      r0,[pc,#408] ; [0x2188] = 0x20000d0d
        0x00001fee:    9001        ..      STR      r0,[sp,#4]
        0x00001ff0:    2105        .!      MOVS     r1,#5
        0x00001ff2:    7041        Ap      STRB     r1,[r0,#1]
        0x00001ff4:    2100        .!      MOVS     r1,#0
        0x00001ff6:    7081        .p      STRB     r1,[r0,#2]
        0x00001ff8:    2230        0"      MOVS     r2,#0x30
        0x00001ffa:    70c2        .p      STRB     r2,[r0,#3]
        0x00001ffc:    22ff        ."      MOVS     r2,#0xff
        0x00001ffe:    7102        .q      STRB     r2,[r0,#4]
        0x00002000:    7141        Aq      STRB     r1,[r0,#5]
        0x00002002:    2106        .!      MOVS     r1,#6
        0x00002004:    f7fffba2    ....    BL       CRC16 ; 0x174c
        0x00002008:    9801        ..      LDR      r0,[sp,#4]
        0x0000200a:    4961        aI      LDR      r1,[pc,#388] ; [0x2190] = 0x2000000c
        0x0000200c:    7809        .x      LDRB     r1,[r1,#0]
        0x0000200e:    7181        .q      STRB     r1,[r0,#6]
        0x00002010:    4960        `I      LDR      r1,[pc,#384] ; [0x2194] = 0x2000000d
        0x00002012:    7809        .x      LDRB     r1,[r1,#0]
        0x00002014:    71c1        .q      STRB     r1,[r0,#7]
        0x00002016:    2108        .!      MOVS     r1,#8
        0x00002018:    f003fd36    ..6.    BL       _SendStringToMETER ; 0x5a88
        0x0000201c:    e003        ..      B        0x2026 ; CmdModBus_DEM5x0 + 494
        0x0000201e:    4959        YI      LDR      r1,[pc,#356] ; [0x2184] = 0x20000d06
        0x00002020:    201a        .       MOVS     r0,#0x1a
        0x00002022:    7008        .p      STRB     r0,[r1,#0]
        0x00002024:    e7ff        ..      B        0x2026 ; CmdModBus_DEM5x0 + 494
        0x00002026:    b00a        ..      ADD      sp,sp,#0x28
        0x00002028:    bd80        ..      POP      {r7,pc}
        0x0000202a:    46c0        .F      MOV      r8,r8
    $d
    __arm_cp.3_6
        0x0000202c:    20000d47    G..     DCD    536874311
    $t
    CmdModBus_E21nE31
        0x00002030:    b580        ..      PUSH     {r7,lr}
        0x00002032:    b086        ..      SUB      sp,sp,#0x18
        0x00002034:    4601        .F      MOV      r1,r0
        0x00002036:    a805        ..      ADD      r0,sp,#0x14
        0x00002038:    7001        .p      STRB     r1,[r0,#0]
        0x0000203a:    7800        .x      LDRB     r0,[r0,#0]
        0x0000203c:    9004        ..      STR      r0,[sp,#0x10]
        0x0000203e:    2805        .(      CMP      r0,#5
        0x00002040:    d900        ..      BLS      0x2044 ; CmdModBus_E21nE31 + 20
        0x00002042:    e098        ..      B        0x2176 ; CmdModBus_E21nE31 + 326
        0x00002044:    9804        ..      LDR      r0,[sp,#0x10]
        0x00002046:    0081        ..      LSLS     r1,r0,#2
        0x00002048:    a001        ..      ADR      r0,{pc}+8 ; 0x2050
        0x0000204a:    5840        @X      LDR      r0,[r0,r1]
        0x0000204c:    4687        .F      MOV      pc,r0
        0x0000204e:    46c0        .F      MOV      r8,r8
    $d
        0x00002050:    00002069    i ..    DCD    8297
        0x00002054:    00002071    q ..    DCD    8305
        0x00002058:    000020e7    . ..    DCD    8423
        0x0000205c:    0000212b    +!..    DCD    8491
        0x00002060:    0000216f    o!..    DCD    8559
        0x00002064:    000020ad    . ..    DCD    8365
    $t
        0x00002068:    494d        MI      LDR      r1,[pc,#308] ; [0x21a0] = 0x20000d47
        0x0000206a:    2000        .       MOVS     r0,#0
        0x0000206c:    7008        .p      STRB     r0,[r1,#0]
        0x0000206e:    e086        ..      B        0x217e ; CmdModBus_E21nE31 + 334
        0x00002070:    4844        DH      LDR      r0,[pc,#272] ; [0x2184] = 0x20000d06
        0x00002072:    2101        .!      MOVS     r1,#1
        0x00002074:    7001        .p      STRB     r1,[r0,#0]
        0x00002076:    4849        IH      LDR      r0,[pc,#292] ; [0x219c] = 0x200010b9
        0x00002078:    7001        .p      STRB     r1,[r0,#0]
        0x0000207a:    4843        CH      LDR      r0,[pc,#268] ; [0x2188] = 0x20000d0d
        0x0000207c:    9003        ..      STR      r0,[sp,#0xc]
        0x0000207e:    2203        ."      MOVS     r2,#3
        0x00002080:    7042        Bp      STRB     r2,[r0,#1]
        0x00002082:    7081        .p      STRB     r1,[r0,#2]
        0x00002084:    2104        .!      MOVS     r1,#4
        0x00002086:    70c1        .p      STRB     r1,[r0,#3]
        0x00002088:    2100        .!      MOVS     r1,#0
        0x0000208a:    7101        .q      STRB     r1,[r0,#4]
        0x0000208c:    2102        .!      MOVS     r1,#2
        0x0000208e:    7141        Aq      STRB     r1,[r0,#5]
        0x00002090:    2106        .!      MOVS     r1,#6
        0x00002092:    f7fffb5b    ..[.    BL       CRC16 ; 0x174c
        0x00002096:    9803        ..      LDR      r0,[sp,#0xc]
        0x00002098:    493d        =I      LDR      r1,[pc,#244] ; [0x2190] = 0x2000000c
        0x0000209a:    7809        .x      LDRB     r1,[r1,#0]
        0x0000209c:    7181        .q      STRB     r1,[r0,#6]
        0x0000209e:    493d        =I      LDR      r1,[pc,#244] ; [0x2194] = 0x2000000d
        0x000020a0:    7809        .x      LDRB     r1,[r1,#0]
        0x000020a2:    71c1        .q      STRB     r1,[r0,#7]
        0x000020a4:    2108        .!      MOVS     r1,#8
        0x000020a6:    f003fcef    ....    BL       _SendStringToMETER ; 0x5a88
        0x000020aa:    e068        h.      B        0x217e ; CmdModBus_E21nE31 + 334
        0x000020ac:    4935        5I      LDR      r1,[pc,#212] ; [0x2184] = 0x20000d06
        0x000020ae:    2005        .       MOVS     r0,#5
        0x000020b0:    7008        .p      STRB     r0,[r1,#0]
        0x000020b2:    483a        :H      LDR      r0,[pc,#232] ; [0x219c] = 0x200010b9
        0x000020b4:    2101        .!      MOVS     r1,#1
        0x000020b6:    7001        .p      STRB     r1,[r0,#0]
        0x000020b8:    4833        3H      LDR      r0,[pc,#204] ; [0x2188] = 0x20000d0d
        0x000020ba:    9002        ..      STR      r0,[sp,#8]
        0x000020bc:    2203        ."      MOVS     r2,#3
        0x000020be:    7042        Bp      STRB     r2,[r0,#1]
        0x000020c0:    7081        .p      STRB     r1,[r0,#2]
        0x000020c2:    2200        ."      MOVS     r2,#0
        0x000020c4:    70c2        .p      STRB     r2,[r0,#3]
        0x000020c6:    7102        .q      STRB     r2,[r0,#4]
        0x000020c8:    7141        Aq      STRB     r1,[r0,#5]
        0x000020ca:    2106        .!      MOVS     r1,#6
        0x000020cc:    f7fffb3e    ..>.    BL       CRC16 ; 0x174c
        0x000020d0:    9802        ..      LDR      r0,[sp,#8]
        0x000020d2:    492f        /I      LDR      r1,[pc,#188] ; [0x2190] = 0x2000000c
        0x000020d4:    7809        .x      LDRB     r1,[r1,#0]
        0x000020d6:    7181        .q      STRB     r1,[r0,#6]
        0x000020d8:    492e        .I      LDR      r1,[pc,#184] ; [0x2194] = 0x2000000d
        0x000020da:    7809        .x      LDRB     r1,[r1,#0]
        0x000020dc:    71c1        .q      STRB     r1,[r0,#7]
        0x000020de:    2108        .!      MOVS     r1,#8
        0x000020e0:    f003fcd2    ....    BL       _SendStringToMETER ; 0x5a88
        0x000020e4:    e04b        K.      B        0x217e ; CmdModBus_E21nE31 + 334
        0x000020e6:    4927        'I      LDR      r1,[pc,#156] ; [0x2184] = 0x20000d06
        0x000020e8:    201a        .       MOVS     r0,#0x1a
        0x000020ea:    7008        .p      STRB     r0,[r1,#0]
        0x000020ec:    4826        &H      LDR      r0,[pc,#152] ; [0x2188] = 0x20000d0d
        0x000020ee:    9001        ..      STR      r0,[sp,#4]
        0x000020f0:    2110        .!      MOVS     r1,#0x10
        0x000020f2:    7041        Ap      STRB     r1,[r0,#1]
        0x000020f4:    2100        .!      MOVS     r1,#0
        0x000020f6:    7081        .p      STRB     r1,[r0,#2]
        0x000020f8:    2203        ."      MOVS     r2,#3
        0x000020fa:    70c2        .p      STRB     r2,[r0,#3]
        0x000020fc:    7101        .q      STRB     r1,[r0,#4]
        0x000020fe:    2201        ."      MOVS     r2,#1
        0x00002100:    7142        Bq      STRB     r2,[r0,#5]
        0x00002102:    2202        ."      MOVS     r2,#2
        0x00002104:    7182        .q      STRB     r2,[r0,#6]
        0x00002106:    4a24        $J      LDR      r2,[pc,#144] ; [0x2198] = 0x20000f24
        0x00002108:    7812        .x      LDRB     r2,[r2,#0]
        0x0000210a:    71c2        .q      STRB     r2,[r0,#7]
        0x0000210c:    7201        .r      STRB     r1,[r0,#8]
        0x0000210e:    2109        .!      MOVS     r1,#9
        0x00002110:    f7fffb1c    ....    BL       CRC16 ; 0x174c
        0x00002114:    9801        ..      LDR      r0,[sp,#4]
        0x00002116:    491e        .I      LDR      r1,[pc,#120] ; [0x2190] = 0x2000000c
        0x00002118:    7809        .x      LDRB     r1,[r1,#0]
        0x0000211a:    7241        Ar      STRB     r1,[r0,#9]
        0x0000211c:    491d        .I      LDR      r1,[pc,#116] ; [0x2194] = 0x2000000d
        0x0000211e:    7809        .x      LDRB     r1,[r1,#0]
        0x00002120:    7281        .r      STRB     r1,[r0,#0xa]
        0x00002122:    210b        .!      MOVS     r1,#0xb
        0x00002124:    f003fcb0    ....    BL       _SendStringToMETER ; 0x5a88
        0x00002128:    e029        ).      B        0x217e ; CmdModBus_E21nE31 + 334
        0x0000212a:    4916        .I      LDR      r1,[pc,#88] ; [0x2184] = 0x20000d06
        0x0000212c:    201a        .       MOVS     r0,#0x1a
        0x0000212e:    7008        .p      STRB     r0,[r1,#0]
        0x00002130:    4815        .H      LDR      r0,[pc,#84] ; [0x2188] = 0x20000d0d
        0x00002132:    9000        ..      STR      r0,[sp,#0]
        0x00002134:    2110        .!      MOVS     r1,#0x10
        0x00002136:    7041        Ap      STRB     r1,[r0,#1]
        0x00002138:    2100        .!      MOVS     r1,#0
        0x0000213a:    7081        .p      STRB     r1,[r0,#2]
        0x0000213c:    2205        ."      MOVS     r2,#5
        0x0000213e:    70c2        .p      STRB     r2,[r0,#3]
        0x00002140:    7101        .q      STRB     r1,[r0,#4]
        0x00002142:    2201        ."      MOVS     r2,#1
        0x00002144:    7142        Bq      STRB     r2,[r0,#5]
        0x00002146:    2202        ."      MOVS     r2,#2
        0x00002148:    7182        .q      STRB     r2,[r0,#6]
        0x0000214a:    4a10        .J      LDR      r2,[pc,#64] ; [0x218c] = 0x20000d55
        0x0000214c:    7812        .x      LDRB     r2,[r2,#0]
        0x0000214e:    71c2        .q      STRB     r2,[r0,#7]
        0x00002150:    7201        .r      STRB     r1,[r0,#8]
        0x00002152:    2109        .!      MOVS     r1,#9
        0x00002154:    f7fffafa    ....    BL       CRC16 ; 0x174c
        0x00002158:    9800        ..      LDR      r0,[sp,#0]
        0x0000215a:    490d        .I      LDR      r1,[pc,#52] ; [0x2190] = 0x2000000c
        0x0000215c:    7809        .x      LDRB     r1,[r1,#0]
        0x0000215e:    7241        Ar      STRB     r1,[r0,#9]
        0x00002160:    490c        .I      LDR      r1,[pc,#48] ; [0x2194] = 0x2000000d
        0x00002162:    7809        .x      LDRB     r1,[r1,#0]
        0x00002164:    7281        .r      STRB     r1,[r0,#0xa]
        0x00002166:    210b        .!      MOVS     r1,#0xb
        0x00002168:    f003fc8e    ....    BL       _SendStringToMETER ; 0x5a88
        0x0000216c:    e007        ..      B        0x217e ; CmdModBus_E21nE31 + 334
        0x0000216e:    4905        .I      LDR      r1,[pc,#20] ; [0x2184] = 0x20000d06
        0x00002170:    201a        .       MOVS     r0,#0x1a
        0x00002172:    7008        .p      STRB     r0,[r1,#0]
        0x00002174:    e003        ..      B        0x217e ; CmdModBus_E21nE31 + 334
        0x00002176:    4903        .I      LDR      r1,[pc,#12] ; [0x2184] = 0x20000d06
        0x00002178:    201a        .       MOVS     r0,#0x1a
        0x0000217a:    7008        .p      STRB     r0,[r1,#0]
        0x0000217c:    e7ff        ..      B        0x217e ; CmdModBus_E21nE31 + 334
        0x0000217e:    b006        ..      ADD      sp,sp,#0x18
        0x00002180:    bd80        ..      POP      {r7,pc}
        0x00002182:    46c0        .F      MOV      r8,r8
    $d
    __arm_cp.5_0
        0x00002184:    20000d06    ...     DCD    536874246
    __arm_cp.5_1
        0x00002188:    20000d0d    ...     DCD    536874253
    __arm_cp.5_2
        0x0000218c:    20000d55    U..     DCD    536874325
    __arm_cp.5_3
        0x00002190:    2000000c    ...     DCD    536870924
    __arm_cp.5_4
        0x00002194:    2000000d    ...     DCD    536870925
    __arm_cp.5_5
        0x00002198:    20000f24    $..     DCD    536874788
    __arm_cp.5_6
        0x0000219c:    200010b9    ...     DCD    536875193
    __arm_cp.5_7
        0x000021a0:    20000d47    G..     DCD    536874311
    $t
    DisableHostUartTx
        0x000021a4:    490a        .I      LDR      r1,[pc,#40] ; [0x21d0] = 0x50000048
        0x000021a6:    6808        .h      LDR      r0,[r1,#0]
        0x000021a8:    22f0        ."      MOVS     r2,#0xf0
        0x000021aa:    4390        .C      BICS     r0,r0,r2
        0x000021ac:    6008        .`      STR      r0,[r1,#0]
        0x000021ae:    49b2        .I      LDR      r1,[pc,#712] ; [0x2478] = 0x500040c0
        0x000021b0:    6808        .h      LDR      r0,[r1,#0]
        0x000021b2:    220c        ."      MOVS     r2,#0xc
        0x000021b4:    4310        .C      ORRS     r0,r0,r2
        0x000021b6:    6008        .`      STR      r0,[r1,#0]
        0x000021b8:    4770        pG      BX       lr
        0x000021ba:    46c0        .F      MOV      r8,r8
    EnableHostUartTx
        0x000021bc:    4904        .I      LDR      r1,[pc,#16] ; [0x21d0] = 0x50000048
        0x000021be:    6808        .h      LDR      r0,[r1,#0]
        0x000021c0:    22ff        ."      MOVS     r2,#0xff
        0x000021c2:    4390        .C      BICS     r0,r0,r2
        0x000021c4:    6008        .`      STR      r0,[r1,#0]
        0x000021c6:    6808        .h      LDR      r0,[r1,#0]
        0x000021c8:    2233        3"      MOVS     r2,#0x33
        0x000021ca:    4310        .C      ORRS     r0,r0,r2
        0x000021cc:    6008        .`      STR      r0,[r1,#0]
        0x000021ce:    4770        pG      BX       lr
    $d
    __arm_cp.29_0
        0x000021d0:    50000048    H..P    DCD    1342177352
    $t
    FMC_Close
        0x000021d4:    493b        ;I      LDR      r1,[pc,#236] ; [0x22c4] = 0x5000c000
        0x000021d6:    6808        .h      LDR      r0,[r1,#0]
        0x000021d8:    2201        ."      MOVS     r2,#1
        0x000021da:    4390        .C      BICS     r0,r0,r2
        0x000021dc:    6008        .`      STR      r0,[r1,#0]
        0x000021de:    4770        pG      BX       lr
    FMC_Open
        0x000021e0:    4938        8I      LDR      r1,[pc,#224] ; [0x22c4] = 0x5000c000
        0x000021e2:    6808        .h      LDR      r0,[r1,#0]
        0x000021e4:    2201        ."      MOVS     r2,#1
        0x000021e6:    4310        .C      ORRS     r0,r0,r2
        0x000021e8:    6008        .`      STR      r0,[r1,#0]
        0x000021ea:    4770        pG      BX       lr
    FMC_Proc
        0x000021ec:    b088        ..      SUB      sp,sp,#0x20
        0x000021ee:    9006        ..      STR      r0,[sp,#0x18]
        0x000021f0:    9105        ..      STR      r1,[sp,#0x14]
        0x000021f2:    9204        ..      STR      r2,[sp,#0x10]
        0x000021f4:    9303        ..      STR      r3,[sp,#0xc]
        0x000021f6:    9805        ..      LDR      r0,[sp,#0x14]
        0x000021f8:    9002        ..      STR      r0,[sp,#8]
        0x000021fa:    e7ff        ..      B        0x21fc ; FMC_Proc + 16
        0x000021fc:    9802        ..      LDR      r0,[sp,#8]
        0x000021fe:    9904        ..      LDR      r1,[sp,#0x10]
        0x00002200:    4288        .B      CMP      r0,r1
        0x00002202:    d256        V.      BCS      0x22b2 ; FMC_Proc + 198
        0x00002204:    e7ff        ..      B        0x2206 ; FMC_Proc + 26
        0x00002206:    9806        ..      LDR      r0,[sp,#0x18]
        0x00002208:    4946        FI      LDR      r1,[pc,#280] ; [0x2324] = 0x5000c00c
        0x0000220a:    6008        .`      STR      r0,[r1,#0]
        0x0000220c:    9802        ..      LDR      r0,[sp,#8]
        0x0000220e:    4946        FI      LDR      r1,[pc,#280] ; [0x2328] = 0x5000c004
        0x00002210:    6008        .`      STR      r0,[r1,#0]
        0x00002212:    9806        ..      LDR      r0,[sp,#0x18]
        0x00002214:    2821        !(      CMP      r0,#0x21
        0x00002216:    d105        ..      BNE      0x2224 ; FMC_Proc + 56
        0x00002218:    e7ff        ..      B        0x221a ; FMC_Proc + 46
        0x0000221a:    9803        ..      LDR      r0,[sp,#0xc]
        0x0000221c:    6800        .h      LDR      r0,[r0,#0]
        0x0000221e:    4928        (I      LDR      r1,[pc,#160] ; [0x22c0] = 0x5000c008
        0x00002220:    6008        .`      STR      r0,[r1,#0]
        0x00002222:    e7ff        ..      B        0x2224 ; FMC_Proc + 56
        0x00002224:    4941        AI      LDR      r1,[pc,#260] ; [0x232c] = 0x5000c010
        0x00002226:    2001        .       MOVS     r0,#1
        0x00002228:    6008        .`      STR      r0,[r1,#0]
        0x0000222a:    f3bf8f6f    ..o.    ISB      
        0x0000222e:    4840        @H      LDR      r0,[pc,#256] ; [0x2330] = 0x20000008
        0x00002230:    6800        .h      LDR      r0,[r0,#0]
        0x00002232:    08c0        ..      LSRS     r0,r0,#3
        0x00002234:    9000        ..      STR      r0,[sp,#0]
        0x00002236:    e7ff        ..      B        0x2238 ; FMC_Proc + 76
        0x00002238:    483c        <H      LDR      r0,[pc,#240] ; [0x232c] = 0x5000c010
        0x0000223a:    6800        .h      LDR      r0,[r0,#0]
        0x0000223c:    07c0        ..      LSLS     r0,r0,#31
        0x0000223e:    2800        .(      CMP      r0,#0
        0x00002240:    d00b        ..      BEQ      0x225a ; FMC_Proc + 110
        0x00002242:    e7ff        ..      B        0x2244 ; FMC_Proc + 88
        0x00002244:    9800        ..      LDR      r0,[sp,#0]
        0x00002246:    1e40        @.      SUBS     r0,r0,#1
        0x00002248:    9000        ..      STR      r0,[sp,#0]
        0x0000224a:    2800        .(      CMP      r0,#0
        0x0000224c:    d104        ..      BNE      0x2258 ; FMC_Proc + 108
        0x0000224e:    e7ff        ..      B        0x2250 ; FMC_Proc + 100
        0x00002250:    2000        .       MOVS     r0,#0
        0x00002252:    43c0        .C      MVNS     r0,r0
        0x00002254:    9007        ..      STR      r0,[sp,#0x1c]
        0x00002256:    e02f        /.      B        0x22b8 ; FMC_Proc + 204
        0x00002258:    e7ee        ..      B        0x2238 ; FMC_Proc + 76
        0x0000225a:    481a        .H      LDR      r0,[pc,#104] ; [0x22c4] = 0x5000c000
        0x0000225c:    6800        .h      LDR      r0,[r0,#0]
        0x0000225e:    9001        ..      STR      r0,[sp,#4]
        0x00002260:    a801        ..      ADD      r0,sp,#4
        0x00002262:    7800        .x      LDRB     r0,[r0,#0]
        0x00002264:    0640        @.      LSLS     r0,r0,#25
        0x00002266:    2800        .(      CMP      r0,#0
        0x00002268:    d507        ..      BPL      0x227a ; FMC_Proc + 142
        0x0000226a:    e7ff        ..      B        0x226c ; FMC_Proc + 128
        0x0000226c:    9801        ..      LDR      r0,[sp,#4]
        0x0000226e:    4915        .I      LDR      r1,[pc,#84] ; [0x22c4] = 0x5000c000
        0x00002270:    6008        .`      STR      r0,[r1,#0]
        0x00002272:    2000        .       MOVS     r0,#0
        0x00002274:    43c0        .C      MVNS     r0,r0
        0x00002276:    9007        ..      STR      r0,[sp,#0x1c]
        0x00002278:    e01e        ..      B        0x22b8 ; FMC_Proc + 204
        0x0000227a:    9806        ..      LDR      r0,[sp,#0x18]
        0x0000227c:    2800        .(      CMP      r0,#0
        0x0000227e:    d105        ..      BNE      0x228c ; FMC_Proc + 160
        0x00002280:    e7ff        ..      B        0x2282 ; FMC_Proc + 150
        0x00002282:    480f        .H      LDR      r0,[pc,#60] ; [0x22c0] = 0x5000c008
        0x00002284:    6800        .h      LDR      r0,[r0,#0]
        0x00002286:    9903        ..      LDR      r1,[sp,#0xc]
        0x00002288:    6008        .`      STR      r0,[r1,#0]
        0x0000228a:    e7ff        ..      B        0x228c ; FMC_Proc + 160
        0x0000228c:    9806        ..      LDR      r0,[sp,#0x18]
        0x0000228e:    2822        "(      CMP      r0,#0x22
        0x00002290:    d106        ..      BNE      0x22a0 ; FMC_Proc + 180
        0x00002292:    e7ff        ..      B        0x2294 ; FMC_Proc + 168
        0x00002294:    9802        ..      LDR      r0,[sp,#8]
        0x00002296:    2101        .!      MOVS     r1,#1
        0x00002298:    02c9        ..      LSLS     r1,r1,#11
        0x0000229a:    1840        @.      ADDS     r0,r0,r1
        0x0000229c:    9002        ..      STR      r0,[sp,#8]
        0x0000229e:    e003        ..      B        0x22a8 ; FMC_Proc + 188
        0x000022a0:    9802        ..      LDR      r0,[sp,#8]
        0x000022a2:    1d00        ..      ADDS     r0,r0,#4
        0x000022a4:    9002        ..      STR      r0,[sp,#8]
        0x000022a6:    e7ff        ..      B        0x22a8 ; FMC_Proc + 188
        0x000022a8:    e7ff        ..      B        0x22aa ; FMC_Proc + 190
        0x000022aa:    9803        ..      LDR      r0,[sp,#0xc]
        0x000022ac:    1d00        ..      ADDS     r0,r0,#4
        0x000022ae:    9003        ..      STR      r0,[sp,#0xc]
        0x000022b0:    e7a4        ..      B        0x21fc ; FMC_Proc + 16
        0x000022b2:    2000        .       MOVS     r0,#0
        0x000022b4:    9007        ..      STR      r0,[sp,#0x1c]
        0x000022b6:    e7ff        ..      B        0x22b8 ; FMC_Proc + 204
        0x000022b8:    9807        ..      LDR      r0,[sp,#0x1c]
        0x000022ba:    b008        ..      ADD      sp,sp,#0x20
        0x000022bc:    4770        pG      BX       lr
        0x000022be:    46c0        .F      MOV      r8,r8
    $d
    __arm_cp.0_2
        0x000022c0:    5000c008    ...P    DCD    1342226440
    __arm_cp.0_5
        0x000022c4:    5000c000    ...P    DCD    1342226432
    $t
    FMC_SetVectorPageAddr
        0x000022c8:    b083        ..      SUB      sp,sp,#0xc
        0x000022ca:    9001        ..      STR      r0,[sp,#4]
        0x000022cc:    4914        .I      LDR      r1,[pc,#80] ; [0x2320] = 0x200010cc
        0x000022ce:    2000        .       MOVS     r0,#0
        0x000022d0:    6008        .`      STR      r0,[r1,#0]
        0x000022d2:    4914        .I      LDR      r1,[pc,#80] ; [0x2324] = 0x5000c00c
        0x000022d4:    202e        .       MOVS     r0,#0x2e
        0x000022d6:    6008        .`      STR      r0,[r1,#0]
        0x000022d8:    9801        ..      LDR      r0,[sp,#4]
        0x000022da:    4913        .I      LDR      r1,[pc,#76] ; [0x2328] = 0x5000c004
        0x000022dc:    6008        .`      STR      r0,[r1,#0]
        0x000022de:    4913        .I      LDR      r1,[pc,#76] ; [0x232c] = 0x5000c010
        0x000022e0:    2001        .       MOVS     r0,#1
        0x000022e2:    6008        .`      STR      r0,[r1,#0]
        0x000022e4:    4812        .H      LDR      r0,[pc,#72] ; [0x2330] = 0x20000008
        0x000022e6:    6800        .h      LDR      r0,[r0,#0]
        0x000022e8:    08c0        ..      LSRS     r0,r0,#3
        0x000022ea:    9000        ..      STR      r0,[sp,#0]
        0x000022ec:    e7ff        ..      B        0x22ee ; FMC_SetVectorPageAddr + 38
        0x000022ee:    480f        .H      LDR      r0,[pc,#60] ; [0x232c] = 0x5000c010
        0x000022f0:    6800        .h      LDR      r0,[r0,#0]
        0x000022f2:    2800        .(      CMP      r0,#0
        0x000022f4:    d00d        ..      BEQ      0x2312 ; FMC_SetVectorPageAddr + 74
        0x000022f6:    e7ff        ..      B        0x22f8 ; FMC_SetVectorPageAddr + 48
        0x000022f8:    9800        ..      LDR      r0,[sp,#0]
        0x000022fa:    1e40        @.      SUBS     r0,r0,#1
        0x000022fc:    9000        ..      STR      r0,[sp,#0]
        0x000022fe:    2800        .(      CMP      r0,#0
        0x00002300:    d106        ..      BNE      0x2310 ; FMC_SetVectorPageAddr + 72
        0x00002302:    e7ff        ..      B        0x2304 ; FMC_SetVectorPageAddr + 60
        0x00002304:    4906        .I      LDR      r1,[pc,#24] ; [0x2320] = 0x200010cc
        0x00002306:    2000        .       MOVS     r0,#0
        0x00002308:    43c0        .C      MVNS     r0,r0
        0x0000230a:    6008        .`      STR      r0,[r1,#0]
        0x0000230c:    9002        ..      STR      r0,[sp,#8]
        0x0000230e:    e003        ..      B        0x2318 ; FMC_SetVectorPageAddr + 80
        0x00002310:    e7ed        ..      B        0x22ee ; FMC_SetVectorPageAddr + 38
        0x00002312:    2000        .       MOVS     r0,#0
        0x00002314:    9002        ..      STR      r0,[sp,#8]
        0x00002316:    e7ff        ..      B        0x2318 ; FMC_SetVectorPageAddr + 80
        0x00002318:    9802        ..      LDR      r0,[sp,#8]
        0x0000231a:    b003        ..      ADD      sp,sp,#0xc
        0x0000231c:    4770        pG      BX       lr
        0x0000231e:    46c0        .F      MOV      r8,r8
    $d
    __arm_cp.15_0
        0x00002320:    200010cc    ...     DCD    536875212
    __arm_cp.15_1
        0x00002324:    5000c00c    ...P    DCD    1342226444
    __arm_cp.15_2
        0x00002328:    5000c004    ...P    DCD    1342226436
    __arm_cp.15_3
        0x0000232c:    5000c010    ...P    DCD    1342226448
    __arm_cp.15_4
        0x00002330:    20000008    ...     DCD    536870920
    $t
    GPIO_Mode_Init
        0x00002334:    b5f0        ..      PUSH     {r4-r7,lr}
        0x00002336:    b087        ..      SUB      sp,sp,#0x1c
        0x00002338:    4849        IH      LDR      r0,[pc,#292] ; [0x2460] = 0x5000420c
        0x0000233a:    2501        .%      MOVS     r5,#1
        0x0000233c:    9502        ..      STR      r5,[sp,#8]
        0x0000233e:    6005        .`      STR      r5,[r0,#0]
        0x00002340:    4848        HH      LDR      r0,[pc,#288] ; [0x2464] = 0x5000435c
        0x00002342:    6005        .`      STR      r5,[r0,#0]
        0x00002344:    4948        HI      LDR      r1,[pc,#288] ; [0x2468] = 0x50004000
        0x00002346:    6808        .h      LDR      r0,[r1,#0]
        0x00002348:    4328        (C      ORRS     r0,r0,r5
        0x0000234a:    2202        ."      MOVS     r2,#2
        0x0000234c:    43d2        .C      MVNS     r2,r2
        0x0000234e:    9200        ..      STR      r2,[sp,#0]
        0x00002350:    4010        .@      ANDS     r0,r0,r2
        0x00002352:    6008        .`      STR      r0,[r1,#0]
        0x00002354:    6808        .h      LDR      r0,[r1,#0]
        0x00002356:    2404        .$      MOVS     r4,#4
        0x00002358:    4320         C      ORRS     r0,r0,r4
        0x0000235a:    2208        ."      MOVS     r2,#8
        0x0000235c:    43d2        .C      MVNS     r2,r2
        0x0000235e:    4010        .@      ANDS     r0,r0,r2
        0x00002360:    6008        .`      STR      r0,[r1,#0]
        0x00002362:    6808        .h      LDR      r0,[r1,#0]
        0x00002364:    2310        .#      MOVS     r3,#0x10
        0x00002366:    9304        ..      STR      r3,[sp,#0x10]
        0x00002368:    4318        .C      ORRS     r0,r0,r3
        0x0000236a:    2320         #      MOVS     r3,#0x20
        0x0000236c:    43de        .C      MVNS     r6,r3
        0x0000236e:    9605        ..      STR      r6,[sp,#0x14]
        0x00002370:    4030        0@      ANDS     r0,r0,r6
        0x00002372:    6008        .`      STR      r0,[r1,#0]
        0x00002374:    6808        .h      LDR      r0,[r1,#0]
        0x00002376:    2380        .#      MOVS     r3,#0x80
        0x00002378:    4318        .C      ORRS     r0,r0,r3
        0x0000237a:    2740        @'      MOVS     r7,#0x40
        0x0000237c:    43b8        .C      BICS     r0,r0,r7
        0x0000237e:    6008        .`      STR      r0,[r1,#0]
        0x00002380:    493a        :I      LDR      r1,[pc,#232] ; [0x246c] = 0x50004040
        0x00002382:    6808        .h      LDR      r0,[r1,#0]
        0x00002384:    4328        (C      ORRS     r0,r0,r5
        0x00002386:    9d00        ..      LDR      r5,[sp,#0]
        0x00002388:    4028        (@      ANDS     r0,r0,r5
        0x0000238a:    6008        .`      STR      r0,[r1,#0]
        0x0000238c:    6808        .h      LDR      r0,[r1,#0]
        0x0000238e:    4320         C      ORRS     r0,r0,r4
        0x00002390:    9c02        ..      LDR      r4,[sp,#8]
        0x00002392:    4010        .@      ANDS     r0,r0,r2
        0x00002394:    6008        .`      STR      r0,[r1,#0]
        0x00002396:    6808        .h      LDR      r0,[r1,#0]
        0x00002398:    2230        0"      MOVS     r2,#0x30
        0x0000239a:    4310        .C      ORRS     r0,r0,r2
        0x0000239c:    6008        .`      STR      r0,[r1,#0]
        0x0000239e:    6808        .h      LDR      r0,[r1,#0]
        0x000023a0:    22c0        ."      MOVS     r2,#0xc0
        0x000023a2:    4310        .C      ORRS     r0,r0,r2
        0x000023a4:    6008        .`      STR      r0,[r1,#0]
        0x000023a6:    6808        .h      LDR      r0,[r1,#0]
        0x000023a8:    2203        ."      MOVS     r2,#3
        0x000023aa:    9201        ..      STR      r2,[sp,#4]
        0x000023ac:    0212        ..      LSLS     r2,r2,#8
        0x000023ae:    4310        .C      ORRS     r0,r0,r2
        0x000023b0:    9a01        ..      LDR      r2,[sp,#4]
        0x000023b2:    6008        .`      STR      r0,[r1,#0]
        0x000023b4:    6808        .h      LDR      r0,[r1,#0]
        0x000023b6:    0292        ..      LSLS     r2,r2,#10
        0x000023b8:    4310        .C      ORRS     r0,r0,r2
        0x000023ba:    9a01        ..      LDR      r2,[sp,#4]
        0x000023bc:    6008        .`      STR      r0,[r1,#0]
        0x000023be:    6808        .h      LDR      r0,[r1,#0]
        0x000023c0:    0312        ..      LSLS     r2,r2,#12
        0x000023c2:    4310        .C      ORRS     r0,r0,r2
        0x000023c4:    9a01        ..      LDR      r2,[sp,#4]
        0x000023c6:    6008        .`      STR      r0,[r1,#0]
        0x000023c8:    6808        .h      LDR      r0,[r1,#0]
        0x000023ca:    0392        ..      LSLS     r2,r2,#14
        0x000023cc:    4310        .C      ORRS     r0,r0,r2
        0x000023ce:    9a04        ..      LDR      r2,[sp,#0x10]
        0x000023d0:    6008        .`      STR      r0,[r1,#0]
        0x000023d2:    4927        'I      LDR      r1,[pc,#156] ; [0x2470] = 0x50004080
        0x000023d4:    6808        .h      LDR      r0,[r1,#0]
        0x000023d6:    4320         C      ORRS     r0,r0,r4
        0x000023d8:    4028        (@      ANDS     r0,r0,r5
        0x000023da:    6008        .`      STR      r0,[r1,#0]
        0x000023dc:    6808        .h      LDR      r0,[r1,#0]
        0x000023de:    4d25        %M      LDR      r5,[pc,#148] ; [0x2474] = 0xfffffcff
        0x000023e0:    4028        (@      ANDS     r0,r0,r5
        0x000023e2:    0224        $.      LSLS     r4,r4,#8
        0x000023e4:    1900        ..      ADDS     r0,r0,r4
        0x000023e6:    6008        .`      STR      r0,[r1,#0]
        0x000023e8:    4923        #I      LDR      r1,[pc,#140] ; [0x2478] = 0x500040c0
        0x000023ea:    6808        .h      LDR      r0,[r1,#0]
        0x000023ec:    4310        .C      ORRS     r0,r0,r2
        0x000023ee:    9a02        ..      LDR      r2,[sp,#8]
        0x000023f0:    4030        0@      ANDS     r0,r0,r6
        0x000023f2:    6008        .`      STR      r0,[r1,#0]
        0x000023f4:    6808        .h      LDR      r0,[r1,#0]
        0x000023f6:    4338        8C      ORRS     r0,r0,r7
        0x000023f8:    43de        .C      MVNS     r6,r3
        0x000023fa:    4030        0@      ANDS     r0,r0,r6
        0x000023fc:    6008        .`      STR      r0,[r1,#0]
        0x000023fe:    6808        .h      LDR      r0,[r1,#0]
        0x00002400:    4b1e        .K      LDR      r3,[pc,#120] ; [0x247c] = 0xffff3fff
        0x00002402:    4018        .@      ANDS     r0,r0,r3
        0x00002404:    0392        ..      LSLS     r2,r2,#14
        0x00002406:    1880        ..      ADDS     r0,r0,r2
        0x00002408:    6008        .`      STR      r0,[r1,#0]
        0x0000240a:    9902        ..      LDR      r1,[sp,#8]
        0x0000240c:    481c        .H      LDR      r0,[pc,#112] ; [0x2480] = 0x50004100
        0x0000240e:    9003        ..      STR      r0,[sp,#0xc]
        0x00002410:    6800        .h      LDR      r0,[r0,#0]
        0x00002412:    4308        .C      ORRS     r0,r0,r1
        0x00002414:    9900        ..      LDR      r1,[sp,#0]
        0x00002416:    4008        .@      ANDS     r0,r0,r1
        0x00002418:    9903        ..      LDR      r1,[sp,#0xc]
        0x0000241a:    6008        .`      STR      r0,[r1,#0]
        0x0000241c:    9901        ..      LDR      r1,[sp,#4]
        0x0000241e:    9803        ..      LDR      r0,[sp,#0xc]
        0x00002420:    6800        .h      LDR      r0,[r0,#0]
        0x00002422:    0509        ..      LSLS     r1,r1,#20
        0x00002424:    4388        .C      BICS     r0,r0,r1
        0x00002426:    9902        ..      LDR      r1,[sp,#8]
        0x00002428:    0509        ..      LSLS     r1,r1,#20
        0x0000242a:    1840        @.      ADDS     r0,r0,r1
        0x0000242c:    9903        ..      LDR      r1,[sp,#0xc]
        0x0000242e:    6008        .`      STR      r0,[r1,#0]
        0x00002430:    9904        ..      LDR      r1,[sp,#0x10]
        0x00002432:    4814        .H      LDR      r0,[pc,#80] ; [0x2484] = 0x50004140
        0x00002434:    9006        ..      STR      r0,[sp,#0x18]
        0x00002436:    6800        .h      LDR      r0,[r0,#0]
        0x00002438:    4308        .C      ORRS     r0,r0,r1
        0x0000243a:    9905        ..      LDR      r1,[sp,#0x14]
        0x0000243c:    4008        .@      ANDS     r0,r0,r1
        0x0000243e:    9906        ..      LDR      r1,[sp,#0x18]
        0x00002440:    6008        .`      STR      r0,[r1,#0]
        0x00002442:    6808        .h      LDR      r0,[r1,#0]
        0x00002444:    4338        8C      ORRS     r0,r0,r7
        0x00002446:    4030        0@      ANDS     r0,r0,r6
        0x00002448:    6008        .`      STR      r0,[r1,#0]
        0x0000244a:    6808        .h      LDR      r0,[r1,#0]
        0x0000244c:    4028        (@      ANDS     r0,r0,r5
        0x0000244e:    1900        ..      ADDS     r0,r0,r4
        0x00002450:    6008        .`      STR      r0,[r1,#0]
        0x00002452:    6808        .h      LDR      r0,[r1,#0]
        0x00002454:    4018        .@      ANDS     r0,r0,r3
        0x00002456:    1880        ..      ADDS     r0,r0,r2
        0x00002458:    6008        .`      STR      r0,[r1,#0]
        0x0000245a:    b007        ..      ADD      sp,sp,#0x1c
        0x0000245c:    bdf0        ..      POP      {r4-r7,pc}
        0x0000245e:    46c0        .F      MOV      r8,r8
    $d
    __arm_cp.16_0
        0x00002460:    5000420c    .B.P    DCD    1342194188
    __arm_cp.16_1
        0x00002464:    5000435c    \C.P    DCD    1342194524
    __arm_cp.16_2
        0x00002468:    50004000    .@.P    DCD    1342193664
    __arm_cp.16_3
        0x0000246c:    50004040    @@.P    DCD    1342193728
    __arm_cp.16_4
        0x00002470:    50004080    .@.P    DCD    1342193792
    __arm_cp.16_5
        0x00002474:    fffffcff    ....    DCD    4294966527
    __arm_cp.16_6
        0x00002478:    500040c0    .@.P    DCD    1342193856
    __arm_cp.16_7
        0x0000247c:    ffff3fff    .?..    DCD    4294918143
    __arm_cp.16_8
        0x00002480:    50004100    .A.P    DCD    1342193920
    __arm_cp.16_9
        0x00002484:    50004140    @A.P    DCD    1342193984
    $t
    GetMeterDataAddress
        0x00002488:    b081        ..      SUB      sp,sp,#4
        0x0000248a:    4601        .F      MOV      r1,r0
        0x0000248c:    4668        hF      MOV      r0,sp
        0x0000248e:    7001        .p      STRB     r1,[r0,#0]
        0x00002490:    7801        .x      LDRB     r1,[r0,#0]
        0x00002492:    2024        $       MOVS     r0,#0x24
        0x00002494:    4348        HC      MULS     r0,r1,r0
        0x00002496:    b001        ..      ADD      sp,sp,#4
        0x00002498:    4770        pG      BX       lr
        0x0000249a:    0000        ..      MOVS     r0,r0
    HostProcess
        0x0000249c:    b580        ..      PUSH     {r7,lr}
        0x0000249e:    b086        ..      SUB      sp,sp,#0x18
        0x000024a0:    4873        sH      LDR      r0,[pc,#460] ; [0x2670] = 0x200010c5
        0x000024a2:    7800        .x      LDRB     r0,[r0,#0]
        0x000024a4:    07c0        ..      LSLS     r0,r0,#31
        0x000024a6:    2800        .(      CMP      r0,#0
        0x000024a8:    d006        ..      BEQ      0x24b8 ; HostProcess + 28
        0x000024aa:    e7ff        ..      B        0x24ac ; HostProcess + 16
        0x000024ac:    4970        pI      LDR      r1,[pc,#448] ; [0x2670] = 0x200010c5
        0x000024ae:    2000        .       MOVS     r0,#0
        0x000024b0:    7008        .p      STRB     r0,[r1,#0]
        0x000024b2:    f001fefb    ....    BL       SendHost_MenterFWActivatedInfo ; 0x42ac
        0x000024b6:    e7ff        ..      B        0x24b8 ; HostProcess + 28
        0x000024b8:    486e        nH      LDR      r0,[pc,#440] ; [0x2674] = 0x20000f74
        0x000024ba:    7800        .x      LDRB     r0,[r0,#0]
        0x000024bc:    2831        1(      CMP      r0,#0x31
        0x000024be:    d107        ..      BNE      0x24d0 ; HostProcess + 52
        0x000024c0:    e7ff        ..      B        0x24c2 ; HostProcess + 38
        0x000024c2:    496c        lI      LDR      r1,[pc,#432] ; [0x2674] = 0x20000f74
        0x000024c4:    7808        .x      LDRB     r0,[r1,#0]
        0x000024c6:    1c40        @.      ADDS     r0,r0,#1
        0x000024c8:    7008        .p      STRB     r0,[r1,#0]
        0x000024ca:    f001fd19    ....    BL       ResetHostUART ; 0x3f00
        0x000024ce:    e7ff        ..      B        0x24d0 ; HostProcess + 52
        0x000024d0:    4869        iH      LDR      r0,[pc,#420] ; [0x2678] = 0x2000009c
        0x000024d2:    7800        .x      LDRB     r0,[r0,#0]
        0x000024d4:    2800        .(      CMP      r0,#0
        0x000024d6:    d100        ..      BNE      0x24da ; HostProcess + 62
        0x000024d8:    e095        ..      B        0x2606 ; HostProcess + 362
        0x000024da:    4967        gI      LDR      r1,[pc,#412] ; [0x2678] = 0x2000009c
        0x000024dc:    2000        .       MOVS     r0,#0
        0x000024de:    7008        .p      STRB     r0,[r1,#0]
        0x000024e0:    a903        ..      ADD      r1,sp,#0xc
        0x000024e2:    7008        .p      STRB     r0,[r1,#0]
        0x000024e4:    a904        ..      ADD      r1,sp,#0x10
        0x000024e6:    7008        .p      STRB     r0,[r1,#0]
        0x000024e8:    a905        ..      ADD      r1,sp,#0x14
        0x000024ea:    2001        .       MOVS     r0,#1
        0x000024ec:    7008        .p      STRB     r0,[r1,#0]
        0x000024ee:    e7ff        ..      B        0x24f0 ; HostProcess + 84
        0x000024f0:    a805        ..      ADD      r0,sp,#0x14
        0x000024f2:    7800        .x      LDRB     r0,[r0,#0]
        0x000024f4:    2861        a(      CMP      r0,#0x61
        0x000024f6:    dc0e        ..      BGT      0x2516 ; HostProcess + 122
        0x000024f8:    e7ff        ..      B        0x24fa ; HostProcess + 94
        0x000024fa:    a805        ..      ADD      r0,sp,#0x14
        0x000024fc:    7801        .x      LDRB     r1,[r0,#0]
        0x000024fe:    48ee        .H      LDR      r0,[pc,#952] ; [0x28b8] = 0x20000f7e
        0x00002500:    5c41        A\      LDRB     r1,[r0,r1]
        0x00002502:    9804        ..      LDR      r0,[sp,#0x10]
        0x00002504:    1840        @.      ADDS     r0,r0,r1
        0x00002506:    a904        ..      ADD      r1,sp,#0x10
        0x00002508:    7008        .p      STRB     r0,[r1,#0]
        0x0000250a:    e7ff        ..      B        0x250c ; HostProcess + 112
        0x0000250c:    9805        ..      LDR      r0,[sp,#0x14]
        0x0000250e:    1c40        @.      ADDS     r0,r0,#1
        0x00002510:    a905        ..      ADD      r1,sp,#0x14
        0x00002512:    7008        .p      STRB     r0,[r1,#0]
        0x00002514:    e7ec        ..      B        0x24f0 ; HostProcess + 84
        0x00002516:    9804        ..      LDR      r0,[sp,#0x10]
        0x00002518:    4958        XI      LDR      r1,[pc,#352] ; [0x267c] = 0x200001e8
        0x0000251a:    7008        .p      STRB     r0,[r1,#0]
        0x0000251c:    48e6        .H      LDR      r0,[pc,#920] ; [0x28b8] = 0x20000f7e
        0x0000251e:    7800        .x      LDRB     r0,[r0,#0]
        0x00002520:    2855        U(      CMP      r0,#0x55
        0x00002522:    d116        ..      BNE      0x2552 ; HostProcess + 182
        0x00002524:    e7ff        ..      B        0x2526 ; HostProcess + 138
        0x00002526:    48e4        .H      LDR      r0,[pc,#912] ; [0x28b8] = 0x20000f7e
        0x00002528:    2162        b!      MOVS     r1,#0x62
        0x0000252a:    5c40        @\      LDRB     r0,[r0,r1]
        0x0000252c:    a904        ..      ADD      r1,sp,#0x10
        0x0000252e:    7809        .x      LDRB     r1,[r1,#0]
        0x00002530:    4288        .B      CMP      r0,r1
        0x00002532:    d10e        ..      BNE      0x2552 ; HostProcess + 182
        0x00002534:    e7ff        ..      B        0x2536 ; HostProcess + 154
        0x00002536:    48e0        .H      LDR      r0,[pc,#896] ; [0x28b8] = 0x20000f7e
        0x00002538:    2163        c!      MOVS     r1,#0x63
        0x0000253a:    5c40        @\      LDRB     r0,[r0,r1]
        0x0000253c:    280a        .(      CMP      r0,#0xa
        0x0000253e:    d108        ..      BNE      0x2552 ; HostProcess + 182
        0x00002540:    e7ff        ..      B        0x2542 ; HostProcess + 166
        0x00002542:    a903        ..      ADD      r1,sp,#0xc
        0x00002544:    2001        .       MOVS     r0,#1
        0x00002546:    7008        .p      STRB     r0,[r1,#0]
        0x00002548:    48db        .H      LDR      r0,[pc,#876] ; [0x28b8] = 0x20000f7e
        0x0000254a:    7840        @x      LDRB     r0,[r0,#1]
        0x0000254c:    494c        LI      LDR      r1,[pc,#304] ; [0x2680] = 0x20000239
        0x0000254e:    7008        .p      STRB     r0,[r1,#0]
        0x00002550:    e7ff        ..      B        0x2552 ; HostProcess + 182
        0x00002552:    a803        ..      ADD      r0,sp,#0xc
        0x00002554:    7800        .x      LDRB     r0,[r0,#0]
        0x00002556:    2800        .(      CMP      r0,#0
        0x00002558:    d051        Q.      BEQ      0x25fe ; HostProcess + 354
        0x0000255a:    e7ff        ..      B        0x255c ; HostProcess + 192
        0x0000255c:    48d6        .H      LDR      r0,[pc,#856] ; [0x28b8] = 0x20000f7e
        0x0000255e:    7880        .x      LDRB     r0,[r0,#2]
        0x00002560:    2810        .(      CMP      r0,#0x10
        0x00002562:    d103        ..      BNE      0x256c ; HostProcess + 208
        0x00002564:    e7ff        ..      B        0x2566 ; HostProcess + 202
        0x00002566:    f000f8a1    ....    BL       Host_AliveProcess ; 0x26ac
        0x0000256a:    e7ff        ..      B        0x256c ; HostProcess + 208
        0x0000256c:    48d2        .H      LDR      r0,[pc,#840] ; [0x28b8] = 0x20000f7e
        0x0000256e:    7840        @x      LDRB     r0,[r0,#1]
        0x00002570:    4944        DI      LDR      r1,[pc,#272] ; [0x2684] = 0x20000d48
        0x00002572:    7809        .x      LDRB     r1,[r1,#0]
        0x00002574:    4288        .B      CMP      r0,r1
        0x00002576:    d005        ..      BEQ      0x2584 ; HostProcess + 232
        0x00002578:    e7ff        ..      B        0x257a ; HostProcess + 222
        0x0000257a:    48cf        .H      LDR      r0,[pc,#828] ; [0x28b8] = 0x20000f7e
        0x0000257c:    7840        @x      LDRB     r0,[r0,#1]
        0x0000257e:    28ff        .(      CMP      r0,#0xff
        0x00002580:    d13c        <.      BNE      0x25fc ; HostProcess + 352
        0x00002582:    e7ff        ..      B        0x2584 ; HostProcess + 232
        0x00002584:    48cc        .H      LDR      r0,[pc,#816] ; [0x28b8] = 0x20000f7e
        0x00002586:    7841        Ax      LDRB     r1,[r0,#1]
        0x00002588:    1e49        I.      SUBS     r1,r1,#1
        0x0000258a:    4a3f        ?J      LDR      r2,[pc,#252] ; [0x2688] = 0x20000104
        0x0000258c:    7011        .p      STRB     r1,[r2,#0]
        0x0000258e:    78c1        .x      LDRB     r1,[r0,#3]
        0x00002590:    4a3e        >J      LDR      r2,[pc,#248] ; [0x268c] = 0x200010c6
        0x00002592:    7011        .p      STRB     r1,[r2,#0]
        0x00002594:    7901        .y      LDRB     r1,[r0,#4]
        0x00002596:    aa02        ..      ADD      r2,sp,#8
        0x00002598:    7011        .p      STRB     r1,[r2,#0]
        0x0000259a:    9b02        ..      LDR      r3,[sp,#8]
        0x0000259c:    4a3c        <J      LDR      r2,[pc,#240] ; [0x2690] = 0x200010c7
        0x0000259e:    7811        .x      LDRB     r1,[r2,#0]
        0x000025a0:    4019        .@      ANDS     r1,r1,r3
        0x000025a2:    7011        .p      STRB     r1,[r2,#0]
        0x000025a4:    4a3b        ;J      LDR      r2,[pc,#236] ; [0x2694] = 0x50004348
        0x000025a6:    6811        .h      LDR      r1,[r2,#0]
        0x000025a8:    2301        .#      MOVS     r3,#1
        0x000025aa:    4059        Y@      EORS     r1,r1,r3
        0x000025ac:    6011        .`      STR      r1,[r2,#0]
        0x000025ae:    4a3a        :J      LDR      r2,[pc,#232] ; [0x2698] = 0x200010c8
        0x000025b0:    21ff        .!      MOVS     r1,#0xff
        0x000025b2:    7011        .p      STRB     r1,[r2,#0]
        0x000025b4:    7880        .x      LDRB     r0,[r0,#2]
        0x000025b6:    9001        ..      STR      r0,[sp,#4]
        0x000025b8:    2810        .(      CMP      r0,#0x10
        0x000025ba:    d008        ..      BEQ      0x25ce ; HostProcess + 306
        0x000025bc:    e7ff        ..      B        0x25be ; HostProcess + 290
        0x000025be:    9801        ..      LDR      r0,[sp,#4]
        0x000025c0:    2815        .(      CMP      r0,#0x15
        0x000025c2:    d00c        ..      BEQ      0x25de ; HostProcess + 322
        0x000025c4:    e7ff        ..      B        0x25c6 ; HostProcess + 298
        0x000025c6:    9801        ..      LDR      r0,[sp,#4]
        0x000025c8:    2817        .(      CMP      r0,#0x17
        0x000025ca:    d010        ..      BEQ      0x25ee ; HostProcess + 338
        0x000025cc:    e014        ..      B        0x25f8 ; HostProcess + 348
        0x000025ce:    f000f86d    ..m.    BL       Host_AliveProcess ; 0x26ac
        0x000025d2:    4932        2I      LDR      r1,[pc,#200] ; [0x269c] = 0x20000010
        0x000025d4:    2031        1       MOVS     r0,#0x31
        0x000025d6:    7008        .p      STRB     r0,[r1,#0]
        0x000025d8:    f7fffb94    ....    BL       ClearRespDelayTimer ; 0x1d04
        0x000025dc:    e00d        ..      B        0x25fa ; HostProcess + 350
        0x000025de:    f000f8f7    ....    BL       Host_GetPowerDataProcess ; 0x27d0
        0x000025e2:    492e        .I      LDR      r1,[pc,#184] ; [0x269c] = 0x20000010
        0x000025e4:    2033        3       MOVS     r0,#0x33
        0x000025e6:    7008        .p      STRB     r0,[r1,#0]
        0x000025e8:    f7fffb8c    ....    BL       ClearRespDelayTimer ; 0x1d04
        0x000025ec:    e005        ..      B        0x25fa ; HostProcess + 350
        0x000025ee:    f000f90d    ....    BL       Host_OTAMenterProcess ; 0x280c
        0x000025f2:    f7fffb87    ....    BL       ClearRespDelayTimer ; 0x1d04
        0x000025f6:    e000        ..      B        0x25fa ; HostProcess + 350
        0x000025f8:    e7ff        ..      B        0x25fa ; HostProcess + 350
        0x000025fa:    e7ff        ..      B        0x25fc ; HostProcess + 352
        0x000025fc:    e002        ..      B        0x2604 ; HostProcess + 360
        0x000025fe:    f001fc7f    ....    BL       ResetHostUART ; 0x3f00
        0x00002602:    e7ff        ..      B        0x2604 ; HostProcess + 360
        0x00002604:    e7ff        ..      B        0x2606 ; HostProcess + 362
        0x00002606:    4826        &H      LDR      r0,[pc,#152] ; [0x26a0] = 0x200010b8
        0x00002608:    7800        .x      LDRB     r0,[r0,#0]
        0x0000260a:    2800        .(      CMP      r0,#0
        0x0000260c:    d02d        -.      BEQ      0x266a ; HostProcess + 462
        0x0000260e:    e7ff        ..      B        0x2610 ; HostProcess + 372
        0x00002610:    4824        $H      LDR      r0,[pc,#144] ; [0x26a4] = 0x200010ef
        0x00002612:    7800        .x      LDRB     r0,[r0,#0]
        0x00002614:    4924        $I      LDR      r1,[pc,#144] ; [0x26a8] = 0x20001060
        0x00002616:    7809        .x      LDRB     r1,[r1,#0]
        0x00002618:    4288        .B      CMP      r0,r1
        0x0000261a:    dd25        %.      BLE      0x2668 ; HostProcess + 460
        0x0000261c:    e7ff        ..      B        0x261e ; HostProcess + 386
        0x0000261e:    4920         I      LDR      r1,[pc,#128] ; [0x26a0] = 0x200010b8
        0x00002620:    2000        .       MOVS     r0,#0
        0x00002622:    7008        .p      STRB     r0,[r1,#0]
        0x00002624:    4818        .H      LDR      r0,[pc,#96] ; [0x2688] = 0x20000104
        0x00002626:    7800        .x      LDRB     r0,[r0,#0]
        0x00002628:    1c40        @.      ADDS     r0,r0,#1
        0x0000262a:    4916        .I      LDR      r1,[pc,#88] ; [0x2684] = 0x20000d48
        0x0000262c:    7809        .x      LDRB     r1,[r1,#0]
        0x0000262e:    4288        .B      CMP      r0,r1
        0x00002630:    d119        ..      BNE      0x2666 ; HostProcess + 458
        0x00002632:    e7ff        ..      B        0x2634 ; HostProcess + 408
        0x00002634:    4819        .H      LDR      r0,[pc,#100] ; [0x269c] = 0x20000010
        0x00002636:    7800        .x      LDRB     r0,[r0,#0]
        0x00002638:    9000        ..      STR      r0,[sp,#0]
        0x0000263a:    2830        0(      CMP      r0,#0x30
        0x0000263c:    d00b        ..      BEQ      0x2656 ; HostProcess + 442
        0x0000263e:    e7ff        ..      B        0x2640 ; HostProcess + 420
        0x00002640:    9800        ..      LDR      r0,[sp,#0]
        0x00002642:    2831        1(      CMP      r0,#0x31
        0x00002644:    d004        ..      BEQ      0x2650 ; HostProcess + 436
        0x00002646:    e7ff        ..      B        0x2648 ; HostProcess + 428
        0x00002648:    9800        ..      LDR      r0,[sp,#0]
        0x0000264a:    2833        3(      CMP      r0,#0x33
        0x0000264c:    d006        ..      BEQ      0x265c ; HostProcess + 448
        0x0000264e:    e008        ..      B        0x2662 ; HostProcess + 454
        0x00002650:    f001ffc6    ....    BL       SendHost_SystemInformation ; 0x45e0
        0x00002654:    e006        ..      B        0x2664 ; HostProcess + 456
        0x00002656:    f001fdfd    ....    BL       SendHost_Ack ; 0x4254
        0x0000265a:    e003        ..      B        0x2664 ; HostProcess + 456
        0x0000265c:    f001fe56    ..V.    BL       SendHost_PowerData ; 0x430c
        0x00002660:    e000        ..      B        0x2664 ; HostProcess + 456
        0x00002662:    e7ff        ..      B        0x2664 ; HostProcess + 456
        0x00002664:    e7ff        ..      B        0x2666 ; HostProcess + 458
        0x00002666:    e7ff        ..      B        0x2668 ; HostProcess + 460
        0x00002668:    e7ff        ..      B        0x266a ; HostProcess + 462
        0x0000266a:    b006        ..      ADD      sp,sp,#0x18
        0x0000266c:    bd80        ..      POP      {r7,pc}
        0x0000266e:    46c0        .F      MOV      r8,r8
    $d
    __arm_cp.0_0
        0x00002670:    200010c5    ...     DCD    536875205
    __arm_cp.0_1
        0x00002674:    20000f74    t..     DCD    536874868
    __arm_cp.0_2
        0x00002678:    2000009c    ...     DCD    536871068
    __arm_cp.0_3
        0x0000267c:    200001e8    ...     DCD    536871400
    __arm_cp.0_5
        0x00002680:    20000239    9..     DCD    536871481
    __arm_cp.0_6
        0x00002684:    20000d48    H..     DCD    536874312
    __arm_cp.0_7
        0x00002688:    20000104    ...     DCD    536871172
    __arm_cp.0_8
        0x0000268c:    200010c6    ...     DCD    536875206
    __arm_cp.0_9
        0x00002690:    200010c7    ...     DCD    536875207
    __arm_cp.0_10
        0x00002694:    50004348    HC.P    DCD    1342194504
    __arm_cp.0_11
        0x00002698:    200010c8    ...     DCD    536875208
    __arm_cp.0_12
        0x0000269c:    20000010    ...     DCD    536870928
    __arm_cp.0_13
        0x000026a0:    200010b8    ...     DCD    536875192
    __arm_cp.0_14
        0x000026a4:    200010ef    ...     DCD    536875247
    __arm_cp.0_15
        0x000026a8:    20001060    `..     DCD    536875104
    $t
    Host_AliveProcess
        0x000026ac:    b084        ..      SUB      sp,sp,#0x10
        0x000026ae:    a903        ..      ADD      r1,sp,#0xc
        0x000026b0:    2000        .       MOVS     r0,#0
        0x000026b2:    7008        .p      STRB     r0,[r1,#0]
        0x000026b4:    e7ff        ..      B        0x26b6 ; Host_AliveProcess + 10
        0x000026b6:    a803        ..      ADD      r0,sp,#0xc
        0x000026b8:    7800        .x      LDRB     r0,[r0,#0]
        0x000026ba:    2806        .(      CMP      r0,#6
        0x000026bc:    dc0e        ..      BGT      0x26dc ; Host_AliveProcess + 48
        0x000026be:    e7ff        ..      B        0x26c0 ; Host_AliveProcess + 20
        0x000026c0:    a803        ..      ADD      r0,sp,#0xc
        0x000026c2:    7802        .x      LDRB     r2,[r0,#0]
        0x000026c4:    487c        |H      LDR      r0,[pc,#496] ; [0x28b8] = 0x20000f7e
        0x000026c6:    1810        ..      ADDS     r0,r2,r0
        0x000026c8:    215b        [!      MOVS     r1,#0x5b
        0x000026ca:    5c40        @\      LDRB     r0,[r0,r1]
        0x000026cc:    497f        .I      LDR      r1,[pc,#508] ; [0x28cc] = 0x200010e8
        0x000026ce:    5488        .T      STRB     r0,[r1,r2]
        0x000026d0:    e7ff        ..      B        0x26d2 ; Host_AliveProcess + 38
        0x000026d2:    9803        ..      LDR      r0,[sp,#0xc]
        0x000026d4:    1c40        @.      ADDS     r0,r0,#1
        0x000026d6:    a903        ..      ADD      r1,sp,#0xc
        0x000026d8:    7008        .p      STRB     r0,[r1,#0]
        0x000026da:    e7ec        ..      B        0x26b6 ; Host_AliveProcess + 10
        0x000026dc:    4976        vI      LDR      r1,[pc,#472] ; [0x28b8] = 0x20000f7e
        0x000026de:    794a        Jy      LDRB     r2,[r1,#5]
        0x000026e0:    a801        ..      ADD      r0,sp,#4
        0x000026e2:    7002        .p      STRB     r2,[r0,#0]
        0x000026e4:    798a        .y      LDRB     r2,[r1,#6]
        0x000026e6:    4669        iF      MOV      r1,sp
        0x000026e8:    700a        .p      STRB     r2,[r1,#0]
        0x000026ea:    7800        .x      LDRB     r0,[r0,#0]
        0x000026ec:    7809        .x      LDRB     r1,[r1,#0]
        0x000026ee:    22ff        ."      MOVS     r2,#0xff
        0x000026f0:    4051        Q@      EORS     r1,r1,r2
        0x000026f2:    4288        .B      CMP      r0,r1
        0x000026f4:    d104        ..      BNE      0x2700 ; Host_AliveProcess + 84
        0x000026f6:    e7ff        ..      B        0x26f8 ; Host_AliveProcess + 76
        0x000026f8:    9801        ..      LDR      r0,[sp,#4]
        0x000026fa:    4931        1I      LDR      r1,[pc,#196] ; [0x27c0] = 0x20000238
        0x000026fc:    7008        .p      STRB     r0,[r1,#0]
        0x000026fe:    e7ff        ..      B        0x2700 ; Host_AliveProcess + 84
        0x00002700:    496d        mI      LDR      r1,[pc,#436] ; [0x28b8] = 0x20000f7e
        0x00002702:    79ca        .y      LDRB     r2,[r1,#7]
        0x00002704:    a801        ..      ADD      r0,sp,#4
        0x00002706:    7002        .p      STRB     r2,[r0,#0]
        0x00002708:    7a0a        .z      LDRB     r2,[r1,#8]
        0x0000270a:    4669        iF      MOV      r1,sp
        0x0000270c:    700a        .p      STRB     r2,[r1,#0]
        0x0000270e:    7800        .x      LDRB     r0,[r0,#0]
        0x00002710:    7809        .x      LDRB     r1,[r1,#0]
        0x00002712:    22ff        ."      MOVS     r2,#0xff
        0x00002714:    4051        Q@      EORS     r1,r1,r2
        0x00002716:    4288        .B      CMP      r0,r1
        0x00002718:    d123        #.      BNE      0x2762 ; Host_AliveProcess + 182
        0x0000271a:    e7ff        ..      B        0x271c ; Host_AliveProcess + 112
        0x0000271c:    a801        ..      ADD      r0,sp,#4
        0x0000271e:    7800        .x      LDRB     r0,[r0,#0]
        0x00002720:    2830        0(      CMP      r0,#0x30
        0x00002722:    d11d        ..      BNE      0x2760 ; Host_AliveProcess + 180
        0x00002724:    e7ff        ..      B        0x2726 ; Host_AliveProcess + 122
        0x00002726:    a902        ..      ADD      r1,sp,#8
        0x00002728:    2009        .       MOVS     r0,#9
        0x0000272a:    7008        .p      STRB     r0,[r1,#0]
        0x0000272c:    a903        ..      ADD      r1,sp,#0xc
        0x0000272e:    2000        .       MOVS     r0,#0
        0x00002730:    7008        .p      STRB     r0,[r1,#0]
        0x00002732:    e7ff        ..      B        0x2734 ; Host_AliveProcess + 136
        0x00002734:    a803        ..      ADD      r0,sp,#0xc
        0x00002736:    7800        .x      LDRB     r0,[r0,#0]
        0x00002738:    281e        .(      CMP      r0,#0x1e
        0x0000273a:    dc10        ..      BGT      0x275e ; Host_AliveProcess + 178
        0x0000273c:    e7ff        ..      B        0x273e ; Host_AliveProcess + 146
        0x0000273e:    aa02        ..      ADD      r2,sp,#8
        0x00002740:    7811        .x      LDRB     r1,[r2,#0]
        0x00002742:    1c48        H.      ADDS     r0,r1,#1
        0x00002744:    7010        .p      STRB     r0,[r2,#0]
        0x00002746:    485c        \H      LDR      r0,[pc,#368] ; [0x28b8] = 0x20000f7e
        0x00002748:    5c40        @\      LDRB     r0,[r0,r1]
        0x0000274a:    a903        ..      ADD      r1,sp,#0xc
        0x0000274c:    780a        .x      LDRB     r2,[r1,#0]
        0x0000274e:    491f        .I      LDR      r1,[pc,#124] ; [0x27cc] = 0x20000f27
        0x00002750:    5488        .T      STRB     r0,[r1,r2]
        0x00002752:    e7ff        ..      B        0x2754 ; Host_AliveProcess + 168
        0x00002754:    9803        ..      LDR      r0,[sp,#0xc]
        0x00002756:    1c40        @.      ADDS     r0,r0,#1
        0x00002758:    a903        ..      ADD      r1,sp,#0xc
        0x0000275a:    7008        .p      STRB     r0,[r1,#0]
        0x0000275c:    e7ea        ..      B        0x2734 ; Host_AliveProcess + 136
        0x0000275e:    e7ff        ..      B        0x2760 ; Host_AliveProcess + 180
        0x00002760:    e7ff        ..      B        0x2762 ; Host_AliveProcess + 182
        0x00002762:    485a        ZH      LDR      r0,[pc,#360] ; [0x28cc] = 0x200010e8
        0x00002764:    7900        .y      LDRB     r0,[r0,#4]
        0x00002766:    2800        .(      CMP      r0,#0
        0x00002768:    d128        (.      BNE      0x27bc ; Host_AliveProcess + 272
        0x0000276a:    e7ff        ..      B        0x276c ; Host_AliveProcess + 192
        0x0000276c:    4857        WH      LDR      r0,[pc,#348] ; [0x28cc] = 0x200010e8
        0x0000276e:    7940        @y      LDRB     r0,[r0,#5]
        0x00002770:    2800        .(      CMP      r0,#0
        0x00002772:    d123        #.      BNE      0x27bc ; Host_AliveProcess + 272
        0x00002774:    e7ff        ..      B        0x2776 ; Host_AliveProcess + 202
        0x00002776:    a903        ..      ADD      r1,sp,#0xc
        0x00002778:    2000        .       MOVS     r0,#0
        0x0000277a:    7008        .p      STRB     r0,[r1,#0]
        0x0000277c:    e7ff        ..      B        0x277e ; Host_AliveProcess + 210
        0x0000277e:    a803        ..      ADD      r0,sp,#0xc
        0x00002780:    7800        .x      LDRB     r0,[r0,#0]
        0x00002782:    281e        .(      CMP      r0,#0x1e
        0x00002784:    dc19        ..      BGT      0x27ba ; Host_AliveProcess + 270
        0x00002786:    e7ff        ..      B        0x2788 ; Host_AliveProcess + 220
        0x00002788:    a803        ..      ADD      r0,sp,#0xc
        0x0000278a:    7800        .x      LDRB     r0,[r0,#0]
        0x0000278c:    0081        ..      LSLS     r1,r0,#2
        0x0000278e:    480d        .H      LDR      r0,[pc,#52] ; [0x27c4] = 0x20000dd4
        0x00002790:    5840        @X      LDR      r0,[r0,r1]
        0x00002792:    280b        .(      CMP      r0,#0xb
        0x00002794:    d30b        ..      BCC      0x27ae ; Host_AliveProcess + 258
        0x00002796:    e7ff        ..      B        0x2798 ; Host_AliveProcess + 236
        0x00002798:    a903        ..      ADD      r1,sp,#0xc
        0x0000279a:    7808        .x      LDRB     r0,[r1,#0]
        0x0000279c:    0083        ..      LSLS     r3,r0,#2
        0x0000279e:    4a09        .J      LDR      r2,[pc,#36] ; [0x27c4] = 0x20000dd4
        0x000027a0:    2001        .       MOVS     r0,#1
        0x000027a2:    50d0        .P      STR      r0,[r2,r3]
        0x000027a4:    7809        .x      LDRB     r1,[r1,#0]
        0x000027a6:    008a        ..      LSLS     r2,r1,#2
        0x000027a8:    4907        .I      LDR      r1,[pc,#28] ; [0x27c8] = 0x20000d58
        0x000027aa:    5088        .P      STR      r0,[r1,r2]
        0x000027ac:    e7ff        ..      B        0x27ae ; Host_AliveProcess + 258
        0x000027ae:    e7ff        ..      B        0x27b0 ; Host_AliveProcess + 260
        0x000027b0:    9803        ..      LDR      r0,[sp,#0xc]
        0x000027b2:    1c40        @.      ADDS     r0,r0,#1
        0x000027b4:    a903        ..      ADD      r1,sp,#0xc
        0x000027b6:    7008        .p      STRB     r0,[r1,#0]
        0x000027b8:    e7e1        ..      B        0x277e ; Host_AliveProcess + 210
        0x000027ba:    e7ff        ..      B        0x27bc ; Host_AliveProcess + 272
        0x000027bc:    b004        ..      ADD      sp,sp,#0x10
        0x000027be:    4770        pG      BX       lr
    $d
    __arm_cp.2_1
        0x000027c0:    20000238    8..     DCD    536871480
    __arm_cp.2_3
        0x000027c4:    20000dd4    ...     DCD    536874452
    __arm_cp.2_4
        0x000027c8:    20000d58    X..     DCD    536874328
    __arm_cp.2_5
        0x000027cc:    20000f27    '..     DCD    536874791
    $t
    Host_GetPowerDataProcess
        0x000027d0:    b081        ..      SUB      sp,sp,#4
        0x000027d2:    4669        iF      MOV      r1,sp
        0x000027d4:    2000        .       MOVS     r0,#0
        0x000027d6:    7008        .p      STRB     r0,[r1,#0]
        0x000027d8:    e7ff        ..      B        0x27da ; Host_GetPowerDataProcess + 10
        0x000027da:    4668        hF      MOV      r0,sp
        0x000027dc:    7800        .x      LDRB     r0,[r0,#0]
        0x000027de:    2806        .(      CMP      r0,#6
        0x000027e0:    dc0e        ..      BGT      0x2800 ; Host_GetPowerDataProcess + 48
        0x000027e2:    e7ff        ..      B        0x27e4 ; Host_GetPowerDataProcess + 20
        0x000027e4:    4668        hF      MOV      r0,sp
        0x000027e6:    7802        .x      LDRB     r2,[r0,#0]
        0x000027e8:    4833        3H      LDR      r0,[pc,#204] ; [0x28b8] = 0x20000f7e
        0x000027ea:    1810        ..      ADDS     r0,r2,r0
        0x000027ec:    215b        [!      MOVS     r1,#0x5b
        0x000027ee:    5c40        @\      LDRB     r0,[r0,r1]
        0x000027f0:    4936        6I      LDR      r1,[pc,#216] ; [0x28cc] = 0x200010e8
        0x000027f2:    5488        .T      STRB     r0,[r1,r2]
        0x000027f4:    e7ff        ..      B        0x27f6 ; Host_GetPowerDataProcess + 38
        0x000027f6:    9800        ..      LDR      r0,[sp,#0]
        0x000027f8:    1c40        @.      ADDS     r0,r0,#1
        0x000027fa:    4669        iF      MOV      r1,sp
        0x000027fc:    7008        .p      STRB     r0,[r1,#0]
        0x000027fe:    e7ec        ..      B        0x27da ; Host_GetPowerDataProcess + 10
        0x00002800:    482d        -H      LDR      r0,[pc,#180] ; [0x28b8] = 0x20000f7e
        0x00002802:    78c0        .x      LDRB     r0,[r0,#3]
        0x00002804:    492d        -I      LDR      r1,[pc,#180] ; [0x28bc] = 0x20000105
        0x00002806:    7008        .p      STRB     r0,[r1,#0]
        0x00002808:    b001        ..      ADD      sp,sp,#4
        0x0000280a:    4770        pG      BX       lr
    Host_OTAMenterProcess
        0x0000280c:    b580        ..      PUSH     {r7,lr}
        0x0000280e:    b082        ..      SUB      sp,sp,#8
        0x00002810:    f001fcbc    ....    BL       SYS_UnlockReg ; 0x418c
        0x00002814:    f7fffce4    ....    BL       FMC_Open ; 0x21e0
        0x00002818:    a901        ..      ADD      r1,sp,#4
        0x0000281a:    2000        .       MOVS     r0,#0
        0x0000281c:    7008        .p      STRB     r0,[r1,#0]
        0x0000281e:    e7ff        ..      B        0x2820 ; Host_OTAMenterProcess + 20
        0x00002820:    a801        ..      ADD      r0,sp,#4
        0x00002822:    7800        .x      LDRB     r0,[r0,#0]
        0x00002824:    2806        .(      CMP      r0,#6
        0x00002826:    dc0e        ..      BGT      0x2846 ; Host_OTAMenterProcess + 58
        0x00002828:    e7ff        ..      B        0x282a ; Host_OTAMenterProcess + 30
        0x0000282a:    a801        ..      ADD      r0,sp,#4
        0x0000282c:    7802        .x      LDRB     r2,[r0,#0]
        0x0000282e:    4822        "H      LDR      r0,[pc,#136] ; [0x28b8] = 0x20000f7e
        0x00002830:    1810        ..      ADDS     r0,r2,r0
        0x00002832:    215b        [!      MOVS     r1,#0x5b
        0x00002834:    5c40        @\      LDRB     r0,[r0,r1]
        0x00002836:    4925        %I      LDR      r1,[pc,#148] ; [0x28cc] = 0x200010e8
        0x00002838:    5488        .T      STRB     r0,[r1,r2]
        0x0000283a:    e7ff        ..      B        0x283c ; Host_OTAMenterProcess + 48
        0x0000283c:    9801        ..      LDR      r0,[sp,#4]
        0x0000283e:    1c40        @.      ADDS     r0,r0,#1
        0x00002840:    a901        ..      ADD      r1,sp,#4
        0x00002842:    7008        .p      STRB     r0,[r1,#0]
        0x00002844:    e7ec        ..      B        0x2820 ; Host_OTAMenterProcess + 20
        0x00002846:    481c        .H      LDR      r0,[pc,#112] ; [0x28b8] = 0x20000f7e
        0x00002848:    78c1        .x      LDRB     r1,[r0,#3]
        0x0000284a:    4a1c        .J      LDR      r2,[pc,#112] ; [0x28bc] = 0x20000105
        0x0000284c:    7011        .p      STRB     r1,[r2,#0]
        0x0000284e:    78c0        .x      LDRB     r0,[r0,#3]
        0x00002850:    3817        .8      SUBS     r0,r0,#0x17
        0x00002852:    9000        ..      STR      r0,[sp,#0]
        0x00002854:    2803        .(      CMP      r0,#3
        0x00002856:    d82b        +.      BHI      0x28b0 ; Host_OTAMenterProcess + 164
        0x00002858:    9800        ..      LDR      r0,[sp,#0]
        0x0000285a:    0081        ..      LSLS     r1,r0,#2
        0x0000285c:    a001        ..      ADR      r0,{pc}+8 ; 0x2864
        0x0000285e:    5840        @X      LDR      r0,[r0,r1]
        0x00002860:    4687        .F      MOV      pc,r0
        0x00002862:    46c0        .F      MOV      r8,r8
    $d
        0x00002864:    00002875    u(..    DCD    10357
        0x00002868:    00002885    .(..    DCD    10373
        0x0000286c:    0000289b    .(..    DCD    10395
        0x00002870:    000028a1    .(..    DCD    10401
    $t
        0x00002874:    4814        .H      LDR      r0,[pc,#80] ; [0x28c8] = 0xddccbbaa
        0x00002876:    f003f82f    ../.    BL       WRITE_FW_STATUS_FLAG ; 0x58d8
        0x0000287a:    f001fd25    ..%.    BL       SendHost_MenterFWinfo ; 0x42c8
        0x0000287e:    f000f965    ..e.    BL       JumpToBootloader ; 0x2b4c
        0x00002882:    e016        ..      B        0x28b2 ; Host_OTAMenterProcess + 166
        0x00002884:    480f        .H      LDR      r0,[pc,#60] ; [0x28c4] = 0xa5a5beef
        0x00002886:    f003f827    ..'.    BL       WRITE_FW_STATUS_FLAG ; 0x58d8
        0x0000288a:    f001fd1d    ....    BL       SendHost_MenterFWinfo ; 0x42c8
        0x0000288e:    2000        .       MOVS     r0,#0
        0x00002890:    f000f9d0    ....    BL       MarkFwAsActive ; 0x2c34
        0x00002894:    f000f95a    ..Z.    BL       JumpToBootloader ; 0x2b4c
        0x00002898:    e00b        ..      B        0x28b2 ; Host_OTAMenterProcess + 166
        0x0000289a:    f001fd15    ....    BL       SendHost_MenterFWinfo ; 0x42c8
        0x0000289e:    e008        ..      B        0x28b2 ; Host_OTAMenterProcess + 166
        0x000028a0:    4807        .H      LDR      r0,[pc,#28] ; [0x28c0] = 0xa0aa0a0
        0x000028a2:    f003f819    ....    BL       WRITE_FW_STATUS_FLAG ; 0x58d8
        0x000028a6:    f001fd0f    ....    BL       SendHost_MenterFWinfo ; 0x42c8
        0x000028aa:    f000f94f    ..O.    BL       JumpToBootloader ; 0x2b4c
        0x000028ae:    e000        ..      B        0x28b2 ; Host_OTAMenterProcess + 166
        0x000028b0:    e7ff        ..      B        0x28b2 ; Host_OTAMenterProcess + 166
        0x000028b2:    b002        ..      ADD      sp,sp,#8
        0x000028b4:    bd80        ..      POP      {r7,pc}
        0x000028b6:    46c0        .F      MOV      r8,r8
    $d
    __arm_cp.5_0
        0x000028b8:    20000f7e    ~..     DCD    536874878
    __arm_cp.5_1
        0x000028bc:    20000105    ...     DCD    536871173
    __arm_cp.5_2
        0x000028c0:    0a0aa0a0    ....    DCD    168468640
    __arm_cp.5_3
        0x000028c4:    a5a5beef    ....    DCD    2779102959
    __arm_cp.5_4
        0x000028c8:    ddccbbaa    ....    DCD    3721182122
    __arm_cp.5_5
        0x000028cc:    200010e8    ...     DCD    536875240
    $t
    I2cReadBytes
        0x000028d0:    b510        ..      PUSH     {r4,lr}
        0x000028d2:    b088        ..      SUB      sp,sp,#0x20
        0x000028d4:    ac06        ..      ADD      r4,sp,#0x18
        0x000028d6:    7020         p      STRB     r0,[r4,#0]
        0x000028d8:    a805        ..      ADD      r0,sp,#0x14
        0x000028da:    8001        ..      STRH     r1,[r0,#0]
        0x000028dc:    9204        ..      STR      r2,[sp,#0x10]
        0x000028de:    a803        ..      ADD      r0,sp,#0xc
        0x000028e0:    7003        .p      STRB     r3,[r0,#0]
        0x000028e2:    9806        ..      LDR      r0,[sp,#0x18]
        0x000028e4:    0640        @.      LSLS     r0,r0,#25
        0x000028e6:    0e00        ..      LSRS     r0,r0,#24
        0x000028e8:    f001ff90    ....    BL       SoftI2cMasterStart ; 0x480c
        0x000028ec:    2800        .(      CMP      r0,#0
        0x000028ee:    d104        ..      BNE      0x28fa ; I2cReadBytes + 42
        0x000028f0:    e7ff        ..      B        0x28f2 ; I2cReadBytes + 34
        0x000028f2:    a907        ..      ADD      r1,sp,#0x1c
        0x000028f4:    2000        .       MOVS     r0,#0
        0x000028f6:    7008        .p      STRB     r0,[r1,#0]
        0x000028f8:    e048        H.      B        0x298c ; I2cReadBytes + 188
        0x000028fa:    a805        ..      ADD      r0,sp,#0x14
        0x000028fc:    7840        @x      LDRB     r0,[r0,#1]
        0x000028fe:    f001ffcf    ....    BL       SoftI2cMasterWrite ; 0x48a0
        0x00002902:    2800        .(      CMP      r0,#0
        0x00002904:    d104        ..      BNE      0x2910 ; I2cReadBytes + 64
        0x00002906:    e7ff        ..      B        0x2908 ; I2cReadBytes + 56
        0x00002908:    a907        ..      ADD      r1,sp,#0x1c
        0x0000290a:    2000        .       MOVS     r0,#0
        0x0000290c:    7008        .p      STRB     r0,[r1,#0]
        0x0000290e:    e03d        =.      B        0x298c ; I2cReadBytes + 188
        0x00002910:    a805        ..      ADD      r0,sp,#0x14
        0x00002912:    7800        .x      LDRB     r0,[r0,#0]
        0x00002914:    f001ffc4    ....    BL       SoftI2cMasterWrite ; 0x48a0
        0x00002918:    2800        .(      CMP      r0,#0
        0x0000291a:    d104        ..      BNE      0x2926 ; I2cReadBytes + 86
        0x0000291c:    e7ff        ..      B        0x291e ; I2cReadBytes + 78
        0x0000291e:    a907        ..      ADD      r1,sp,#0x1c
        0x00002920:    2000        .       MOVS     r0,#0
        0x00002922:    7008        .p      STRB     r0,[r1,#0]
        0x00002924:    e032        2.      B        0x298c ; I2cReadBytes + 188
        0x00002926:    9806        ..      LDR      r0,[sp,#0x18]
        0x00002928:    0040        @.      LSLS     r0,r0,#1
        0x0000292a:    1c40        @.      ADDS     r0,r0,#1
        0x0000292c:    b2c0        ..      UXTB     r0,r0
        0x0000292e:    f001ff4b    ..K.    BL       SoftI2cMasterRestart ; 0x47c8
        0x00002932:    2800        .(      CMP      r0,#0
        0x00002934:    d104        ..      BNE      0x2940 ; I2cReadBytes + 112
        0x00002936:    e7ff        ..      B        0x2938 ; I2cReadBytes + 104
        0x00002938:    a907        ..      ADD      r1,sp,#0x1c
        0x0000293a:    2000        .       MOVS     r0,#0
        0x0000293c:    7008        .p      STRB     r0,[r1,#0]
        0x0000293e:    e025        %.      B        0x298c ; I2cReadBytes + 188
        0x00002940:    a902        ..      ADD      r1,sp,#8
        0x00002942:    2000        .       MOVS     r0,#0
        0x00002944:    7008        .p      STRB     r0,[r1,#0]
        0x00002946:    e7ff        ..      B        0x2948 ; I2cReadBytes + 120
        0x00002948:    a802        ..      ADD      r0,sp,#8
        0x0000294a:    7800        .x      LDRB     r0,[r0,#0]
        0x0000294c:    a903        ..      ADD      r1,sp,#0xc
        0x0000294e:    7809        .x      LDRB     r1,[r1,#0]
        0x00002950:    4288        .B      CMP      r0,r1
        0x00002952:    da15        ..      BGE      0x2980 ; I2cReadBytes + 176
        0x00002954:    e7ff        ..      B        0x2956 ; I2cReadBytes + 134
        0x00002956:    a802        ..      ADD      r0,sp,#8
        0x00002958:    9001        ..      STR      r0,[sp,#4]
        0x0000295a:    7800        .x      LDRB     r0,[r0,#0]
        0x0000295c:    a903        ..      ADD      r1,sp,#0xc
        0x0000295e:    7809        .x      LDRB     r1,[r1,#0]
        0x00002960:    1a40        @.      SUBS     r0,r0,r1
        0x00002962:    1c40        @.      ADDS     r0,r0,#1
        0x00002964:    4241        AB      RSBS     r1,r0,#0
        0x00002966:    4148        HA      ADCS     r0,r0,r1
        0x00002968:    f001feca    ....    BL       SoftI2cMasterRead ; 0x4700
        0x0000296c:    9a01        ..      LDR      r2,[sp,#4]
        0x0000296e:    9904        ..      LDR      r1,[sp,#0x10]
        0x00002970:    7812        .x      LDRB     r2,[r2,#0]
        0x00002972:    5488        .T      STRB     r0,[r1,r2]
        0x00002974:    e7ff        ..      B        0x2976 ; I2cReadBytes + 166
        0x00002976:    9802        ..      LDR      r0,[sp,#8]
        0x00002978:    1c40        @.      ADDS     r0,r0,#1
        0x0000297a:    a902        ..      ADD      r1,sp,#8
        0x0000297c:    7008        .p      STRB     r0,[r1,#0]
        0x0000297e:    e7e3        ..      B        0x2948 ; I2cReadBytes + 120
        0x00002980:    f001ff6c    ..l.    BL       SoftI2cMasterStop ; 0x485c
        0x00002984:    a907        ..      ADD      r1,sp,#0x1c
        0x00002986:    2001        .       MOVS     r0,#1
        0x00002988:    7008        .p      STRB     r0,[r1,#0]
        0x0000298a:    e7ff        ..      B        0x298c ; I2cReadBytes + 188
        0x0000298c:    a807        ..      ADD      r0,sp,#0x1c
        0x0000298e:    7800        .x      LDRB     r0,[r0,#0]
        0x00002990:    b008        ..      ADD      sp,sp,#0x20
        0x00002992:    bd10        ..      POP      {r4,pc}
    I2cReadDataStruct
        0x00002994:    b580        ..      PUSH     {r7,lr}
        0x00002996:    b084        ..      SUB      sp,sp,#0x10
        0x00002998:    4602        .F      MOV      r2,r0
        0x0000299a:    a803        ..      ADD      r0,sp,#0xc
        0x0000299c:    7002        .p      STRB     r2,[r0,#0]
        0x0000299e:    9102        ..      STR      r1,[sp,#8]
        0x000029a0:    7800        .x      LDRB     r0,[r0,#0]
        0x000029a2:    281e        .(      CMP      r0,#0x1e
        0x000029a4:    dc04        ..      BGT      0x29b0 ; I2cReadDataStruct + 28
        0x000029a6:    e7ff        ..      B        0x29a8 ; I2cReadDataStruct + 20
        0x000029a8:    9802        ..      LDR      r0,[sp,#8]
        0x000029aa:    2800        .(      CMP      r0,#0
        0x000029ac:    d101        ..      BNE      0x29b2 ; I2cReadDataStruct + 30
        0x000029ae:    e7ff        ..      B        0x29b0 ; I2cReadDataStruct + 28
        0x000029b0:    e00c        ..      B        0x29cc ; I2cReadDataStruct + 56
        0x000029b2:    a803        ..      ADD      r0,sp,#0xc
        0x000029b4:    7800        .x      LDRB     r0,[r0,#0]
        0x000029b6:    2324        $#      MOVS     r3,#0x24
        0x000029b8:    4619        .F      MOV      r1,r3
        0x000029ba:    4341        AC      MULS     r1,r0,r1
        0x000029bc:    a801        ..      ADD      r0,sp,#4
        0x000029be:    8001        ..      STRH     r1,[r0,#0]
        0x000029c0:    8801        ..      LDRH     r1,[r0,#0]
        0x000029c2:    9a02        ..      LDR      r2,[sp,#8]
        0x000029c4:    2050        P       MOVS     r0,#0x50
        0x000029c6:    f7ffff83    ....    BL       I2cReadBytes ; 0x28d0
        0x000029ca:    e7ff        ..      B        0x29cc ; I2cReadDataStruct + 56
        0x000029cc:    b004        ..      ADD      sp,sp,#0x10
        0x000029ce:    bd80        ..      POP      {r7,pc}
    I2cWriteBytes
        0x000029d0:    b510        ..      PUSH     {r4,lr}
        0x000029d2:    b088        ..      SUB      sp,sp,#0x20
        0x000029d4:    ac06        ..      ADD      r4,sp,#0x18
        0x000029d6:    7020         p      STRB     r0,[r4,#0]
        0x000029d8:    a805        ..      ADD      r0,sp,#0x14
        0x000029da:    8001        ..      STRH     r1,[r0,#0]
        0x000029dc:    9204        ..      STR      r2,[sp,#0x10]
        0x000029de:    a803        ..      ADD      r0,sp,#0xc
        0x000029e0:    7003        .p      STRB     r3,[r0,#0]
        0x000029e2:    4932        2I      LDR      r1,[pc,#200] ; [0x2aac] = 0x50004280
        0x000029e4:    2000        .       MOVS     r0,#0
        0x000029e6:    6008        .`      STR      r0,[r1,#0]
        0x000029e8:    2002        .       MOVS     r0,#2
        0x000029ea:    f003f8af    ....    BL       a_delay_us ; 0x5b4c
        0x000029ee:    9806        ..      LDR      r0,[sp,#0x18]
        0x000029f0:    0640        @.      LSLS     r0,r0,#25
        0x000029f2:    0e00        ..      LSRS     r0,r0,#24
        0x000029f4:    f001ff0a    ....    BL       SoftI2cMasterStart ; 0x480c
        0x000029f8:    2800        .(      CMP      r0,#0
        0x000029fa:    d104        ..      BNE      0x2a06 ; I2cWriteBytes + 54
        0x000029fc:    e7ff        ..      B        0x29fe ; I2cWriteBytes + 46
        0x000029fe:    a907        ..      ADD      r1,sp,#0x1c
        0x00002a00:    2000        .       MOVS     r0,#0
        0x00002a02:    7008        .p      STRB     r0,[r1,#0]
        0x00002a04:    e04d        M.      B        0x2aa2 ; I2cWriteBytes + 210
        0x00002a06:    a805        ..      ADD      r0,sp,#0x14
        0x00002a08:    7840        @x      LDRB     r0,[r0,#1]
        0x00002a0a:    f001ff49    ..I.    BL       SoftI2cMasterWrite ; 0x48a0
        0x00002a0e:    2800        .(      CMP      r0,#0
        0x00002a10:    d104        ..      BNE      0x2a1c ; I2cWriteBytes + 76
        0x00002a12:    e7ff        ..      B        0x2a14 ; I2cWriteBytes + 68
        0x00002a14:    a907        ..      ADD      r1,sp,#0x1c
        0x00002a16:    2000        .       MOVS     r0,#0
        0x00002a18:    7008        .p      STRB     r0,[r1,#0]
        0x00002a1a:    e042        B.      B        0x2aa2 ; I2cWriteBytes + 210
        0x00002a1c:    a805        ..      ADD      r0,sp,#0x14
        0x00002a1e:    7800        .x      LDRB     r0,[r0,#0]
        0x00002a20:    f001ff3e    ..>.    BL       SoftI2cMasterWrite ; 0x48a0
        0x00002a24:    2800        .(      CMP      r0,#0
        0x00002a26:    d104        ..      BNE      0x2a32 ; I2cWriteBytes + 98
        0x00002a28:    e7ff        ..      B        0x2a2a ; I2cWriteBytes + 90
        0x00002a2a:    a907        ..      ADD      r1,sp,#0x1c
        0x00002a2c:    2000        .       MOVS     r0,#0
        0x00002a2e:    7008        .p      STRB     r0,[r1,#0]
        0x00002a30:    e037        7.      B        0x2aa2 ; I2cWriteBytes + 210
        0x00002a32:    a901        ..      ADD      r1,sp,#4
        0x00002a34:    2000        .       MOVS     r0,#0
        0x00002a36:    7008        .p      STRB     r0,[r1,#0]
        0x00002a38:    e7ff        ..      B        0x2a3a ; I2cWriteBytes + 106
        0x00002a3a:    a801        ..      ADD      r0,sp,#4
        0x00002a3c:    7800        .x      LDRB     r0,[r0,#0]
        0x00002a3e:    a903        ..      ADD      r1,sp,#0xc
        0x00002a40:    7809        .x      LDRB     r1,[r1,#0]
        0x00002a42:    4288        .B      CMP      r0,r1
        0x00002a44:    da13        ..      BGE      0x2a6e ; I2cWriteBytes + 158
        0x00002a46:    e7ff        ..      B        0x2a48 ; I2cWriteBytes + 120
        0x00002a48:    9804        ..      LDR      r0,[sp,#0x10]
        0x00002a4a:    a901        ..      ADD      r1,sp,#4
        0x00002a4c:    7809        .x      LDRB     r1,[r1,#0]
        0x00002a4e:    5c40        @\      LDRB     r0,[r0,r1]
        0x00002a50:    f001ff26    ..&.    BL       SoftI2cMasterWrite ; 0x48a0
        0x00002a54:    2800        .(      CMP      r0,#0
        0x00002a56:    d104        ..      BNE      0x2a62 ; I2cWriteBytes + 146
        0x00002a58:    e7ff        ..      B        0x2a5a ; I2cWriteBytes + 138
        0x00002a5a:    a907        ..      ADD      r1,sp,#0x1c
        0x00002a5c:    2000        .       MOVS     r0,#0
        0x00002a5e:    7008        .p      STRB     r0,[r1,#0]
        0x00002a60:    e01f        ..      B        0x2aa2 ; I2cWriteBytes + 210
        0x00002a62:    e7ff        ..      B        0x2a64 ; I2cWriteBytes + 148
        0x00002a64:    9801        ..      LDR      r0,[sp,#4]
        0x00002a66:    1c40        @.      ADDS     r0,r0,#1
        0x00002a68:    a901        ..      ADD      r1,sp,#4
        0x00002a6a:    7008        .p      STRB     r0,[r1,#0]
        0x00002a6c:    e7e5        ..      B        0x2a3a ; I2cWriteBytes + 106
        0x00002a6e:    f001fef5    ....    BL       SoftI2cMasterStop ; 0x485c
        0x00002a72:    a902        ..      ADD      r1,sp,#8
        0x00002a74:    2000        .       MOVS     r0,#0
        0x00002a76:    7008        .p      STRB     r0,[r1,#0]
        0x00002a78:    e7ff        ..      B        0x2a7a ; I2cWriteBytes + 170
        0x00002a7a:    a802        ..      ADD      r0,sp,#8
        0x00002a7c:    7800        .x      LDRB     r0,[r0,#0]
        0x00002a7e:    2809        .(      CMP      r0,#9
        0x00002a80:    dc09        ..      BGT      0x2a96 ; I2cWriteBytes + 198
        0x00002a82:    e7ff        ..      B        0x2a84 ; I2cWriteBytes + 180
        0x00002a84:    2064        d       MOVS     r0,#0x64
        0x00002a86:    f003f861    ..a.    BL       a_delay_us ; 0x5b4c
        0x00002a8a:    e7ff        ..      B        0x2a8c ; I2cWriteBytes + 188
        0x00002a8c:    9802        ..      LDR      r0,[sp,#8]
        0x00002a8e:    1c40        @.      ADDS     r0,r0,#1
        0x00002a90:    a902        ..      ADD      r1,sp,#8
        0x00002a92:    7008        .p      STRB     r0,[r1,#0]
        0x00002a94:    e7f1        ..      B        0x2a7a ; I2cWriteBytes + 170
        0x00002a96:    4905        .I      LDR      r1,[pc,#20] ; [0x2aac] = 0x50004280
        0x00002a98:    2001        .       MOVS     r0,#1
        0x00002a9a:    6008        .`      STR      r0,[r1,#0]
        0x00002a9c:    a907        ..      ADD      r1,sp,#0x1c
        0x00002a9e:    7008        .p      STRB     r0,[r1,#0]
        0x00002aa0:    e7ff        ..      B        0x2aa2 ; I2cWriteBytes + 210
        0x00002aa2:    a807        ..      ADD      r0,sp,#0x1c
        0x00002aa4:    7800        .x      LDRB     r0,[r0,#0]
        0x00002aa6:    b008        ..      ADD      sp,sp,#0x20
        0x00002aa8:    bd10        ..      POP      {r4,pc}
        0x00002aaa:    46c0        .F      MOV      r8,r8
    $d
    __arm_cp.11_0
        0x00002aac:    50004280    .B.P    DCD    1342194304
    $t
    I2cWriteDataStruct
        0x00002ab0:    b580        ..      PUSH     {r7,lr}
        0x00002ab2:    b08c        ..      SUB      sp,sp,#0x30
        0x00002ab4:    4602        .F      MOV      r2,r0
        0x00002ab6:    a80b        ..      ADD      r0,sp,#0x2c
        0x00002ab8:    7002        .p      STRB     r2,[r0,#0]
        0x00002aba:    910a        ..      STR      r1,[sp,#0x28]
        0x00002abc:    7800        .x      LDRB     r0,[r0,#0]
        0x00002abe:    f7fffce3    ....    BL       GetMeterDataAddress ; 0x2488
        0x00002ac2:    a909        ..      ADD      r1,sp,#0x24
        0x00002ac4:    8008        ..      STRH     r0,[r1,#0]
        0x00002ac6:    980a        ..      LDR      r0,[sp,#0x28]
        0x00002ac8:    9008        ..      STR      r0,[sp,#0x20]
        0x00002aca:    a907        ..      ADD      r1,sp,#0x1c
        0x00002acc:    2024        $       MOVS     r0,#0x24
        0x00002ace:    7008        .p      STRB     r0,[r1,#0]
        0x00002ad0:    e7ff        ..      B        0x2ad2 ; I2cWriteDataStruct + 34
        0x00002ad2:    a807        ..      ADD      r0,sp,#0x1c
        0x00002ad4:    7800        .x      LDRB     r0,[r0,#0]
        0x00002ad6:    2801        .(      CMP      r0,#1
        0x00002ad8:    db35        5.      BLT      0x2b46 ; I2cWriteDataStruct + 150
        0x00002ada:    e7ff        ..      B        0x2adc ; I2cWriteDataStruct + 44
        0x00002adc:    a809        ..      ADD      r0,sp,#0x24
        0x00002ade:    8800        ..      LDRH     r0,[r0,#0]
        0x00002ae0:    213f        ?!      MOVS     r1,#0x3f
        0x00002ae2:    4008        .@      ANDS     r0,r0,r1
        0x00002ae4:    a906        ..      ADD      r1,sp,#0x18
        0x00002ae6:    7008        .p      STRB     r0,[r1,#0]
        0x00002ae8:    9906        ..      LDR      r1,[sp,#0x18]
        0x00002aea:    2040        @       MOVS     r0,#0x40
        0x00002aec:    1a40        @.      SUBS     r0,r0,r1
        0x00002aee:    a905        ..      ADD      r1,sp,#0x14
        0x00002af0:    7008        .p      STRB     r0,[r1,#0]
        0x00002af2:    a807        ..      ADD      r0,sp,#0x1c
        0x00002af4:    7800        .x      LDRB     r0,[r0,#0]
        0x00002af6:    7809        .x      LDRB     r1,[r1,#0]
        0x00002af8:    4288        .B      CMP      r0,r1
        0x00002afa:    dd04        ..      BLE      0x2b06 ; I2cWriteDataStruct + 86
        0x00002afc:    e7ff        ..      B        0x2afe ; I2cWriteDataStruct + 78
        0x00002afe:    a805        ..      ADD      r0,sp,#0x14
        0x00002b00:    7800        .x      LDRB     r0,[r0,#0]
        0x00002b02:    9003        ..      STR      r0,[sp,#0xc]
        0x00002b04:    e003        ..      B        0x2b0e ; I2cWriteDataStruct + 94
        0x00002b06:    a807        ..      ADD      r0,sp,#0x1c
        0x00002b08:    7800        .x      LDRB     r0,[r0,#0]
        0x00002b0a:    9003        ..      STR      r0,[sp,#0xc]
        0x00002b0c:    e7ff        ..      B        0x2b0e ; I2cWriteDataStruct + 94
        0x00002b0e:    9903        ..      LDR      r1,[sp,#0xc]
        0x00002b10:    a804        ..      ADD      r0,sp,#0x10
        0x00002b12:    9002        ..      STR      r0,[sp,#8]
        0x00002b14:    7001        .p      STRB     r1,[r0,#0]
        0x00002b16:    a909        ..      ADD      r1,sp,#0x24
        0x00002b18:    9101        ..      STR      r1,[sp,#4]
        0x00002b1a:    8809        ..      LDRH     r1,[r1,#0]
        0x00002b1c:    9a08        ..      LDR      r2,[sp,#0x20]
        0x00002b1e:    7803        .x      LDRB     r3,[r0,#0]
        0x00002b20:    2050        P       MOVS     r0,#0x50
        0x00002b22:    f7ffff55    ..U.    BL       I2cWriteBytes ; 0x29d0
        0x00002b26:    9a01        ..      LDR      r2,[sp,#4]
        0x00002b28:    9802        ..      LDR      r0,[sp,#8]
        0x00002b2a:    9b04        ..      LDR      r3,[sp,#0x10]
        0x00002b2c:    9907        ..      LDR      r1,[sp,#0x1c]
        0x00002b2e:    1ac9        ..      SUBS     r1,r1,r3
        0x00002b30:    ab07        ..      ADD      r3,sp,#0x1c
        0x00002b32:    7019        .p      STRB     r1,[r3,#0]
        0x00002b34:    7803        .x      LDRB     r3,[r0,#0]
        0x00002b36:    9909        ..      LDR      r1,[sp,#0x24]
        0x00002b38:    18c9        ..      ADDS     r1,r1,r3
        0x00002b3a:    8011        ..      STRH     r1,[r2,#0]
        0x00002b3c:    7801        .x      LDRB     r1,[r0,#0]
        0x00002b3e:    9808        ..      LDR      r0,[sp,#0x20]
        0x00002b40:    1840        @.      ADDS     r0,r0,r1
        0x00002b42:    9008        ..      STR      r0,[sp,#0x20]
        0x00002b44:    e7c5        ..      B        0x2ad2 ; I2cWriteDataStruct + 34
        0x00002b46:    b00c        ..      ADD      sp,sp,#0x30
        0x00002b48:    bd80        ..      POP      {r7,pc}
        0x00002b4a:    0000        ..      MOVS     r0,r0
    JumpToBootloader
        0x00002b4c:    b580        ..      PUSH     {r7,lr}
        0x00002b4e:    b082        ..      SUB      sp,sp,#8
        0x00002b50:    2007        .       MOVS     r0,#7
        0x00002b52:    0200        ..      LSLS     r0,r0,#8
        0x00002b54:    2103        .!      MOVS     r1,#3
        0x00002b56:    2201        ."      MOVS     r2,#1
        0x00002b58:    2300        .#      MOVS     r3,#0
        0x00002b5a:    9301        ..      STR      r3,[sp,#4]
        0x00002b5c:    f002fea2    ....    BL       WDT_Open ; 0x58a4
        0x00002b60:    490d        .I      LDR      r1,[pc,#52] ; [0x2b98] = 0x40004008
        0x00002b62:    480e        .H      LDR      r0,[pc,#56] ; [0x2b9c] = 0x5aa5
        0x00002b64:    6008        .`      STR      r0,[r1,#0]
        0x00002b66:    490e        .I      LDR      r1,[pc,#56] ; [0x2ba0] = 0x40004000
        0x00002b68:    9100        ..      STR      r1,[sp,#0]
        0x00002b6a:    6808        .h      LDR      r0,[r1,#0]
        0x00002b6c:    2204        ."      MOVS     r2,#4
        0x00002b6e:    4310        .C      ORRS     r0,r0,r2
        0x00002b70:    2228        ("      MOVS     r2,#0x28
        0x00002b72:    4390        .C      BICS     r0,r0,r2
        0x00002b74:    6008        .`      STR      r0,[r1,#0]
        0x00002b76:    b672        r.      CPSID    i
        0x00002b78:    f001fb22    ..".    BL       SYS_UnlockReg ; 0x41c0
        0x00002b7c:    f7fffb30    ..0.    BL       FMC_Open ; 0x21e0
        0x00002b80:    9a00        ..      LDR      r2,[sp,#0]
        0x00002b82:    9801        ..      LDR      r0,[sp,#4]
        0x00002b84:    6811        .h      LDR      r1,[r2,#0]
        0x00002b86:    2380        .#      MOVS     r3,#0x80
        0x00002b88:    4399        .C      BICS     r1,r1,r3
        0x00002b8a:    6011        .`      STR      r1,[r2,#0]
        0x00002b8c:    f7fffb9c    ....    BL       FMC_SetVectorPageAddr ; 0x22c8
        0x00002b90:    f001f8b2    ....    BL       NVIC_SystemReset ; 0x3cf8
        0x00002b94:    b002        ..      ADD      sp,sp,#8
        0x00002b96:    bd80        ..      POP      {r7,pc}
    $d
    __arm_cp.13_0
        0x00002b98:    40004008    .@.@    DCD    1073758216
    __arm_cp.13_1
        0x00002b9c:    00005aa5    .Z..    DCD    23205
    __arm_cp.13_2
        0x00002ba0:    40004000    .@.@    DCD    1073758208
    $t
    MODBUS_SendCmd
        0x00002ba4:    b580        ..      PUSH     {r7,lr}
        0x00002ba6:    b082        ..      SUB      sp,sp,#8
        0x00002ba8:    a901        ..      ADD      r1,sp,#4
        0x00002baa:    7008        .p      STRB     r0,[r1,#0]
        0x00002bac:    481a        .H      LDR      r0,[pc,#104] ; [0x2c18] = 0x20000d4a
        0x00002bae:    7801        .x      LDRB     r1,[r0,#0]
        0x00002bb0:    481a        .H      LDR      r0,[pc,#104] ; [0x2c1c] = 0x20000d54
        0x00002bb2:    7001        .p      STRB     r1,[r0,#0]
        0x00002bb4:    7801        .x      LDRB     r1,[r0,#0]
        0x00002bb6:    4a1a        .J      LDR      r2,[pc,#104] ; [0x2c20] = 0x20000d0d
        0x00002bb8:    7011        .p      STRB     r1,[r2,#0]
        0x00002bba:    4a1a        .J      LDR      r2,[pc,#104] ; [0x2c24] = 0x20000034
        0x00002bbc:    21ff        .!      MOVS     r1,#0xff
        0x00002bbe:    7011        .p      STRB     r1,[r2,#0]
        0x00002bc0:    7801        .x      LDRB     r1,[r0,#0]
        0x00002bc2:    2018        .       MOVS     r0,#0x18
        0x00002bc4:    4348        HC      MULS     r0,r1,r0
        0x00002bc6:    4918        .I      LDR      r1,[pc,#96] ; [0x2c28] = 0x200009a0
        0x00002bc8:    1840        @.      ADDS     r0,r0,r1
        0x00002bca:    4918        .I      LDR      r1,[pc,#96] ; [0x2c2c] = 0x20000c88
        0x00002bcc:    7809        .x      LDRB     r1,[r1,#0]
        0x00002bce:    0049        I.      LSLS     r1,r1,#1
        0x00002bd0:    1841        A.      ADDS     r1,r0,r1
        0x00002bd2:    3918        .9      SUBS     r1,r1,#0x18
        0x00002bd4:    8808        ..      LDRH     r0,[r1,#0]
        0x00002bd6:    1c40        @.      ADDS     r0,r0,#1
        0x00002bd8:    8008        ..      STRH     r0,[r1,#0]
        0x00002bda:    4815        .H      LDR      r0,[pc,#84] ; [0x2c30] = 0x20000d26
        0x00002bdc:    7800        .x      LDRB     r0,[r0,#0]
        0x00002bde:    9000        ..      STR      r0,[sp,#0]
        0x00002be0:    2801        .(      CMP      r0,#1
        0x00002be2:    d008        ..      BEQ      0x2bf6 ; MODBUS_SendCmd + 82
        0x00002be4:    e7ff        ..      B        0x2be6 ; MODBUS_SendCmd + 66
        0x00002be6:    9800        ..      LDR      r0,[sp,#0]
        0x00002be8:    2802        .(      CMP      r0,#2
        0x00002bea:    d009        ..      BEQ      0x2c00 ; MODBUS_SendCmd + 92
        0x00002bec:    e7ff        ..      B        0x2bee ; MODBUS_SendCmd + 74
        0x00002bee:    9800        ..      LDR      r0,[sp,#0]
        0x00002bf0:    2803        .(      CMP      r0,#3
        0x00002bf2:    d00a        ..      BEQ      0x2c0a ; MODBUS_SendCmd + 102
        0x00002bf4:    e00e        ..      B        0x2c14 ; MODBUS_SendCmd + 112
        0x00002bf6:    a801        ..      ADD      r0,sp,#4
        0x00002bf8:    7800        .x      LDRB     r0,[r0,#0]
        0x00002bfa:    f7fff91d    ....    BL       CmdModBus_DEM5x0 ; 0x1e38
        0x00002bfe:    e009        ..      B        0x2c14 ; MODBUS_SendCmd + 112
        0x00002c00:    a801        ..      ADD      r0,sp,#4
        0x00002c02:    7800        .x      LDRB     r0,[r0,#0]
        0x00002c04:    f7fff88e    ....    BL       CmdModBus_BAW2A ; 0x1d24
        0x00002c08:    e004        ..      B        0x2c14 ; MODBUS_SendCmd + 112
        0x00002c0a:    a801        ..      ADD      r0,sp,#4
        0x00002c0c:    7800        .x      LDRB     r0,[r0,#0]
        0x00002c0e:    f7fffa0f    ....    BL       CmdModBus_E21nE31 ; 0x2030
        0x00002c12:    e7ff        ..      B        0x2c14 ; MODBUS_SendCmd + 112
        0x00002c14:    b002        ..      ADD      sp,sp,#8
        0x00002c16:    bd80        ..      POP      {r7,pc}
    $d
    __arm_cp.2_0
        0x00002c18:    20000d4a    J..     DCD    536874314
    __arm_cp.2_1
        0x00002c1c:    20000d54    T..     DCD    536874324
    __arm_cp.2_2
        0x00002c20:    20000d0d    ...     DCD    536874253
    __arm_cp.2_3
        0x00002c24:    20000034    4..     DCD    536870964
    __arm_cp.2_4
        0x00002c28:    200009a0    ...     DCD    536873376
    __arm_cp.2_5
        0x00002c2c:    20000c88    ...     DCD    536874120
    __arm_cp.2_6
        0x00002c30:    20000d26    &..     DCD    536874278
    $t
    MarkFwAsActive
        0x00002c34:    b5b0        ..      PUSH     {r4,r5,r7,lr}
        0x00002c36:    b08a        ..      SUB      sp,sp,#0x28
        0x00002c38:    a909        ..      ADD      r1,sp,#0x24
        0x00002c3a:    9105        ..      STR      r1,[sp,#0x14]
        0x00002c3c:    7008        .p      STRB     r0,[r1,#0]
        0x00002c3e:    485d        ]H      LDR      r0,[pc,#372] ; [0x2db4] = 0x200010d0
        0x00002c40:    6841        Ah      LDR      r1,[r0,#4]
        0x00002c42:    203f        ?       MOVS     r0,#0x3f
        0x00002c44:    02c0        ..      LSLS     r0,r0,#11
        0x00002c46:    221f        ."      MOVS     r2,#0x1f
        0x00002c48:    0312        ..      LSLS     r2,r2,#12
        0x00002c4a:    9206        ..      STR      r2,[sp,#0x18]
        0x00002c4c:    4291        .B      CMP      r1,r2
        0x00002c4e:    9007        ..      STR      r0,[sp,#0x1c]
        0x00002c50:    d001        ..      BEQ      0x2c56 ; MarkFwAsActive + 34
        0x00002c52:    9806        ..      LDR      r0,[sp,#0x18]
        0x00002c54:    9007        ..      STR      r0,[sp,#0x1c]
        0x00002c56:    9805        ..      LDR      r0,[sp,#0x14]
        0x00002c58:    9907        ..      LDR      r1,[sp,#0x1c]
        0x00002c5a:    9108        ..      STR      r1,[sp,#0x20]
        0x00002c5c:    7800        .x      LDRB     r0,[r0,#0]
        0x00002c5e:    07c0        ..      LSLS     r0,r0,#31
        0x00002c60:    2800        .(      CMP      r0,#0
        0x00002c62:    d04d        M.      BEQ      0x2d00 ; MarkFwAsActive + 204
        0x00002c64:    e7ff        ..      B        0x2c66 ; MarkFwAsActive + 50
        0x00002c66:    4957        WI      LDR      r1,[pc,#348] ; [0x2dc4] = 0x200010f0
        0x00002c68:    9103        ..      STR      r1,[sp,#0xc]
        0x00002c6a:    780b        .x      LDRB     r3,[r1,#0]
        0x00002c6c:    784a        Jx      LDRB     r2,[r1,#1]
        0x00002c6e:    0210        ..      LSLS     r0,r2,#8
        0x00002c70:    18c0        ..      ADDS     r0,r0,r3
        0x00002c72:    788b        .x      LDRB     r3,[r1,#2]
        0x00002c74:    041d        ..      LSLS     r5,r3,#16
        0x00002c76:    78cc        .x      LDRB     r4,[r1,#3]
        0x00002c78:    0623        #.      LSLS     r3,r4,#24
        0x00002c7a:    195b        [.      ADDS     r3,r3,r5
        0x00002c7c:    1818        ..      ADDS     r0,r3,r0
        0x00002c7e:    2504        .%      MOVS     r5,#4
        0x00002c80:    43a8        .C      BICS     r0,r0,r5
        0x00002c82:    70cc        .p      STRB     r4,[r1,#3]
        0x00002c84:    0c1b        ..      LSRS     r3,r3,#16
        0x00002c86:    708b        .p      STRB     r3,[r1,#2]
        0x00002c88:    704a        Jp      STRB     r2,[r1,#1]
        0x00002c8a:    7008        .p      STRB     r0,[r1,#0]
        0x00002c8c:    780b        .x      LDRB     r3,[r1,#0]
        0x00002c8e:    784a        Jx      LDRB     r2,[r1,#1]
        0x00002c90:    0210        ..      LSLS     r0,r2,#8
        0x00002c92:    18c0        ..      ADDS     r0,r0,r3
        0x00002c94:    788b        .x      LDRB     r3,[r1,#2]
        0x00002c96:    041d        ..      LSLS     r5,r3,#16
        0x00002c98:    78cc        .x      LDRB     r4,[r1,#3]
        0x00002c9a:    0623        #.      LSLS     r3,r4,#24
        0x00002c9c:    195b        [.      ADDS     r3,r3,r5
        0x00002c9e:    1818        ..      ADDS     r0,r3,r0
        0x00002ca0:    250a        .%      MOVS     r5,#0xa
        0x00002ca2:    4328        (C      ORRS     r0,r0,r5
        0x00002ca4:    70cc        .p      STRB     r4,[r1,#3]
        0x00002ca6:    0c1b        ..      LSRS     r3,r3,#16
        0x00002ca8:    708b        .p      STRB     r3,[r1,#2]
        0x00002caa:    704a        Jp      STRB     r2,[r1,#1]
        0x00002cac:    7008        .p      STRB     r0,[r1,#0]
        0x00002cae:    7d0a        .}      LDRB     r2,[r1,#0x14]
        0x00002cb0:    7d48        H}      LDRB     r0,[r1,#0x15]
        0x00002cb2:    0200        ..      LSLS     r0,r0,#8
        0x00002cb4:    1882        ..      ADDS     r2,r0,r2
        0x00002cb6:    7d88        .}      LDRB     r0,[r1,#0x16]
        0x00002cb8:    0403        ..      LSLS     r3,r0,#16
        0x00002cba:    7dc8        .}      LDRB     r0,[r1,#0x17]
        0x00002cbc:    0600        ..      LSLS     r0,r0,#24
        0x00002cbe:    18c0        ..      ADDS     r0,r0,r3
        0x00002cc0:    1880        ..      ADDS     r0,r0,r2
        0x00002cc2:    1c40        @.      ADDS     r0,r0,#1
        0x00002cc4:    0e02        ..      LSRS     r2,r0,#24
        0x00002cc6:    75ca        .u      STRB     r2,[r1,#0x17]
        0x00002cc8:    0c02        ..      LSRS     r2,r0,#16
        0x00002cca:    758a        .u      STRB     r2,[r1,#0x16]
        0x00002ccc:    7508        .u      STRB     r0,[r1,#0x14]
        0x00002cce:    0a00        ..      LSRS     r0,r0,#8
        0x00002cd0:    7548        Hu      STRB     r0,[r1,#0x15]
        0x00002cd2:    493b        ;I      LDR      r1,[pc,#236] ; [0x2dc0] = 0x20001110
        0x00002cd4:    9104        ..      STR      r1,[sp,#0x10]
        0x00002cd6:    780b        .x      LDRB     r3,[r1,#0]
        0x00002cd8:    784a        Jx      LDRB     r2,[r1,#1]
        0x00002cda:    0210        ..      LSLS     r0,r2,#8
        0x00002cdc:    18c0        ..      ADDS     r0,r0,r3
        0x00002cde:    788b        .x      LDRB     r3,[r1,#2]
        0x00002ce0:    041d        ..      LSLS     r5,r3,#16
        0x00002ce2:    78cc        .x      LDRB     r4,[r1,#3]
        0x00002ce4:    0623        #.      LSLS     r3,r4,#24
        0x00002ce6:    195b        [.      ADDS     r3,r3,r5
        0x00002ce8:    1818        ..      ADDS     r0,r3,r0
        0x00002cea:    2508        .%      MOVS     r5,#8
        0x00002cec:    43a8        .C      BICS     r0,r0,r5
        0x00002cee:    70cc        .p      STRB     r4,[r1,#3]
        0x00002cf0:    0c1b        ..      LSRS     r3,r3,#16
        0x00002cf2:    708b        .p      STRB     r3,[r1,#2]
        0x00002cf4:    704a        Jp      STRB     r2,[r1,#1]
        0x00002cf6:    7008        .p      STRB     r0,[r1,#0]
        0x00002cf8:    4833        3H      LDR      r0,[pc,#204] ; [0x2dc8] = 0x5aa5a55a
        0x00002cfa:    f002fded    ....    BL       WRITE_FW_STATUS_FLAG ; 0x58d8
        0x00002cfe:    e04d        M.      B        0x2d9c ; MarkFwAsActive + 360
        0x00002d00:    482c        ,H      LDR      r0,[pc,#176] ; [0x2db4] = 0x200010d0
        0x00002d02:    6880        .h      LDR      r0,[r0,#8]
        0x00002d04:    492c        ,I      LDR      r1,[pc,#176] ; [0x2db8] = 0xa5a5beef
        0x00002d06:    4288        .B      CMP      r0,r1
        0x00002d08:    d008        ..      BEQ      0x2d1c ; MarkFwAsActive + 232
        0x00002d0a:    e7ff        ..      B        0x2d0c ; MarkFwAsActive + 216
        0x00002d0c:    a809        ..      ADD      r0,sp,#0x24
        0x00002d0e:    7800        .x      LDRB     r0,[r0,#0]
        0x00002d10:    2101        .!      MOVS     r1,#1
        0x00002d12:    4008        .@      ANDS     r0,r0,r1
        0x00002d14:    1c40        @.      ADDS     r0,r0,#1
        0x00002d16:    2800        .(      CMP      r0,#0
        0x00002d18:    d03b        ;.      BEQ      0x2d92 ; MarkFwAsActive + 350
        0x00002d1a:    e7ff        ..      B        0x2d1c ; MarkFwAsActive + 232
        0x00002d1c:    4928        (I      LDR      r1,[pc,#160] ; [0x2dc0] = 0x20001110
        0x00002d1e:    9101        ..      STR      r1,[sp,#4]
        0x00002d20:    780b        .x      LDRB     r3,[r1,#0]
        0x00002d22:    784a        Jx      LDRB     r2,[r1,#1]
        0x00002d24:    0210        ..      LSLS     r0,r2,#8
        0x00002d26:    18c0        ..      ADDS     r0,r0,r3
        0x00002d28:    788b        .x      LDRB     r3,[r1,#2]
        0x00002d2a:    041d        ..      LSLS     r5,r3,#16
        0x00002d2c:    78cc        .x      LDRB     r4,[r1,#3]
        0x00002d2e:    0623        #.      LSLS     r3,r4,#24
        0x00002d30:    195b        [.      ADDS     r3,r3,r5
        0x00002d32:    1818        ..      ADDS     r0,r3,r0
        0x00002d34:    2504        .%      MOVS     r5,#4
        0x00002d36:    43a8        .C      BICS     r0,r0,r5
        0x00002d38:    70cc        .p      STRB     r4,[r1,#3]
        0x00002d3a:    0c1b        ..      LSRS     r3,r3,#16
        0x00002d3c:    708b        .p      STRB     r3,[r1,#2]
        0x00002d3e:    704a        Jp      STRB     r2,[r1,#1]
        0x00002d40:    7008        .p      STRB     r0,[r1,#0]
        0x00002d42:    780b        .x      LDRB     r3,[r1,#0]
        0x00002d44:    784a        Jx      LDRB     r2,[r1,#1]
        0x00002d46:    0210        ..      LSLS     r0,r2,#8
        0x00002d48:    18c0        ..      ADDS     r0,r0,r3
        0x00002d4a:    788b        .x      LDRB     r3,[r1,#2]
        0x00002d4c:    041d        ..      LSLS     r5,r3,#16
        0x00002d4e:    78cc        .x      LDRB     r4,[r1,#3]
        0x00002d50:    0623        #.      LSLS     r3,r4,#24
        0x00002d52:    195b        [.      ADDS     r3,r3,r5
        0x00002d54:    1818        ..      ADDS     r0,r3,r0
        0x00002d56:    250a        .%      MOVS     r5,#0xa
        0x00002d58:    4328        (C      ORRS     r0,r0,r5
        0x00002d5a:    70cc        .p      STRB     r4,[r1,#3]
        0x00002d5c:    0c1b        ..      LSRS     r3,r3,#16
        0x00002d5e:    708b        .p      STRB     r3,[r1,#2]
        0x00002d60:    704a        Jp      STRB     r2,[r1,#1]
        0x00002d62:    7008        .p      STRB     r0,[r1,#0]
        0x00002d64:    4917        .I      LDR      r1,[pc,#92] ; [0x2dc4] = 0x200010f0
        0x00002d66:    9102        ..      STR      r1,[sp,#8]
        0x00002d68:    780b        .x      LDRB     r3,[r1,#0]
        0x00002d6a:    784a        Jx      LDRB     r2,[r1,#1]
        0x00002d6c:    0210        ..      LSLS     r0,r2,#8
        0x00002d6e:    18c0        ..      ADDS     r0,r0,r3
        0x00002d70:    788b        .x      LDRB     r3,[r1,#2]
        0x00002d72:    041d        ..      LSLS     r5,r3,#16
        0x00002d74:    78cc        .x      LDRB     r4,[r1,#3]
        0x00002d76:    0623        #.      LSLS     r3,r4,#24
        0x00002d78:    195b        [.      ADDS     r3,r3,r5
        0x00002d7a:    1818        ..      ADDS     r0,r3,r0
        0x00002d7c:    2508        .%      MOVS     r5,#8
        0x00002d7e:    43a8        .C      BICS     r0,r0,r5
        0x00002d80:    70cc        .p      STRB     r4,[r1,#3]
        0x00002d82:    0c1b        ..      LSRS     r3,r3,#16
        0x00002d84:    708b        .p      STRB     r3,[r1,#2]
        0x00002d86:    704a        Jp      STRB     r2,[r1,#1]
        0x00002d88:    7008        .p      STRB     r0,[r1,#0]
        0x00002d8a:    480b        .H      LDR      r0,[pc,#44] ; [0x2db8] = 0xa5a5beef
        0x00002d8c:    f002fda4    ....    BL       WRITE_FW_STATUS_FLAG ; 0x58d8
        0x00002d90:    e003        ..      B        0x2d9a ; MarkFwAsActive + 358
        0x00002d92:    480a        .H      LDR      r0,[pc,#40] ; [0x2dbc] = 0xdeaddead
        0x00002d94:    f002fda0    ....    BL       WRITE_FW_STATUS_FLAG ; 0x58d8
        0x00002d98:    e7ff        ..      B        0x2d9a ; MarkFwAsActive + 358
        0x00002d9a:    e7ff        ..      B        0x2d9c ; MarkFwAsActive + 360
        0x00002d9c:    4805        .H      LDR      r0,[pc,#20] ; [0x2db4] = 0x200010d0
        0x00002d9e:    6841        Ah      LDR      r1,[r0,#4]
        0x00002da0:    4808        .H      LDR      r0,[pc,#32] ; [0x2dc4] = 0x200010f0
        0x00002da2:    f002fdb4    ....    BL       WriteMetadata ; 0x590e
        0x00002da6:    9908        ..      LDR      r1,[sp,#0x20]
        0x00002da8:    4805        .H      LDR      r0,[pc,#20] ; [0x2dc0] = 0x20001110
        0x00002daa:    f002fdb0    ....    BL       WriteMetadata ; 0x590e
        0x00002dae:    b00a        ..      ADD      sp,sp,#0x28
        0x00002db0:    bdb0        ..      POP      {r4,r5,r7,pc}
        0x00002db2:    46c0        .F      MOV      r8,r8
    $d
    __arm_cp.2_0
        0x00002db4:    200010d0    ...     DCD    536875216
    __arm_cp.2_1
        0x00002db8:    a5a5beef    ....    DCD    2779102959
    __arm_cp.2_2
        0x00002dbc:    deaddead    ....    DCD    3735936685
    __arm_cp.2_3
        0x00002dc0:    20001110    ...     DCD    536875280
    __arm_cp.2_4
        0x00002dc4:    200010f0    ...     DCD    536875248
    __arm_cp.2_5
        0x00002dc8:    5aa5a55a    Z..Z    DCD    1520805210
    $t
    MeterDataProcess
        0x00002dcc:    b5b0        ..      PUSH     {r4,r5,r7,lr}
        0x00002dce:    b096        ..      SUB      sp,sp,#0x58
        0x00002dd0:    48fb        .H      LDR      r0,[pc,#1004] ; [0x31c0] = 0x20000fe2
        0x00002dd2:    7801        .x      LDRB     r1,[r0,#0]
        0x00002dd4:    a813        ..      ADD      r0,sp,#0x4c
        0x00002dd6:    7001        .p      STRB     r1,[r0,#0]
        0x00002dd8:    7800        .x      LDRB     r0,[r0,#0]
        0x00002dda:    2801        .(      CMP      r0,#1
        0x00002ddc:    db05        ..      BLT      0x2dea ; MeterDataProcess + 30
        0x00002dde:    e7ff        ..      B        0x2de0 ; MeterDataProcess + 20
        0x00002de0:    9813        ..      LDR      r0,[sp,#0x4c]
        0x00002de2:    1e40        @.      SUBS     r0,r0,#1
        0x00002de4:    a913        ..      ADD      r1,sp,#0x4c
        0x00002de6:    7008        .p      STRB     r0,[r1,#0]
        0x00002de8:    e000        ..      B        0x2dec ; MeterDataProcess + 32
        0x00002dea:    e2ef        ..      B        0x33cc ; 0x33cc
        0x00002dec:    49f5        .I      LDR      r1,[pc,#980] ; [0x31c4] = 0x500042dc
        0x00002dee:    6808        .h      LDR      r0,[r1,#0]
        0x00002df0:    2201        ."      MOVS     r2,#1
        0x00002df2:    4050        P@      EORS     r0,r0,r2
        0x00002df4:    6008        .`      STR      r0,[r1,#0]
        0x00002df6:    48f2        .H      LDR      r0,[pc,#968] ; [0x31c0] = 0x20000fe2
        0x00002df8:    7840        @x      LDRB     r0,[r0,#1]
        0x00002dfa:    2803        .(      CMP      r0,#3
        0x00002dfc:    d000        ..      BEQ      0x2e00 ; MeterDataProcess + 52
        0x00002dfe:    e2e5        ..      B        0x33cc ; 0x33cc
        0x00002e00:    48f1        .H      LDR      r0,[pc,#964] ; [0x31c8] = 0x20000d06
        0x00002e02:    7800        .x      LDRB     r0,[r0,#0]
        0x00002e04:    2801        .(      CMP      r0,#1
        0x00002e06:    d000        ..      BEQ      0x2e0a ; MeterDataProcess + 62
        0x00002e08:    e0ea        ..      B        0x2fe0 ; MeterDataProcess + 532
        0x00002e0a:    48f0        .H      LDR      r0,[pc,#960] ; [0x31cc] = 0x20000d26
        0x00002e0c:    7800        .x      LDRB     r0,[r0,#0]
        0x00002e0e:    9009        ..      STR      r0,[sp,#0x24]
        0x00002e10:    2801        .(      CMP      r0,#1
        0x00002e12:    d008        ..      BEQ      0x2e26 ; MeterDataProcess + 90
        0x00002e14:    e7ff        ..      B        0x2e16 ; MeterDataProcess + 74
        0x00002e16:    9809        ..      LDR      r0,[sp,#0x24]
        0x00002e18:    2802        .(      CMP      r0,#2
        0x00002e1a:    d011        ..      BEQ      0x2e40 ; MeterDataProcess + 116
        0x00002e1c:    e7ff        ..      B        0x2e1e ; MeterDataProcess + 82
        0x00002e1e:    9809        ..      LDR      r0,[sp,#0x24]
        0x00002e20:    2803        .(      CMP      r0,#3
        0x00002e22:    d01a        ..      BEQ      0x2e5a ; MeterDataProcess + 142
        0x00002e24:    e026        &.      B        0x2e74 ; MeterDataProcess + 168
        0x00002e26:    49e6        .I      LDR      r1,[pc,#920] ; [0x31c0] = 0x20000fe2
        0x00002e28:    7948        Hy      LDRB     r0,[r1,#5]
        0x00002e2a:    0600        ..      LSLS     r0,r0,#24
        0x00002e2c:    798a        .y      LDRB     r2,[r1,#6]
        0x00002e2e:    0412        ..      LSLS     r2,r2,#16
        0x00002e30:    1880        ..      ADDS     r0,r0,r2
        0x00002e32:    78ca        .x      LDRB     r2,[r1,#3]
        0x00002e34:    0212        ..      LSLS     r2,r2,#8
        0x00002e36:    1880        ..      ADDS     r0,r0,r2
        0x00002e38:    7909        .y      LDRB     r1,[r1,#4]
        0x00002e3a:    1840        @.      ADDS     r0,r0,r1
        0x00002e3c:    9015        ..      STR      r0,[sp,#0x54]
        0x00002e3e:    e026        &.      B        0x2e8e ; MeterDataProcess + 194
        0x00002e40:    49df        .I      LDR      r1,[pc,#892] ; [0x31c0] = 0x20000fe2
        0x00002e42:    78c8        .x      LDRB     r0,[r1,#3]
        0x00002e44:    0600        ..      LSLS     r0,r0,#24
        0x00002e46:    790a        .y      LDRB     r2,[r1,#4]
        0x00002e48:    0412        ..      LSLS     r2,r2,#16
        0x00002e4a:    1880        ..      ADDS     r0,r0,r2
        0x00002e4c:    794a        Jy      LDRB     r2,[r1,#5]
        0x00002e4e:    0212        ..      LSLS     r2,r2,#8
        0x00002e50:    1880        ..      ADDS     r0,r0,r2
        0x00002e52:    7989        .y      LDRB     r1,[r1,#6]
        0x00002e54:    1840        @.      ADDS     r0,r0,r1
        0x00002e56:    9015        ..      STR      r0,[sp,#0x54]
        0x00002e58:    e019        ..      B        0x2e8e ; MeterDataProcess + 194
        0x00002e5a:    49d9        .I      LDR      r1,[pc,#868] ; [0x31c0] = 0x20000fe2
        0x00002e5c:    7948        Hy      LDRB     r0,[r1,#5]
        0x00002e5e:    0600        ..      LSLS     r0,r0,#24
        0x00002e60:    798a        .y      LDRB     r2,[r1,#6]
        0x00002e62:    0412        ..      LSLS     r2,r2,#16
        0x00002e64:    1880        ..      ADDS     r0,r0,r2
        0x00002e66:    78ca        .x      LDRB     r2,[r1,#3]
        0x00002e68:    0212        ..      LSLS     r2,r2,#8
        0x00002e6a:    1880        ..      ADDS     r0,r0,r2
        0x00002e6c:    7909        .y      LDRB     r1,[r1,#4]
        0x00002e6e:    1840        @.      ADDS     r0,r0,r1
        0x00002e70:    9015        ..      STR      r0,[sp,#0x54]
        0x00002e72:    e00c        ..      B        0x2e8e ; MeterDataProcess + 194
        0x00002e74:    49d2        .I      LDR      r1,[pc,#840] ; [0x31c0] = 0x20000fe2
        0x00002e76:    7948        Hy      LDRB     r0,[r1,#5]
        0x00002e78:    0600        ..      LSLS     r0,r0,#24
        0x00002e7a:    798a        .y      LDRB     r2,[r1,#6]
        0x00002e7c:    0412        ..      LSLS     r2,r2,#16
        0x00002e7e:    1880        ..      ADDS     r0,r0,r2
        0x00002e80:    78ca        .x      LDRB     r2,[r1,#3]
        0x00002e82:    0212        ..      LSLS     r2,r2,#8
        0x00002e84:    1880        ..      ADDS     r0,r0,r2
        0x00002e86:    7909        .y      LDRB     r1,[r1,#4]
        0x00002e88:    1840        @.      ADDS     r0,r0,r1
        0x00002e8a:    9015        ..      STR      r0,[sp,#0x54]
        0x00002e8c:    e7ff        ..      B        0x2e8e ; MeterDataProcess + 194
        0x00002e8e:    a813        ..      ADD      r0,sp,#0x4c
        0x00002e90:    7800        .x      LDRB     r0,[r0,#0]
        0x00002e92:    2124        $!      MOVS     r1,#0x24
        0x00002e94:    4341        AC      MULS     r1,r0,r1
        0x00002e96:    48ce        .H      LDR      r0,[pc,#824] ; [0x31d0] = 0x2000023c
        0x00002e98:    1840        @.      ADDS     r0,r0,r1
        0x00002e9a:    6840        @h      LDR      r0,[r0,#4]
        0x00002e9c:    49cd        .I      LDR      r1,[pc,#820] ; [0x31d4] = 0x20000d08
        0x00002e9e:    6008        .`      STR      r0,[r1,#0]
        0x00002ea0:    48cd        .H      LDR      r0,[pc,#820] ; [0x31d8] = 0x20000e50
        0x00002ea2:    7800        .x      LDRB     r0,[r0,#0]
        0x00002ea4:    07c0        ..      LSLS     r0,r0,#31
        0x00002ea6:    2800        .(      CMP      r0,#0
        0x00002ea8:    d01c        ..      BEQ      0x2ee4 ; MeterDataProcess + 280
        0x00002eaa:    e7ff        ..      B        0x2eac ; MeterDataProcess + 224
        0x00002eac:    49ca        .I      LDR      r1,[pc,#808] ; [0x31d8] = 0x20000e50
        0x00002eae:    2000        .       MOVS     r0,#0
        0x00002eb0:    7008        .p      STRB     r0,[r1,#0]
        0x00002eb2:    9915        ..      LDR      r1,[sp,#0x54]
        0x00002eb4:    4ac7        .J      LDR      r2,[pc,#796] ; [0x31d4] = 0x20000d08
        0x00002eb6:    6011        .`      STR      r1,[r2,#0]
        0x00002eb8:    6813        .h      LDR      r3,[r2,#0]
        0x00002eba:    a913        ..      ADD      r1,sp,#0x4c
        0x00002ebc:    780c        .x      LDRB     r4,[r1,#0]
        0x00002ebe:    00a5        ..      LSLS     r5,r4,#2
        0x00002ec0:    4cc6        .L      LDR      r4,[pc,#792] ; [0x31dc] = 0x2000016c
        0x00002ec2:    5163        cQ      STR      r3,[r4,r5]
        0x00002ec4:    6812        .h      LDR      r2,[r2,#0]
        0x00002ec6:    780b        .x      LDRB     r3,[r1,#0]
        0x00002ec8:    2424        $$      MOVS     r4,#0x24
        0x00002eca:    435c        \C      MULS     r4,r3,r4
        0x00002ecc:    4bc0        .K      LDR      r3,[pc,#768] ; [0x31d0] = 0x2000023c
        0x00002ece:    191b        ..      ADDS     r3,r3,r4
        0x00002ed0:    605a        Z`      STR      r2,[r3,#4]
        0x00002ed2:    4bc3        .K      LDR      r3,[pc,#780] ; [0x31e0] = 0x20000f25
        0x00002ed4:    781a        .x      LDRB     r2,[r3,#0]
        0x00002ed6:    24fb        .$      MOVS     r4,#0xfb
        0x00002ed8:    4022        "@      ANDS     r2,r2,r4
        0x00002eda:    701a        .p      STRB     r2,[r3,#0]
        0x00002edc:    780a        .x      LDRB     r2,[r1,#0]
        0x00002ede:    49c1        .I      LDR      r1,[pc,#772] ; [0x31e4] = 0x20000015
        0x00002ee0:    5488        .T      STRB     r0,[r1,r2]
        0x00002ee2:    e7ff        ..      B        0x2ee4 ; MeterDataProcess + 280
        0x00002ee4:    9815        ..      LDR      r0,[sp,#0x54]
        0x00002ee6:    49bb        .I      LDR      r1,[pc,#748] ; [0x31d4] = 0x20000d08
        0x00002ee8:    6809        .h      LDR      r1,[r1,#0]
        0x00002eea:    4288        .B      CMP      r0,r1
        0x00002eec:    d351        Q.      BCC      0x2f92 ; MeterDataProcess + 454
        0x00002eee:    e7ff        ..      B        0x2ef0 ; MeterDataProcess + 292
        0x00002ef0:    9815        ..      LDR      r0,[sp,#0x54]
        0x00002ef2:    49b8        .I      LDR      r1,[pc,#736] ; [0x31d4] = 0x20000d08
        0x00002ef4:    6809        .h      LDR      r1,[r1,#0]
        0x00002ef6:    4288        .B      CMP      r0,r1
        0x00002ef8:    d101        ..      BNE      0x2efe ; MeterDataProcess + 306
        0x00002efa:    e7ff        ..      B        0x2efc ; MeterDataProcess + 304
        0x00002efc:    e266        f.      B        0x33cc ; 0x33cc
        0x00002efe:    9815        ..      LDR      r0,[sp,#0x54]
        0x00002f00:    49b4        .I      LDR      r1,[pc,#720] ; [0x31d4] = 0x20000d08
        0x00002f02:    6809        .h      LDR      r1,[r1,#0]
        0x00002f04:    1a40        @.      SUBS     r0,r0,r1
        0x00002f06:    9014        ..      STR      r0,[sp,#0x50]
        0x00002f08:    9814        ..      LDR      r0,[sp,#0x50]
        0x00002f0a:    28c7        .(      CMP      r0,#0xc7
        0x00002f0c:    d81a        ..      BHI      0x2f44 ; MeterDataProcess + 376
        0x00002f0e:    e7ff        ..      B        0x2f10 ; MeterDataProcess + 324
        0x00002f10:    9815        ..      LDR      r0,[sp,#0x54]
        0x00002f12:    49b0        .I      LDR      r1,[pc,#704] ; [0x31d4] = 0x20000d08
        0x00002f14:    6008        .`      STR      r0,[r1,#0]
        0x00002f16:    680a        .h      LDR      r2,[r1,#0]
        0x00002f18:    a813        ..      ADD      r0,sp,#0x4c
        0x00002f1a:    7803        .x      LDRB     r3,[r0,#0]
        0x00002f1c:    009c        ..      LSLS     r4,r3,#2
        0x00002f1e:    4baf        .K      LDR      r3,[pc,#700] ; [0x31dc] = 0x2000016c
        0x00002f20:    511a        .Q      STR      r2,[r3,r4]
        0x00002f22:    6809        .h      LDR      r1,[r1,#0]
        0x00002f24:    7802        .x      LDRB     r2,[r0,#0]
        0x00002f26:    2324        $#      MOVS     r3,#0x24
        0x00002f28:    4353        SC      MULS     r3,r2,r3
        0x00002f2a:    4aa9        .J      LDR      r2,[pc,#676] ; [0x31d0] = 0x2000023c
        0x00002f2c:    18d2        ..      ADDS     r2,r2,r3
        0x00002f2e:    6051        Q`      STR      r1,[r2,#4]
        0x00002f30:    4aab        .J      LDR      r2,[pc,#684] ; [0x31e0] = 0x20000f25
        0x00002f32:    7811        .x      LDRB     r1,[r2,#0]
        0x00002f34:    23fb        .#      MOVS     r3,#0xfb
        0x00002f36:    4019        .@      ANDS     r1,r1,r3
        0x00002f38:    7011        .p      STRB     r1,[r2,#0]
        0x00002f3a:    7802        .x      LDRB     r2,[r0,#0]
        0x00002f3c:    49a9        .I      LDR      r1,[pc,#676] ; [0x31e4] = 0x20000015
        0x00002f3e:    2000        .       MOVS     r0,#0
        0x00002f40:    5488        .T      STRB     r0,[r1,r2]
        0x00002f42:    e025        %.      B        0x2f90 ; MeterDataProcess + 452
        0x00002f44:    a913        ..      ADD      r1,sp,#0x4c
        0x00002f46:    780b        .x      LDRB     r3,[r1,#0]
        0x00002f48:    48a6        .H      LDR      r0,[pc,#664] ; [0x31e4] = 0x20000015
        0x00002f4a:    5cc2        .\      LDRB     r2,[r0,r3]
        0x00002f4c:    1c52        R.      ADDS     r2,r2,#1
        0x00002f4e:    54c2        .T      STRB     r2,[r0,r3]
        0x00002f50:    7809        .x      LDRB     r1,[r1,#0]
        0x00002f52:    5c40        @\      LDRB     r0,[r0,r1]
        0x00002f54:    2804        .(      CMP      r0,#4
        0x00002f56:    db1a        ..      BLT      0x2f8e ; MeterDataProcess + 450
        0x00002f58:    e7ff        ..      B        0x2f5a ; MeterDataProcess + 398
        0x00002f5a:    9915        ..      LDR      r1,[sp,#0x54]
        0x00002f5c:    489d        .H      LDR      r0,[pc,#628] ; [0x31d4] = 0x20000d08
        0x00002f5e:    6001        .`      STR      r1,[r0,#0]
        0x00002f60:    6802        .h      LDR      r2,[r0,#0]
        0x00002f62:    a913        ..      ADD      r1,sp,#0x4c
        0x00002f64:    780b        .x      LDRB     r3,[r1,#0]
        0x00002f66:    009c        ..      LSLS     r4,r3,#2
        0x00002f68:    4b9c        .K      LDR      r3,[pc,#624] ; [0x31dc] = 0x2000016c
        0x00002f6a:    511a        .Q      STR      r2,[r3,r4]
        0x00002f6c:    780c        .x      LDRB     r4,[r1,#0]
        0x00002f6e:    4b9d        .K      LDR      r3,[pc,#628] ; [0x31e4] = 0x20000015
        0x00002f70:    2200        ."      MOVS     r2,#0
        0x00002f72:    551a        .U      STRB     r2,[r3,r4]
        0x00002f74:    6800        .h      LDR      r0,[r0,#0]
        0x00002f76:    7809        .x      LDRB     r1,[r1,#0]
        0x00002f78:    2224        $"      MOVS     r2,#0x24
        0x00002f7a:    434a        JC      MULS     r2,r1,r2
        0x00002f7c:    4994        .I      LDR      r1,[pc,#592] ; [0x31d0] = 0x2000023c
        0x00002f7e:    1889        ..      ADDS     r1,r1,r2
        0x00002f80:    6048        H`      STR      r0,[r1,#4]
        0x00002f82:    4997        .I      LDR      r1,[pc,#604] ; [0x31e0] = 0x20000f25
        0x00002f84:    7808        .x      LDRB     r0,[r1,#0]
        0x00002f86:    22fb        ."      MOVS     r2,#0xfb
        0x00002f88:    4010        .@      ANDS     r0,r0,r2
        0x00002f8a:    7008        .p      STRB     r0,[r1,#0]
        0x00002f8c:    e7ff        ..      B        0x2f8e ; MeterDataProcess + 450
        0x00002f8e:    e7ff        ..      B        0x2f90 ; MeterDataProcess + 452
        0x00002f90:    e025        %.      B        0x2fde ; MeterDataProcess + 530
        0x00002f92:    a913        ..      ADD      r1,sp,#0x4c
        0x00002f94:    780b        .x      LDRB     r3,[r1,#0]
        0x00002f96:    4893        .H      LDR      r0,[pc,#588] ; [0x31e4] = 0x20000015
        0x00002f98:    5cc2        .\      LDRB     r2,[r0,r3]
        0x00002f9a:    1c52        R.      ADDS     r2,r2,#1
        0x00002f9c:    54c2        .T      STRB     r2,[r0,r3]
        0x00002f9e:    7809        .x      LDRB     r1,[r1,#0]
        0x00002fa0:    5c40        @\      LDRB     r0,[r0,r1]
        0x00002fa2:    2804        .(      CMP      r0,#4
        0x00002fa4:    db1a        ..      BLT      0x2fdc ; MeterDataProcess + 528
        0x00002fa6:    e7ff        ..      B        0x2fa8 ; MeterDataProcess + 476
        0x00002fa8:    9815        ..      LDR      r0,[sp,#0x54]
        0x00002faa:    498a        .I      LDR      r1,[pc,#552] ; [0x31d4] = 0x20000d08
        0x00002fac:    6008        .`      STR      r0,[r1,#0]
        0x00002fae:    680a        .h      LDR      r2,[r1,#0]
        0x00002fb0:    a813        ..      ADD      r0,sp,#0x4c
        0x00002fb2:    7803        .x      LDRB     r3,[r0,#0]
        0x00002fb4:    009c        ..      LSLS     r4,r3,#2
        0x00002fb6:    4b89        .K      LDR      r3,[pc,#548] ; [0x31dc] = 0x2000016c
        0x00002fb8:    511a        .Q      STR      r2,[r3,r4]
        0x00002fba:    6809        .h      LDR      r1,[r1,#0]
        0x00002fbc:    7802        .x      LDRB     r2,[r0,#0]
        0x00002fbe:    2324        $#      MOVS     r3,#0x24
        0x00002fc0:    4353        SC      MULS     r3,r2,r3
        0x00002fc2:    4a83        .J      LDR      r2,[pc,#524] ; [0x31d0] = 0x2000023c
        0x00002fc4:    18d2        ..      ADDS     r2,r2,r3
        0x00002fc6:    6051        Q`      STR      r1,[r2,#4]
        0x00002fc8:    7802        .x      LDRB     r2,[r0,#0]
        0x00002fca:    4986        .I      LDR      r1,[pc,#536] ; [0x31e4] = 0x20000015
        0x00002fcc:    2000        .       MOVS     r0,#0
        0x00002fce:    5488        .T      STRB     r0,[r1,r2]
        0x00002fd0:    4983        .I      LDR      r1,[pc,#524] ; [0x31e0] = 0x20000f25
        0x00002fd2:    7808        .x      LDRB     r0,[r1,#0]
        0x00002fd4:    22fb        ."      MOVS     r2,#0xfb
        0x00002fd6:    4010        .@      ANDS     r0,r0,r2
        0x00002fd8:    7008        .p      STRB     r0,[r1,#0]
        0x00002fda:    e7ff        ..      B        0x2fdc ; MeterDataProcess + 528
        0x00002fdc:    e7ff        ..      B        0x2fde ; MeterDataProcess + 530
        0x00002fde:    e7ff        ..      B        0x2fe0 ; MeterDataProcess + 532
        0x00002fe0:    48fc        .H      LDR      r0,[pc,#1008] ; [0x33d4] = 0x20000d06
        0x00002fe2:    7800        .x      LDRB     r0,[r0,#0]
        0x00002fe4:    2805        .(      CMP      r0,#5
        0x00002fe6:    d166        f.      BNE      0x30b6 ; MeterDataProcess + 746
        0x00002fe8:    e7ff        ..      B        0x2fea ; MeterDataProcess + 542
        0x00002fea:    48fb        .H      LDR      r0,[pc,#1004] ; [0x33d8] = 0x20000d26
        0x00002fec:    7800        .x      LDRB     r0,[r0,#0]
        0x00002fee:    9008        ..      STR      r0,[sp,#0x20]
        0x00002ff0:    2801        .(      CMP      r0,#1
        0x00002ff2:    d008        ..      BEQ      0x3006 ; MeterDataProcess + 570
        0x00002ff4:    e7ff        ..      B        0x2ff6 ; MeterDataProcess + 554
        0x00002ff6:    9808        ..      LDR      r0,[sp,#0x20]
        0x00002ff8:    2802        .(      CMP      r0,#2
        0x00002ffa:    d020         .      BEQ      0x303e ; MeterDataProcess + 626
        0x00002ffc:    e7ff        ..      B        0x2ffe ; MeterDataProcess + 562
        0x00002ffe:    9808        ..      LDR      r0,[sp,#0x20]
        0x00003000:    2803        .(      CMP      r0,#3
        0x00003002:    d03c        <.      BEQ      0x307e ; MeterDataProcess + 690
        0x00003004:    e056        V.      B        0x30b4 ; MeterDataProcess + 744
        0x00003006:    48f2        .H      LDR      r0,[pc,#968] ; [0x33d0] = 0x20000fe2
        0x00003008:    7900        .y      LDRB     r0,[r0,#4]
        0x0000300a:    2800        .(      CMP      r0,#0
        0x0000300c:    d10b        ..      BNE      0x3026 ; MeterDataProcess + 602
        0x0000300e:    e7ff        ..      B        0x3010 ; MeterDataProcess + 580
        0x00003010:    49f3        .I      LDR      r1,[pc,#972] ; [0x33e0] = 0x20000d0c
        0x00003012:    2001        .       MOVS     r0,#1
        0x00003014:    7008        .p      STRB     r0,[r1,#0]
        0x00003016:    a813        ..      ADD      r0,sp,#0x4c
        0x00003018:    7800        .x      LDRB     r0,[r0,#0]
        0x0000301a:    2224        $"      MOVS     r2,#0x24
        0x0000301c:    4342        BC      MULS     r2,r0,r2
        0x0000301e:    49ef        .I      LDR      r1,[pc,#956] ; [0x33dc] = 0x2000023c
        0x00003020:    2002        .       MOVS     r0,#2
        0x00003022:    5488        .T      STRB     r0,[r1,r2]
        0x00003024:    e00a        ..      B        0x303c ; MeterDataProcess + 624
        0x00003026:    49ee        .I      LDR      r1,[pc,#952] ; [0x33e0] = 0x20000d0c
        0x00003028:    2000        .       MOVS     r0,#0
        0x0000302a:    7008        .p      STRB     r0,[r1,#0]
        0x0000302c:    a813        ..      ADD      r0,sp,#0x4c
        0x0000302e:    7800        .x      LDRB     r0,[r0,#0]
        0x00003030:    2224        $"      MOVS     r2,#0x24
        0x00003032:    4342        BC      MULS     r2,r0,r2
        0x00003034:    49e9        .I      LDR      r1,[pc,#932] ; [0x33dc] = 0x2000023c
        0x00003036:    2001        .       MOVS     r0,#1
        0x00003038:    5488        .T      STRB     r0,[r1,r2]
        0x0000303a:    e7ff        ..      B        0x303c ; MeterDataProcess + 624
        0x0000303c:    e03a        :.      B        0x30b4 ; MeterDataProcess + 744
        0x0000303e:    48e4        .H      LDR      r0,[pc,#912] ; [0x33d0] = 0x20000fe2
        0x00003040:    7900        .y      LDRB     r0,[r0,#4]
        0x00003042:    2801        .(      CMP      r0,#1
        0x00003044:    d10a        ..      BNE      0x305c ; MeterDataProcess + 656
        0x00003046:    e7ff        ..      B        0x3048 ; MeterDataProcess + 636
        0x00003048:    a813        ..      ADD      r0,sp,#0x4c
        0x0000304a:    7800        .x      LDRB     r0,[r0,#0]
        0x0000304c:    2224        $"      MOVS     r2,#0x24
        0x0000304e:    4342        BC      MULS     r2,r0,r2
        0x00003050:    49e2        .I      LDR      r1,[pc,#904] ; [0x33dc] = 0x2000023c
        0x00003052:    2001        .       MOVS     r0,#1
        0x00003054:    5488        .T      STRB     r0,[r1,r2]
        0x00003056:    49e2        .I      LDR      r1,[pc,#904] ; [0x33e0] = 0x20000d0c
        0x00003058:    7008        .p      STRB     r0,[r1,#0]
        0x0000305a:    e7ff        ..      B        0x305c ; MeterDataProcess + 656
        0x0000305c:    48dc        .H      LDR      r0,[pc,#880] ; [0x33d0] = 0x20000fe2
        0x0000305e:    7900        .y      LDRB     r0,[r0,#4]
        0x00003060:    2802        .(      CMP      r0,#2
        0x00003062:    d10b        ..      BNE      0x307c ; MeterDataProcess + 688
        0x00003064:    e7ff        ..      B        0x3066 ; MeterDataProcess + 666
        0x00003066:    a813        ..      ADD      r0,sp,#0x4c
        0x00003068:    7800        .x      LDRB     r0,[r0,#0]
        0x0000306a:    2224        $"      MOVS     r2,#0x24
        0x0000306c:    4342        BC      MULS     r2,r0,r2
        0x0000306e:    49db        .I      LDR      r1,[pc,#876] ; [0x33dc] = 0x2000023c
        0x00003070:    2002        .       MOVS     r0,#2
        0x00003072:    5488        .T      STRB     r0,[r1,r2]
        0x00003074:    49da        .I      LDR      r1,[pc,#872] ; [0x33e0] = 0x20000d0c
        0x00003076:    2000        .       MOVS     r0,#0
        0x00003078:    7008        .p      STRB     r0,[r1,#0]
        0x0000307a:    e7ff        ..      B        0x307c ; MeterDataProcess + 688
        0x0000307c:    e01a        ..      B        0x30b4 ; MeterDataProcess + 744
        0x0000307e:    48d4        .H      LDR      r0,[pc,#848] ; [0x33d0] = 0x20000fe2
        0x00003080:    7900        .y      LDRB     r0,[r0,#4]
        0x00003082:    2800        .(      CMP      r0,#0
        0x00003084:    d10b        ..      BNE      0x309e ; MeterDataProcess + 722
        0x00003086:    e7ff        ..      B        0x3088 ; MeterDataProcess + 700
        0x00003088:    a813        ..      ADD      r0,sp,#0x4c
        0x0000308a:    7800        .x      LDRB     r0,[r0,#0]
        0x0000308c:    2224        $"      MOVS     r2,#0x24
        0x0000308e:    4342        BC      MULS     r2,r0,r2
        0x00003090:    49d2        .I      LDR      r1,[pc,#840] ; [0x33dc] = 0x2000023c
        0x00003092:    2002        .       MOVS     r0,#2
        0x00003094:    5488        .T      STRB     r0,[r1,r2]
        0x00003096:    49d2        .I      LDR      r1,[pc,#840] ; [0x33e0] = 0x20000d0c
        0x00003098:    2000        .       MOVS     r0,#0
        0x0000309a:    7008        .p      STRB     r0,[r1,#0]
        0x0000309c:    e009        ..      B        0x30b2 ; MeterDataProcess + 742
        0x0000309e:    a813        ..      ADD      r0,sp,#0x4c
        0x000030a0:    7800        .x      LDRB     r0,[r0,#0]
        0x000030a2:    2224        $"      MOVS     r2,#0x24
        0x000030a4:    4342        BC      MULS     r2,r0,r2
        0x000030a6:    49cd        .I      LDR      r1,[pc,#820] ; [0x33dc] = 0x2000023c
        0x000030a8:    2001        .       MOVS     r0,#1
        0x000030aa:    5488        .T      STRB     r0,[r1,r2]
        0x000030ac:    49cc        .I      LDR      r1,[pc,#816] ; [0x33e0] = 0x20000d0c
        0x000030ae:    7008        .p      STRB     r0,[r1,#0]
        0x000030b0:    e7ff        ..      B        0x30b2 ; MeterDataProcess + 742
        0x000030b2:    e7ff        ..      B        0x30b4 ; MeterDataProcess + 744
        0x000030b4:    e7ff        ..      B        0x30b6 ; MeterDataProcess + 746
        0x000030b6:    48c7        .H      LDR      r0,[pc,#796] ; [0x33d4] = 0x20000d06
        0x000030b8:    7800        .x      LDRB     r0,[r0,#0]
        0x000030ba:    280c        .(      CMP      r0,#0xc
        0x000030bc:    d142        B.      BNE      0x3144 ; MeterDataProcess + 888
        0x000030be:    e7ff        ..      B        0x30c0 ; MeterDataProcess + 756
        0x000030c0:    48c5        .H      LDR      r0,[pc,#788] ; [0x33d8] = 0x20000d26
        0x000030c2:    7800        .x      LDRB     r0,[r0,#0]
        0x000030c4:    9007        ..      STR      r0,[sp,#0x1c]
        0x000030c6:    2801        .(      CMP      r0,#1
        0x000030c8:    d008        ..      BEQ      0x30dc ; MeterDataProcess + 784
        0x000030ca:    e7ff        ..      B        0x30cc ; MeterDataProcess + 768
        0x000030cc:    9807        ..      LDR      r0,[sp,#0x1c]
        0x000030ce:    2802        .(      CMP      r0,#2
        0x000030d0:    d005        ..      BEQ      0x30de ; MeterDataProcess + 786
        0x000030d2:    e7ff        ..      B        0x30d4 ; MeterDataProcess + 776
        0x000030d4:    9807        ..      LDR      r0,[sp,#0x1c]
        0x000030d6:    2803        .(      CMP      r0,#3
        0x000030d8:    d032        2.      BEQ      0x3140 ; MeterDataProcess + 884
        0x000030da:    e032        2.      B        0x3142 ; MeterDataProcess + 886
        0x000030dc:    e031        1.      B        0x3142 ; MeterDataProcess + 886
        0x000030de:    49bc        .I      LDR      r1,[pc,#752] ; [0x33d0] = 0x20000fe2
        0x000030e0:    78c8        .x      LDRB     r0,[r1,#3]
        0x000030e2:    0600        ..      LSLS     r0,r0,#24
        0x000030e4:    790a        .y      LDRB     r2,[r1,#4]
        0x000030e6:    0412        ..      LSLS     r2,r2,#16
        0x000030e8:    1880        ..      ADDS     r0,r0,r2
        0x000030ea:    794a        Jy      LDRB     r2,[r1,#5]
        0x000030ec:    0212        ..      LSLS     r2,r2,#8
        0x000030ee:    1880        ..      ADDS     r0,r0,r2
        0x000030f0:    7989        .y      LDRB     r1,[r1,#6]
        0x000030f2:    1843        C.      ADDS     r3,r0,r1
        0x000030f4:    aa13        ..      ADD      r2,sp,#0x4c
        0x000030f6:    7810        .x      LDRB     r0,[r2,#0]
        0x000030f8:    2124        $!      MOVS     r1,#0x24
        0x000030fa:    460c        .F      MOV      r4,r1
        0x000030fc:    4344        DC      MULS     r4,r0,r4
        0x000030fe:    48b7        .H      LDR      r0,[pc,#732] ; [0x33dc] = 0x2000023c
        0x00003100:    1904        ..      ADDS     r4,r0,r4
        0x00003102:    61e3        .a      STR      r3,[r4,#0x1c]
        0x00003104:    7812        .x      LDRB     r2,[r2,#0]
        0x00003106:    4351        QC      MULS     r1,r2,r1
        0x00003108:    1840        @.      ADDS     r0,r0,r1
        0x0000310a:    69c0        .i      LDR      r0,[r0,#0x1c]
        0x0000310c:    49b5        .I      LDR      r1,[pc,#724] ; [0x33e4] = 0x1863b
        0x0000310e:    4288        .B      CMP      r0,r1
        0x00003110:    d815        ..      BHI      0x313e ; MeterDataProcess + 882
        0x00003112:    e7ff        ..      B        0x3114 ; MeterDataProcess + 840
        0x00003114:    a813        ..      ADD      r0,sp,#0x4c
        0x00003116:    7801        .x      LDRB     r1,[r0,#0]
        0x00003118:    48b3        .H      LDR      r0,[pc,#716] ; [0x33e8] = 0x20000f27
        0x0000311a:    5c40        @\      LDRB     r0,[r0,r1]
        0x0000311c:    2803        .(      CMP      r0,#3
        0x0000311e:    d10e        ..      BNE      0x313e ; MeterDataProcess + 882
        0x00003120:    e7ff        ..      B        0x3122 ; MeterDataProcess + 854
        0x00003122:    a813        ..      ADD      r0,sp,#0x4c
        0x00003124:    7801        .x      LDRB     r1,[r0,#0]
        0x00003126:    48b1        .H      LDR      r0,[pc,#708] ; [0x33ec] = 0x20000d28
        0x00003128:    5c40        @\      LDRB     r0,[r0,r1]
        0x0000312a:    2800        .(      CMP      r0,#0
        0x0000312c:    d106        ..      BNE      0x313c ; MeterDataProcess + 880
        0x0000312e:    e7ff        ..      B        0x3130 ; MeterDataProcess + 868
        0x00003130:    a813        ..      ADD      r0,sp,#0x4c
        0x00003132:    7802        .x      LDRB     r2,[r0,#0]
        0x00003134:    49ad        .I      LDR      r1,[pc,#692] ; [0x33ec] = 0x20000d28
        0x00003136:    2007        .       MOVS     r0,#7
        0x00003138:    5488        .T      STRB     r0,[r1,r2]
        0x0000313a:    e7ff        ..      B        0x313c ; MeterDataProcess + 880
        0x0000313c:    e7ff        ..      B        0x313e ; MeterDataProcess + 882
        0x0000313e:    e000        ..      B        0x3142 ; MeterDataProcess + 886
        0x00003140:    e7ff        ..      B        0x3142 ; MeterDataProcess + 886
        0x00003142:    e7ff        ..      B        0x3144 ; MeterDataProcess + 888
        0x00003144:    48a3        .H      LDR      r0,[pc,#652] ; [0x33d4] = 0x20000d06
        0x00003146:    7800        .x      LDRB     r0,[r0,#0]
        0x00003148:    280d        .(      CMP      r0,#0xd
        0x0000314a:    d124        $.      BNE      0x3196 ; MeterDataProcess + 970
        0x0000314c:    e7ff        ..      B        0x314e ; MeterDataProcess + 898
        0x0000314e:    48a2        .H      LDR      r0,[pc,#648] ; [0x33d8] = 0x20000d26
        0x00003150:    7800        .x      LDRB     r0,[r0,#0]
        0x00003152:    9006        ..      STR      r0,[sp,#0x18]
        0x00003154:    2801        .(      CMP      r0,#1
        0x00003156:    d008        ..      BEQ      0x316a ; MeterDataProcess + 926
        0x00003158:    e7ff        ..      B        0x315a ; MeterDataProcess + 910
        0x0000315a:    9806        ..      LDR      r0,[sp,#0x18]
        0x0000315c:    2802        .(      CMP      r0,#2
        0x0000315e:    d005        ..      BEQ      0x316c ; MeterDataProcess + 928
        0x00003160:    e7ff        ..      B        0x3162 ; MeterDataProcess + 918
        0x00003162:    9806        ..      LDR      r0,[sp,#0x18]
        0x00003164:    2803        .(      CMP      r0,#3
        0x00003166:    d014        ..      BEQ      0x3192 ; MeterDataProcess + 966
        0x00003168:    e014        ..      B        0x3194 ; MeterDataProcess + 968
        0x0000316a:    e013        ..      B        0x3194 ; MeterDataProcess + 968
        0x0000316c:    4998        .I      LDR      r1,[pc,#608] ; [0x33d0] = 0x20000fe2
        0x0000316e:    78c8        .x      LDRB     r0,[r1,#3]
        0x00003170:    0600        ..      LSLS     r0,r0,#24
        0x00003172:    790a        .y      LDRB     r2,[r1,#4]
        0x00003174:    0412        ..      LSLS     r2,r2,#16
        0x00003176:    1880        ..      ADDS     r0,r0,r2
        0x00003178:    794a        Jy      LDRB     r2,[r1,#5]
        0x0000317a:    0212        ..      LSLS     r2,r2,#8
        0x0000317c:    1880        ..      ADDS     r0,r0,r2
        0x0000317e:    7989        .y      LDRB     r1,[r1,#6]
        0x00003180:    1840        @.      ADDS     r0,r0,r1
        0x00003182:    a913        ..      ADD      r1,sp,#0x4c
        0x00003184:    7809        .x      LDRB     r1,[r1,#0]
        0x00003186:    2224        $"      MOVS     r2,#0x24
        0x00003188:    434a        JC      MULS     r2,r1,r2
        0x0000318a:    4994        .I      LDR      r1,[pc,#592] ; [0x33dc] = 0x2000023c
        0x0000318c:    1889        ..      ADDS     r1,r1,r2
        0x0000318e:    6088        .`      STR      r0,[r1,#8]
        0x00003190:    e000        ..      B        0x3194 ; MeterDataProcess + 968
        0x00003192:    e7ff        ..      B        0x3194 ; MeterDataProcess + 968
        0x00003194:    e7ff        ..      B        0x3196 ; MeterDataProcess + 970
        0x00003196:    488f        .H      LDR      r0,[pc,#572] ; [0x33d4] = 0x20000d06
        0x00003198:    7800        .x      LDRB     r0,[r0,#0]
        0x0000319a:    280e        .(      CMP      r0,#0xe
        0x0000319c:    d139        9.      BNE      0x3212 ; 0x3212
        0x0000319e:    e7ff        ..      B        0x31a0 ; MeterDataProcess + 980
        0x000031a0:    488d        .H      LDR      r0,[pc,#564] ; [0x33d8] = 0x20000d26
        0x000031a2:    7800        .x      LDRB     r0,[r0,#0]
        0x000031a4:    9005        ..      STR      r0,[sp,#0x14]
        0x000031a6:    2801        .(      CMP      r0,#1
        0x000031a8:    d008        ..      BEQ      0x31bc ; MeterDataProcess + 1008
        0x000031aa:    e7ff        ..      B        0x31ac ; MeterDataProcess + 992
        0x000031ac:    9805        ..      LDR      r0,[sp,#0x14]
        0x000031ae:    2802        .(      CMP      r0,#2
        0x000031b0:    d01a        ..      BEQ      0x31e8 ; 0x31e8
        0x000031b2:    e7ff        ..      B        0x31b4 ; MeterDataProcess + 1000
        0x000031b4:    9805        ..      LDR      r0,[sp,#0x14]
        0x000031b6:    2803        .(      CMP      r0,#3
        0x000031b8:    d029        ).      BEQ      0x320e ; 0x320e
        0x000031ba:    e029        ).      B        0x3210 ; 0x3210
        0x000031bc:    e028        (.      B        0x3210 ; 0x3210
        0x000031be:    46c0        .F      MOV      r8,r8
    $d
        0x000031c0:    20000fe2    ...     DCD    536874978
    __arm_cp.4_15
        0x000031c4:    500042dc    .B.P    DCD    1342194396
        0x000031c8:    20000d06    ...     DCD    536874246
        0x000031cc:    20000d26    &..     DCD    536874278
        0x000031d0:    2000023c    <..     DCD    536871484
    __arm_cp.4_19
        0x000031d4:    20000d08    ...     DCD    536874248
    __arm_cp.4_20
        0x000031d8:    20000e50    P..     DCD    536874576
    __arm_cp.4_21
        0x000031dc:    2000016c    l..     DCD    536871276
    __arm_cp.4_22
        0x000031e0:    20000f25    %..     DCD    536874789
    __arm_cp.4_23
        0x000031e4:    20000015    ...     DCD    536870933
    $t
        0x000031e8:    4979        yI      LDR      r1,[pc,#484] ; [0x33d0] = 0x20000fe2
        0x000031ea:    78c8        .x      LDRB     r0,[r1,#3]
        0x000031ec:    0600        ..      LSLS     r0,r0,#24
        0x000031ee:    790a        .y      LDRB     r2,[r1,#4]
        0x000031f0:    0412        ..      LSLS     r2,r2,#16
        0x000031f2:    1880        ..      ADDS     r0,r0,r2
        0x000031f4:    794a        Jy      LDRB     r2,[r1,#5]
        0x000031f6:    0212        ..      LSLS     r2,r2,#8
        0x000031f8:    1880        ..      ADDS     r0,r0,r2
        0x000031fa:    7989        .y      LDRB     r1,[r1,#6]
        0x000031fc:    1840        @.      ADDS     r0,r0,r1
        0x000031fe:    a913        ..      ADD      r1,sp,#0x4c
        0x00003200:    7809        .x      LDRB     r1,[r1,#0]
        0x00003202:    2224        $"      MOVS     r2,#0x24
        0x00003204:    434a        JC      MULS     r2,r1,r2
        0x00003206:    4975        uI      LDR      r1,[pc,#468] ; [0x33dc] = 0x2000023c
        0x00003208:    1889        ..      ADDS     r1,r1,r2
        0x0000320a:    60c8        .`      STR      r0,[r1,#0xc]
        0x0000320c:    e000        ..      B        0x3210 ; 0x3210
        0x0000320e:    e7ff        ..      B        0x3210 ; 0x3210
        0x00003210:    e7ff        ..      B        0x3212 ; 0x3212
        0x00003212:    4870        pH      LDR      r0,[pc,#448] ; [0x33d4] = 0x20000d06
        0x00003214:    7800        .x      LDRB     r0,[r0,#0]
        0x00003216:    280f        .(      CMP      r0,#0xf
        0x00003218:    d11e        ..      BNE      0x3258 ; 0x3258
        0x0000321a:    e7ff        ..      B        0x321c ; 0x321c
        0x0000321c:    486e        nH      LDR      r0,[pc,#440] ; [0x33d8] = 0x20000d26
        0x0000321e:    7800        .x      LDRB     r0,[r0,#0]
        0x00003220:    9004        ..      STR      r0,[sp,#0x10]
        0x00003222:    2801        .(      CMP      r0,#1
        0x00003224:    d008        ..      BEQ      0x3238 ; 0x3238
        0x00003226:    e7ff        ..      B        0x3228 ; 0x3228
        0x00003228:    9804        ..      LDR      r0,[sp,#0x10]
        0x0000322a:    2802        .(      CMP      r0,#2
        0x0000322c:    d005        ..      BEQ      0x323a ; 0x323a
        0x0000322e:    e7ff        ..      B        0x3230 ; 0x3230
        0x00003230:    9804        ..      LDR      r0,[sp,#0x10]
        0x00003232:    2803        .(      CMP      r0,#3
        0x00003234:    d00e        ..      BEQ      0x3254 ; 0x3254
        0x00003236:    e00e        ..      B        0x3256 ; 0x3256
        0x00003238:    e00d        ..      B        0x3256 ; 0x3256
        0x0000323a:    4965        eI      LDR      r1,[pc,#404] ; [0x33d0] = 0x20000fe2
        0x0000323c:    78c8        .x      LDRB     r0,[r1,#3]
        0x0000323e:    0200        ..      LSLS     r0,r0,#8
        0x00003240:    7909        .y      LDRB     r1,[r1,#4]
        0x00003242:    1840        @.      ADDS     r0,r0,r1
        0x00003244:    a913        ..      ADD      r1,sp,#0x4c
        0x00003246:    7809        .x      LDRB     r1,[r1,#0]
        0x00003248:    2224        $"      MOVS     r2,#0x24
        0x0000324a:    434a        JC      MULS     r2,r1,r2
        0x0000324c:    4963        cI      LDR      r1,[pc,#396] ; [0x33dc] = 0x2000023c
        0x0000324e:    1889        ..      ADDS     r1,r1,r2
        0x00003250:    8308        ..      STRH     r0,[r1,#0x18]
        0x00003252:    e000        ..      B        0x3256 ; 0x3256
        0x00003254:    e7ff        ..      B        0x3256 ; 0x3256
        0x00003256:    e7ff        ..      B        0x3258 ; 0x3258
        0x00003258:    485e        ^H      LDR      r0,[pc,#376] ; [0x33d4] = 0x20000d06
        0x0000325a:    7800        .x      LDRB     r0,[r0,#0]
        0x0000325c:    2810        .(      CMP      r0,#0x10
        0x0000325e:    d124        $.      BNE      0x32aa ; 0x32aa
        0x00003260:    e7ff        ..      B        0x3262 ; 0x3262
        0x00003262:    485d        ]H      LDR      r0,[pc,#372] ; [0x33d8] = 0x20000d26
        0x00003264:    7800        .x      LDRB     r0,[r0,#0]
        0x00003266:    9003        ..      STR      r0,[sp,#0xc]
        0x00003268:    2801        .(      CMP      r0,#1
        0x0000326a:    d008        ..      BEQ      0x327e ; 0x327e
        0x0000326c:    e7ff        ..      B        0x326e ; 0x326e
        0x0000326e:    9803        ..      LDR      r0,[sp,#0xc]
        0x00003270:    2802        .(      CMP      r0,#2
        0x00003272:    d005        ..      BEQ      0x3280 ; 0x3280
        0x00003274:    e7ff        ..      B        0x3276 ; 0x3276
        0x00003276:    9803        ..      LDR      r0,[sp,#0xc]
        0x00003278:    2803        .(      CMP      r0,#3
        0x0000327a:    d014        ..      BEQ      0x32a6 ; 0x32a6
        0x0000327c:    e014        ..      B        0x32a8 ; 0x32a8
        0x0000327e:    e013        ..      B        0x32a8 ; 0x32a8
        0x00003280:    4953        SI      LDR      r1,[pc,#332] ; [0x33d0] = 0x20000fe2
        0x00003282:    78c8        .x      LDRB     r0,[r1,#3]
        0x00003284:    0600        ..      LSLS     r0,r0,#24
        0x00003286:    790a        .y      LDRB     r2,[r1,#4]
        0x00003288:    0412        ..      LSLS     r2,r2,#16
        0x0000328a:    1880        ..      ADDS     r0,r0,r2
        0x0000328c:    794a        Jy      LDRB     r2,[r1,#5]
        0x0000328e:    0212        ..      LSLS     r2,r2,#8
        0x00003290:    1880        ..      ADDS     r0,r0,r2
        0x00003292:    7989        .y      LDRB     r1,[r1,#6]
        0x00003294:    1840        @.      ADDS     r0,r0,r1
        0x00003296:    a913        ..      ADD      r1,sp,#0x4c
        0x00003298:    7809        .x      LDRB     r1,[r1,#0]
        0x0000329a:    2224        $"      MOVS     r2,#0x24
        0x0000329c:    434a        JC      MULS     r2,r1,r2
        0x0000329e:    494f        OI      LDR      r1,[pc,#316] ; [0x33dc] = 0x2000023c
        0x000032a0:    1889        ..      ADDS     r1,r1,r2
        0x000032a2:    6108        .a      STR      r0,[r1,#0x10]
        0x000032a4:    e000        ..      B        0x32a8 ; 0x32a8
        0x000032a6:    e7ff        ..      B        0x32a8 ; 0x32a8
        0x000032a8:    e7ff        ..      B        0x32aa ; 0x32aa
        0x000032aa:    484a        JH      LDR      r0,[pc,#296] ; [0x33d4] = 0x20000d06
        0x000032ac:    7800        .x      LDRB     r0,[r0,#0]
        0x000032ae:    2811        .(      CMP      r0,#0x11
        0x000032b0:    d124        $.      BNE      0x32fc ; 0x32fc
        0x000032b2:    e7ff        ..      B        0x32b4 ; 0x32b4
        0x000032b4:    4848        HH      LDR      r0,[pc,#288] ; [0x33d8] = 0x20000d26
        0x000032b6:    7800        .x      LDRB     r0,[r0,#0]
        0x000032b8:    9002        ..      STR      r0,[sp,#8]
        0x000032ba:    2801        .(      CMP      r0,#1
        0x000032bc:    d008        ..      BEQ      0x32d0 ; 0x32d0
        0x000032be:    e7ff        ..      B        0x32c0 ; 0x32c0
        0x000032c0:    9802        ..      LDR      r0,[sp,#8]
        0x000032c2:    2802        .(      CMP      r0,#2
        0x000032c4:    d005        ..      BEQ      0x32d2 ; 0x32d2
        0x000032c6:    e7ff        ..      B        0x32c8 ; 0x32c8
        0x000032c8:    9802        ..      LDR      r0,[sp,#8]
        0x000032ca:    2803        .(      CMP      r0,#3
        0x000032cc:    d014        ..      BEQ      0x32f8 ; 0x32f8
        0x000032ce:    e014        ..      B        0x32fa ; 0x32fa
        0x000032d0:    e013        ..      B        0x32fa ; 0x32fa
        0x000032d2:    493f        ?I      LDR      r1,[pc,#252] ; [0x33d0] = 0x20000fe2
        0x000032d4:    78c8        .x      LDRB     r0,[r1,#3]
        0x000032d6:    0600        ..      LSLS     r0,r0,#24
        0x000032d8:    790a        .y      LDRB     r2,[r1,#4]
        0x000032da:    0412        ..      LSLS     r2,r2,#16
        0x000032dc:    1880        ..      ADDS     r0,r0,r2
        0x000032de:    794a        Jy      LDRB     r2,[r1,#5]
        0x000032e0:    0212        ..      LSLS     r2,r2,#8
        0x000032e2:    1880        ..      ADDS     r0,r0,r2
        0x000032e4:    7989        .y      LDRB     r1,[r1,#6]
        0x000032e6:    1840        @.      ADDS     r0,r0,r1
        0x000032e8:    a913        ..      ADD      r1,sp,#0x4c
        0x000032ea:    7809        .x      LDRB     r1,[r1,#0]
        0x000032ec:    2224        $"      MOVS     r2,#0x24
        0x000032ee:    434a        JC      MULS     r2,r1,r2
        0x000032f0:    493a        :I      LDR      r1,[pc,#232] ; [0x33dc] = 0x2000023c
        0x000032f2:    1889        ..      ADDS     r1,r1,r2
        0x000032f4:    6108        .a      STR      r0,[r1,#0x10]
        0x000032f6:    e000        ..      B        0x32fa ; 0x32fa
        0x000032f8:    e7ff        ..      B        0x32fa ; 0x32fa
        0x000032fa:    e7ff        ..      B        0x32fc ; 0x32fc
        0x000032fc:    4835        5H      LDR      r0,[pc,#212] ; [0x33d4] = 0x20000d06
        0x000032fe:    7800        .x      LDRB     r0,[r0,#0]
        0x00003300:    2812        .(      CMP      r0,#0x12
        0x00003302:    d11e        ..      BNE      0x3342 ; 0x3342
        0x00003304:    e7ff        ..      B        0x3306 ; 0x3306
        0x00003306:    4834        4H      LDR      r0,[pc,#208] ; [0x33d8] = 0x20000d26
        0x00003308:    7800        .x      LDRB     r0,[r0,#0]
        0x0000330a:    9001        ..      STR      r0,[sp,#4]
        0x0000330c:    2801        .(      CMP      r0,#1
        0x0000330e:    d008        ..      BEQ      0x3322 ; 0x3322
        0x00003310:    e7ff        ..      B        0x3312 ; 0x3312
        0x00003312:    9801        ..      LDR      r0,[sp,#4]
        0x00003314:    2802        .(      CMP      r0,#2
        0x00003316:    d005        ..      BEQ      0x3324 ; 0x3324
        0x00003318:    e7ff        ..      B        0x331a ; 0x331a
        0x0000331a:    9801        ..      LDR      r0,[sp,#4]
        0x0000331c:    2803        .(      CMP      r0,#3
        0x0000331e:    d00e        ..      BEQ      0x333e ; 0x333e
        0x00003320:    e00e        ..      B        0x3340 ; 0x3340
        0x00003322:    e00d        ..      B        0x3340 ; 0x3340
        0x00003324:    492a        *I      LDR      r1,[pc,#168] ; [0x33d0] = 0x20000fe2
        0x00003326:    78c8        .x      LDRB     r0,[r1,#3]
        0x00003328:    0200        ..      LSLS     r0,r0,#8
        0x0000332a:    7909        .y      LDRB     r1,[r1,#4]
        0x0000332c:    1840        @.      ADDS     r0,r0,r1
        0x0000332e:    a913        ..      ADD      r1,sp,#0x4c
        0x00003330:    7809        .x      LDRB     r1,[r1,#0]
        0x00003332:    2224        $"      MOVS     r2,#0x24
        0x00003334:    434a        JC      MULS     r2,r1,r2
        0x00003336:    4929        )I      LDR      r1,[pc,#164] ; [0x33dc] = 0x2000023c
        0x00003338:    1889        ..      ADDS     r1,r1,r2
        0x0000333a:    8348        H.      STRH     r0,[r1,#0x1a]
        0x0000333c:    e000        ..      B        0x3340 ; 0x3340
        0x0000333e:    e7ff        ..      B        0x3340 ; 0x3340
        0x00003340:    e7ff        ..      B        0x3342 ; 0x3342
        0x00003342:    4824        $H      LDR      r0,[pc,#144] ; [0x33d4] = 0x20000d06
        0x00003344:    7800        .x      LDRB     r0,[r0,#0]
        0x00003346:    2813        .(      CMP      r0,#0x13
        0x00003348:    d10a        ..      BNE      0x3360 ; 0x3360
        0x0000334a:    e7ff        ..      B        0x334c ; 0x334c
        0x0000334c:    4820         H      LDR      r0,[pc,#128] ; [0x33d0] = 0x20000fe2
        0x0000334e:    7900        .y      LDRB     r0,[r0,#4]
        0x00003350:    a913        ..      ADD      r1,sp,#0x4c
        0x00003352:    7809        .x      LDRB     r1,[r1,#0]
        0x00003354:    2224        $"      MOVS     r2,#0x24
        0x00003356:    434a        JC      MULS     r2,r1,r2
        0x00003358:    4920         I      LDR      r1,[pc,#128] ; [0x33dc] = 0x2000023c
        0x0000335a:    1889        ..      ADDS     r1,r1,r2
        0x0000335c:    7048        Hp      STRB     r0,[r1,#1]
        0x0000335e:    e7ff        ..      B        0x3360 ; 0x3360
        0x00003360:    481c        .H      LDR      r0,[pc,#112] ; [0x33d4] = 0x20000d06
        0x00003362:    7800        .x      LDRB     r0,[r0,#0]
        0x00003364:    2814        .(      CMP      r0,#0x14
        0x00003366:    d10a        ..      BNE      0x337e ; 0x337e
        0x00003368:    e7ff        ..      B        0x336a ; 0x336a
        0x0000336a:    4819        .H      LDR      r0,[pc,#100] ; [0x33d0] = 0x20000fe2
        0x0000336c:    7900        .y      LDRB     r0,[r0,#4]
        0x0000336e:    a913        ..      ADD      r1,sp,#0x4c
        0x00003370:    7809        .x      LDRB     r1,[r1,#0]
        0x00003372:    2224        $"      MOVS     r2,#0x24
        0x00003374:    434a        JC      MULS     r2,r1,r2
        0x00003376:    4919        .I      LDR      r1,[pc,#100] ; [0x33dc] = 0x2000023c
        0x00003378:    1889        ..      ADDS     r1,r1,r2
        0x0000337a:    7088        .p      STRB     r0,[r1,#2]
        0x0000337c:    e7ff        ..      B        0x337e ; 0x337e
        0x0000337e:    4815        .H      LDR      r0,[pc,#84] ; [0x33d4] = 0x20000d06
        0x00003380:    7800        .x      LDRB     r0,[r0,#0]
        0x00003382:    2815        .(      CMP      r0,#0x15
        0x00003384:    d113        ..      BNE      0x33ae ; 0x33ae
        0x00003386:    e7ff        ..      B        0x3388 ; 0x3388
        0x00003388:    4911        .I      LDR      r1,[pc,#68] ; [0x33d0] = 0x20000fe2
        0x0000338a:    78c8        .x      LDRB     r0,[r1,#3]
        0x0000338c:    0600        ..      LSLS     r0,r0,#24
        0x0000338e:    790a        .y      LDRB     r2,[r1,#4]
        0x00003390:    0412        ..      LSLS     r2,r2,#16
        0x00003392:    1880        ..      ADDS     r0,r0,r2
        0x00003394:    794a        Jy      LDRB     r2,[r1,#5]
        0x00003396:    0212        ..      LSLS     r2,r2,#8
        0x00003398:    1880        ..      ADDS     r0,r0,r2
        0x0000339a:    7989        .y      LDRB     r1,[r1,#6]
        0x0000339c:    1840        @.      ADDS     r0,r0,r1
        0x0000339e:    a913        ..      ADD      r1,sp,#0x4c
        0x000033a0:    7809        .x      LDRB     r1,[r1,#0]
        0x000033a2:    2224        $"      MOVS     r2,#0x24
        0x000033a4:    434a        JC      MULS     r2,r1,r2
        0x000033a6:    490d        .I      LDR      r1,[pc,#52] ; [0x33dc] = 0x2000023c
        0x000033a8:    1889        ..      ADDS     r1,r1,r2
        0x000033aa:    6208        .b      STR      r0,[r1,#0x20]
        0x000033ac:    e7ff        ..      B        0x33ae ; 0x33ae
        0x000033ae:    a813        ..      ADD      r0,sp,#0x4c
        0x000033b0:    9000        ..      STR      r0,[sp,#0]
        0x000033b2:    7800        .x      LDRB     r0,[r0,#0]
        0x000033b4:    2224        $"      MOVS     r2,#0x24
        0x000033b6:    4342        BC      MULS     r2,r0,r2
        0x000033b8:    4908        .I      LDR      r1,[pc,#32] ; [0x33dc] = 0x2000023c
        0x000033ba:    1889        ..      ADDS     r1,r1,r2
        0x000033bc:    f7fffb78    ..x.    BL       I2cWriteDataStruct ; 0x2ab0
        0x000033c0:    9800        ..      LDR      r0,[sp,#0]
        0x000033c2:    7800        .x      LDRB     r0,[r0,#0]
        0x000033c4:    a90a        ..      ADD      r1,sp,#0x28
        0x000033c6:    f7fffae5    ....    BL       I2cReadDataStruct ; 0x2994
        0x000033ca:    e7ff        ..      B        0x33cc ; 0x33cc
        0x000033cc:    b016        ..      ADD      sp,sp,#0x58
        0x000033ce:    bdb0        ..      POP      {r4,r5,r7,pc}
    $d
    __arm_cp.4_0
        0x000033d0:    20000fe2    ...     DCD    536874978
    __arm_cp.4_2
        0x000033d4:    20000d06    ...     DCD    536874246
    __arm_cp.4_3
        0x000033d8:    20000d26    &..     DCD    536874278
    __arm_cp.4_4
        0x000033dc:    2000023c    <..     DCD    536871484
    __arm_cp.4_10
        0x000033e0:    20000d0c    ...     DCD    536874252
    __arm_cp.4_11
        0x000033e4:    0001863b    ;...    DCD    99899
    __arm_cp.4_12
        0x000033e8:    20000f27    '..     DCD    536874791
    __arm_cp.4_13
        0x000033ec:    20000d28    (..     DCD    536874280
    $t
    MeterPolling
        0x000033f0:    b580        ..      PUSH     {r7,lr}
        0x000033f2:    b088        ..      SUB      sp,sp,#0x20
        0x000033f4:    485f        _H      LDR      r0,[pc,#380] ; [0x3574] = 0x20000239
        0x000033f6:    7800        .x      LDRB     r0,[r0,#0]
        0x000033f8:    495f        _I      LDR      r1,[pc,#380] ; [0x3578] = 0x20000d48
        0x000033fa:    7809        .x      LDRB     r1,[r1,#0]
        0x000033fc:    4288        .B      CMP      r0,r1
        0x000033fe:    d001        ..      BEQ      0x3404 ; MeterPolling + 20
        0x00003400:    e7ff        ..      B        0x3402 ; MeterPolling + 18
        0x00003402:    e319        ..      B        0x3a38 ; 0x3a38
        0x00003404:    485d        ]H      LDR      r0,[pc,#372] ; [0x357c] = 0x20000d07
        0x00003406:    7800        .x      LDRB     r0,[r0,#0]
        0x00003408:    9007        ..      STR      r0,[sp,#0x1c]
        0x0000340a:    2826        &(      CMP      r0,#0x26
        0x0000340c:    d900        ..      BLS      0x3410 ; MeterPolling + 32
        0x0000340e:    e30f        ..      B        0x3a30 ; 0x3a30
        0x00003410:    9807        ..      LDR      r0,[sp,#0x1c]
        0x00003412:    0081        ..      LSLS     r1,r0,#2
        0x00003414:    a001        ..      ADR      r0,{pc}+8 ; 0x341c
        0x00003416:    5840        @X      LDR      r0,[r0,r1]
        0x00003418:    4687        .F      MOV      pc,r0
        0x0000341a:    46c0        .F      MOV      r8,r8
    $d
        0x0000341c:    000034b9    .4..    DCD    13497
        0x00003420:    00003623    #6..    DCD    13859
        0x00003424:    0000363f    ?6..    DCD    13887
        0x00003428:    00003655    U6..    DCD    13909
        0x0000342c:    00003669    i6..    DCD    13929
        0x00003430:    000036a1    .6..    DCD    13985
        0x00003434:    000036b5    .6..    DCD    14005
        0x00003438:    000036c9    .6..    DCD    14025
        0x0000343c:    000036dd    .6..    DCD    14045
        0x00003440:    000036f1    .6..    DCD    14065
        0x00003444:    00003705    .7..    DCD    14085
        0x00003448:    00003719    .7..    DCD    14105
        0x0000344c:    0000372d    -7..    DCD    14125
        0x00003450:    00003741    A7..    DCD    14145
        0x00003454:    00003755    U7..    DCD    14165
        0x00003458:    00003769    i7..    DCD    14185
        0x0000345c:    00003a31    1:..    DCD    14897
        0x00003460:    0000378b    .7..    DCD    14219
        0x00003464:    0000379f    .7..    DCD    14239
        0x00003468:    00003a31    1:..    DCD    14897
        0x0000346c:    000037c1    .7..    DCD    14273
        0x00003470:    000037d5    .7..    DCD    14293
        0x00003474:    00003a31    1:..    DCD    14897
        0x00003478:    000037f7    .7..    DCD    14327
        0x0000347c:    0000380f    .8..    DCD    14351
        0x00003480:    00003837    78..    DCD    14391
        0x00003484:    0000385b    [8..    DCD    14427
        0x00003488:    0000387f    .8..    DCD    14463
        0x0000348c:    000038a3    .8..    DCD    14499
        0x00003490:    000038cb    .8..    DCD    14539
        0x00003494:    000038e3    .8..    DCD    14563
        0x00003498:    0000390b    .9..    DCD    14603
        0x0000349c:    0000392f    /9..    DCD    14639
        0x000034a0:    00003953    S9..    DCD    14675
        0x000034a4:    00003977    w9..    DCD    14711
        0x000034a8:    000039a9    .9..    DCD    14761
        0x000034ac:    000039c5    .9..    DCD    14789
        0x000034b0:    000039e9    .9..    DCD    14825
        0x000034b4:    00003a09    .:..    DCD    14857
    $t
        0x000034b8:    4831        1H      LDR      r0,[pc,#196] ; [0x3580] = 0x20000f7a
        0x000034ba:    8800        ..      LDRH     r0,[r0,#0]
        0x000034bc:    4931        1I      LDR      r1,[pc,#196] ; [0x3584] = 0x20000f20
        0x000034be:    8809        ..      LDRH     r1,[r1,#0]
        0x000034c0:    4288        .B      CMP      r0,r1
        0x000034c2:    db26        &.      BLT      0x3512 ; MeterPolling + 290
        0x000034c4:    e7ff        ..      B        0x34c6 ; MeterPolling + 214
        0x000034c6:    492e        .I      LDR      r1,[pc,#184] ; [0x3580] = 0x20000f7a
        0x000034c8:    2000        .       MOVS     r0,#0
        0x000034ca:    8008        ..      STRH     r0,[r1,#0]
        0x000034cc:    482e        .H      LDR      r0,[pc,#184] ; [0x3588] = 0x20000d4b
        0x000034ce:    7800        .x      LDRB     r0,[r0,#0]
        0x000034d0:    1c81        ..      ADDS     r1,r0,#2
        0x000034d2:    482a        *H      LDR      r0,[pc,#168] ; [0x357c] = 0x20000d07
        0x000034d4:    7001        .p      STRB     r1,[r0,#0]
        0x000034d6:    7800        .x      LDRB     r0,[r0,#0]
        0x000034d8:    280e        .(      CMP      r0,#0xe
        0x000034da:    db15        ..      BLT      0x3508 ; MeterPolling + 280
        0x000034dc:    e7ff        ..      B        0x34de ; MeterPolling + 238
        0x000034de:    4927        'I      LDR      r1,[pc,#156] ; [0x357c] = 0x20000d07
        0x000034e0:    2002        .       MOVS     r0,#2
        0x000034e2:    7008        .p      STRB     r0,[r1,#0]
        0x000034e4:    4928        (I      LDR      r1,[pc,#160] ; [0x3588] = 0x20000d4b
        0x000034e6:    2000        .       MOVS     r0,#0
        0x000034e8:    7008        .p      STRB     r0,[r1,#0]
        0x000034ea:    4828        (H      LDR      r0,[pc,#160] ; [0x358c] = 0x20000d4a
        0x000034ec:    7801        .x      LDRB     r1,[r0,#0]
        0x000034ee:    1c49        I.      ADDS     r1,r1,#1
        0x000034f0:    7001        .p      STRB     r1,[r0,#0]
        0x000034f2:    7800        .x      LDRB     r0,[r0,#0]
        0x000034f4:    4926        &I      LDR      r1,[pc,#152] ; [0x3590] = 0x20000238
        0x000034f6:    7809        .x      LDRB     r1,[r1,#0]
        0x000034f8:    4288        .B      CMP      r0,r1
        0x000034fa:    dd04        ..      BLE      0x3506 ; MeterPolling + 278
        0x000034fc:    e7ff        ..      B        0x34fe ; MeterPolling + 270
        0x000034fe:    4923        #I      LDR      r1,[pc,#140] ; [0x358c] = 0x20000d4a
        0x00003500:    2001        .       MOVS     r0,#1
        0x00003502:    7008        .p      STRB     r0,[r1,#0]
        0x00003504:    e7ff        ..      B        0x3506 ; MeterPolling + 278
        0x00003506:    e7ff        ..      B        0x3508 ; MeterPolling + 280
        0x00003508:    4820         H      LDR      r0,[pc,#128] ; [0x358c] = 0x20000d4a
        0x0000350a:    7800        .x      LDRB     r0,[r0,#0]
        0x0000350c:    4921        !I      LDR      r1,[pc,#132] ; [0x3594] = 0x20000d54
        0x0000350e:    7008        .p      STRB     r0,[r1,#0]
        0x00003510:    e086        ..      B        0x3620 ; 0x3620
        0x00003512:    491e        .I      LDR      r1,[pc,#120] ; [0x358c] = 0x20000d4a
        0x00003514:    7808        .x      LDRB     r0,[r1,#0]
        0x00003516:    4b20         K      LDR      r3,[pc,#128] ; [0x3598] = 0x20000d28
        0x00003518:    18c0        ..      ADDS     r0,r0,r3
        0x0000351a:    1e40        @.      SUBS     r0,r0,#1
        0x0000351c:    7802        .x      LDRB     r2,[r0,#0]
        0x0000351e:    481f        .H      LDR      r0,[pc,#124] ; [0x359c] = 0x20000d27
        0x00003520:    7002        .p      STRB     r2,[r0,#0]
        0x00003522:    780a        .x      LDRB     r2,[r1,#0]
        0x00003524:    18d2        ..      ADDS     r2,r2,r3
        0x00003526:    1e53        S.      SUBS     r3,r2,#1
        0x00003528:    2200        ."      MOVS     r2,#0
        0x0000352a:    701a        .p      STRB     r2,[r3,#0]
        0x0000352c:    7809        .x      LDRB     r1,[r1,#0]
        0x0000352e:    4a19        .J      LDR      r2,[pc,#100] ; [0x3594] = 0x20000d54
        0x00003530:    7011        .p      STRB     r1,[r2,#0]
        0x00003532:    7800        .x      LDRB     r0,[r0,#0]
        0x00003534:    9006        ..      STR      r0,[sp,#0x18]
        0x00003536:    280b        .(      CMP      r0,#0xb
        0x00003538:    d870        p.      BHI      0x361c ; 0x361c
        0x0000353a:    9806        ..      LDR      r0,[sp,#0x18]
        0x0000353c:    0081        ..      LSLS     r1,r0,#2
        0x0000353e:    a001        ..      ADR      r0,{pc}+6 ; 0x3544
        0x00003540:    5840        @X      LDR      r0,[r0,r1]
        0x00003542:    4687        .F      MOV      pc,r0
    $d
        0x00003544:    000035a1    .5..    DCD    13729
        0x00003548:    0000361d    .6..    DCD    13853
        0x0000354c:    0000361d    .6..    DCD    13853
        0x00003550:    000035a3    .5..    DCD    13731
        0x00003554:    000035b7    .5..    DCD    13751
        0x00003558:    0000361d    .6..    DCD    13853
        0x0000355c:    0000361d    .6..    DCD    13853
        0x00003560:    000035c9    .5..    DCD    13769
        0x00003564:    000035d7    .5..    DCD    13783
        0x00003568:    000035e5    .5..    DCD    13797
        0x0000356c:    000035f9    .5..    DCD    13817
        0x00003570:    0000360b    .6..    DCD    13835
    __arm_cp.0_20
        0x00003574:    20000239    9..     DCD    536871481
    __arm_cp.0_21
        0x00003578:    20000d48    H..     DCD    536874312
        0x0000357c:    20000d07    ...     DCD    536874247
    __arm_cp.0_23
        0x00003580:    20000f7a    z..     DCD    536874874
    __arm_cp.0_24
        0x00003584:    20000f20     ..     DCD    536874784
        0x00003588:    20000d4b    K..     DCD    536874315
        0x0000358c:    20000d4a    J..     DCD    536874314
    __arm_cp.0_27
        0x00003590:    20000238    8..     DCD    536871480
        0x00003594:    20000d54    T..     DCD    536874324
    __arm_cp.0_29
        0x00003598:    20000d28    (..     DCD    536874280
        0x0000359c:    20000d27    '..     DCD    536874279
    $t
        0x000035a0:    e03d        =.      B        0x361e ; 0x361e
        0x000035a2:    49fe        .I      LDR      r1,[pc,#1016] ; [0x399c] = 0x20000f24
        0x000035a4:    2001        .       MOVS     r0,#1
        0x000035a6:    7008        .p      STRB     r0,[r1,#0]
        0x000035a8:    49fd        .I      LDR      r1,[pc,#1012] ; [0x39a0] = 0x20000d07
        0x000035aa:    200e        .       MOVS     r0,#0xe
        0x000035ac:    7008        .p      STRB     r0,[r1,#0]
        0x000035ae:    49fd        .I      LDR      r1,[pc,#1012] ; [0x39a4] = 0x20000d27
        0x000035b0:    2000        .       MOVS     r0,#0
        0x000035b2:    7008        .p      STRB     r0,[r1,#0]
        0x000035b4:    e033        3.      B        0x361e ; 0x361e
        0x000035b6:    49f9        .I      LDR      r1,[pc,#996] ; [0x399c] = 0x20000f24
        0x000035b8:    2000        .       MOVS     r0,#0
        0x000035ba:    7008        .p      STRB     r0,[r1,#0]
        0x000035bc:    4af8        .J      LDR      r2,[pc,#992] ; [0x39a0] = 0x20000d07
        0x000035be:    210e        .!      MOVS     r1,#0xe
        0x000035c0:    7011        .p      STRB     r1,[r2,#0]
        0x000035c2:    49f8        .I      LDR      r1,[pc,#992] ; [0x39a4] = 0x20000d27
        0x000035c4:    7008        .p      STRB     r0,[r1,#0]
        0x000035c6:    e02a        *.      B        0x361e ; 0x361e
        0x000035c8:    49f5        .I      LDR      r1,[pc,#980] ; [0x39a0] = 0x20000d07
        0x000035ca:    2011        .       MOVS     r0,#0x11
        0x000035cc:    7008        .p      STRB     r0,[r1,#0]
        0x000035ce:    49f5        .I      LDR      r1,[pc,#980] ; [0x39a4] = 0x20000d27
        0x000035d0:    2000        .       MOVS     r0,#0
        0x000035d2:    7008        .p      STRB     r0,[r1,#0]
        0x000035d4:    e023        #.      B        0x361e ; 0x361e
        0x000035d6:    49f2        .I      LDR      r1,[pc,#968] ; [0x39a0] = 0x20000d07
        0x000035d8:    2014        .       MOVS     r0,#0x14
        0x000035da:    7008        .p      STRB     r0,[r1,#0]
        0x000035dc:    49f1        .I      LDR      r1,[pc,#964] ; [0x39a4] = 0x20000d27
        0x000035de:    2000        .       MOVS     r0,#0
        0x000035e0:    7008        .p      STRB     r0,[r1,#0]
        0x000035e2:    e01c        ..      B        0x361e ; 0x361e
        0x000035e4:    49ed        .I      LDR      r1,[pc,#948] ; [0x399c] = 0x20000f24
        0x000035e6:    2001        .       MOVS     r0,#1
        0x000035e8:    7008        .p      STRB     r0,[r1,#0]
        0x000035ea:    49ed        .I      LDR      r1,[pc,#948] ; [0x39a0] = 0x20000d07
        0x000035ec:    2017        .       MOVS     r0,#0x17
        0x000035ee:    7008        .p      STRB     r0,[r1,#0]
        0x000035f0:    49ec        .I      LDR      r1,[pc,#944] ; [0x39a4] = 0x20000d27
        0x000035f2:    2000        .       MOVS     r0,#0
        0x000035f4:    7008        .p      STRB     r0,[r1,#0]
        0x000035f6:    e012        ..      B        0x361e ; 0x361e
        0x000035f8:    49e8        .I      LDR      r1,[pc,#928] ; [0x399c] = 0x20000f24
        0x000035fa:    2000        .       MOVS     r0,#0
        0x000035fc:    7008        .p      STRB     r0,[r1,#0]
        0x000035fe:    4ae8        .J      LDR      r2,[pc,#928] ; [0x39a0] = 0x20000d07
        0x00003600:    211d        .!      MOVS     r1,#0x1d
        0x00003602:    7011        .p      STRB     r1,[r2,#0]
        0x00003604:    49e7        .I      LDR      r1,[pc,#924] ; [0x39a4] = 0x20000d27
        0x00003606:    7008        .p      STRB     r0,[r1,#0]
        0x00003608:    e009        ..      B        0x361e ; 0x361e
        0x0000360a:    49e4        .I      LDR      r1,[pc,#912] ; [0x399c] = 0x20000f24
        0x0000360c:    2000        .       MOVS     r0,#0
        0x0000360e:    7008        .p      STRB     r0,[r1,#0]
        0x00003610:    4ae3        .J      LDR      r2,[pc,#908] ; [0x39a0] = 0x20000d07
        0x00003612:    2123        #!      MOVS     r1,#0x23
        0x00003614:    7011        .p      STRB     r1,[r2,#0]
        0x00003616:    49e3        .I      LDR      r1,[pc,#908] ; [0x39a4] = 0x20000d27
        0x00003618:    7008        .p      STRB     r0,[r1,#0]
        0x0000361a:    e000        ..      B        0x361e ; 0x361e
        0x0000361c:    e7ff        ..      B        0x361e ; 0x361e
        0x0000361e:    e7ff        ..      B        0x3620 ; 0x3620
        0x00003620:    e20a        ..      B        0x3a38 ; 0x3a38
        0x00003622:    48e6        .H      LDR      r0,[pc,#920] ; [0x39bc] = 0x20000034
        0x00003624:    7800        .x      LDRB     r0,[r0,#0]
        0x00003626:    49e6        .I      LDR      r1,[pc,#920] ; [0x39c0] = 0x20000d54
        0x00003628:    7809        .x      LDRB     r1,[r1,#0]
        0x0000362a:    4288        .B      CMP      r0,r1
        0x0000362c:    d103        ..      BNE      0x3636 ; 0x3636
        0x0000362e:    e7ff        ..      B        0x3630 ; 0x3630
        0x00003630:    f000fa90    ....    BL       MeterSuccess ; 0x3b54
        0x00003634:    e002        ..      B        0x363c ; 0x363c
        0x00003636:    f000faa1    ....    BL       MeterTimeoutProcess ; 0x3b7c
        0x0000363a:    e7ff        ..      B        0x363c ; 0x363c
        0x0000363c:    e1fc        ..      B        0x3a38 ; 0x3a38
        0x0000363e:    2001        .       MOVS     r0,#1
        0x00003640:    9005        ..      STR      r0,[sp,#0x14]
        0x00003642:    f7fffaaf    ....    BL       MODBUS_SendCmd ; 0x2ba4
        0x00003646:    9805        ..      LDR      r0,[sp,#0x14]
        0x00003648:    49fd        .I      LDR      r1,[pc,#1012] ; [0x3a40] = 0x20000d07
        0x0000364a:    7008        .p      STRB     r0,[r1,#0]
        0x0000364c:    49fb        .I      LDR      r1,[pc,#1004] ; [0x3a3c] = 0x20000f78
        0x0000364e:    2000        .       MOVS     r0,#0
        0x00003650:    7008        .p      STRB     r0,[r1,#0]
        0x00003652:    e1f1        ..      B        0x3a38 ; 0x3a38
        0x00003654:    2005        .       MOVS     r0,#5
        0x00003656:    f7fffaa5    ....    BL       MODBUS_SendCmd ; 0x2ba4
        0x0000365a:    49f9        .I      LDR      r1,[pc,#996] ; [0x3a40] = 0x20000d07
        0x0000365c:    2001        .       MOVS     r0,#1
        0x0000365e:    7008        .p      STRB     r0,[r1,#0]
        0x00003660:    49fc        .I      LDR      r1,[pc,#1008] ; [0x3a54] = 0x20000f78
        0x00003662:    2000        .       MOVS     r0,#0
        0x00003664:    7008        .p      STRB     r0,[r1,#0]
        0x00003666:    e1e7        ..      B        0x3a38 ; 0x3a38
        0x00003668:    48fb        .H      LDR      r0,[pc,#1004] ; [0x3a58] = 0x20000d4a
        0x0000366a:    7800        .x      LDRB     r0,[r0,#0]
        0x0000366c:    49fb        .I      LDR      r1,[pc,#1004] ; [0x3a5c] = 0x20000f27
        0x0000366e:    1840        @.      ADDS     r0,r0,r1
        0x00003670:    1e40        @.      SUBS     r0,r0,#1
        0x00003672:    7800        .x      LDRB     r0,[r0,#0]
        0x00003674:    2803        .(      CMP      r0,#3
        0x00003676:    d10a        ..      BNE      0x368e ; 0x368e
        0x00003678:    e7ff        ..      B        0x367a ; 0x367a
        0x0000367a:    200c        .       MOVS     r0,#0xc
        0x0000367c:    f7fffa92    ....    BL       MODBUS_SendCmd ; 0x2ba4
        0x00003680:    49ef        .I      LDR      r1,[pc,#956] ; [0x3a40] = 0x20000d07
        0x00003682:    2001        .       MOVS     r0,#1
        0x00003684:    7008        .p      STRB     r0,[r1,#0]
        0x00003686:    49f3        .I      LDR      r1,[pc,#972] ; [0x3a54] = 0x20000f78
        0x00003688:    2000        .       MOVS     r0,#0
        0x0000368a:    7008        .p      STRB     r0,[r1,#0]
        0x0000368c:    e007        ..      B        0x369e ; 0x369e
        0x0000368e:    49ec        .I      LDR      r1,[pc,#944] ; [0x3a40] = 0x20000d07
        0x00003690:    2000        .       MOVS     r0,#0
        0x00003692:    7008        .p      STRB     r0,[r1,#0]
        0x00003694:    49f2        .I      LDR      r1,[pc,#968] ; [0x3a60] = 0x20000d4b
        0x00003696:    7808        .x      LDRB     r0,[r1,#0]
        0x00003698:    1c40        @.      ADDS     r0,r0,#1
        0x0000369a:    7008        .p      STRB     r0,[r1,#0]
        0x0000369c:    e1cc        ..      B        0x3a38 ; 0x3a38
        0x0000369e:    e1cb        ..      B        0x3a38 ; 0x3a38
        0x000036a0:    200d        .       MOVS     r0,#0xd
        0x000036a2:    f7fffa7f    ....    BL       MODBUS_SendCmd ; 0x2ba4
        0x000036a6:    49e6        .I      LDR      r1,[pc,#920] ; [0x3a40] = 0x20000d07
        0x000036a8:    2001        .       MOVS     r0,#1
        0x000036aa:    7008        .p      STRB     r0,[r1,#0]
        0x000036ac:    49e9        .I      LDR      r1,[pc,#932] ; [0x3a54] = 0x20000f78
        0x000036ae:    2000        .       MOVS     r0,#0
        0x000036b0:    7008        .p      STRB     r0,[r1,#0]
        0x000036b2:    e1c1        ..      B        0x3a38 ; 0x3a38
        0x000036b4:    200e        .       MOVS     r0,#0xe
        0x000036b6:    f7fffa75    ..u.    BL       MODBUS_SendCmd ; 0x2ba4
        0x000036ba:    49e1        .I      LDR      r1,[pc,#900] ; [0x3a40] = 0x20000d07
        0x000036bc:    2001        .       MOVS     r0,#1
        0x000036be:    7008        .p      STRB     r0,[r1,#0]
        0x000036c0:    49e4        .I      LDR      r1,[pc,#912] ; [0x3a54] = 0x20000f78
        0x000036c2:    2000        .       MOVS     r0,#0
        0x000036c4:    7008        .p      STRB     r0,[r1,#0]
        0x000036c6:    e1b7        ..      B        0x3a38 ; 0x3a38
        0x000036c8:    200f        .       MOVS     r0,#0xf
        0x000036ca:    f7fffa6b    ..k.    BL       MODBUS_SendCmd ; 0x2ba4
        0x000036ce:    49dc        .I      LDR      r1,[pc,#880] ; [0x3a40] = 0x20000d07
        0x000036d0:    2001        .       MOVS     r0,#1
        0x000036d2:    7008        .p      STRB     r0,[r1,#0]
        0x000036d4:    49df        .I      LDR      r1,[pc,#892] ; [0x3a54] = 0x20000f78
        0x000036d6:    2000        .       MOVS     r0,#0
        0x000036d8:    7008        .p      STRB     r0,[r1,#0]
        0x000036da:    e1ad        ..      B        0x3a38 ; 0x3a38
        0x000036dc:    2010        .       MOVS     r0,#0x10
        0x000036de:    f7fffa61    ..a.    BL       MODBUS_SendCmd ; 0x2ba4
        0x000036e2:    49d7        .I      LDR      r1,[pc,#860] ; [0x3a40] = 0x20000d07
        0x000036e4:    2001        .       MOVS     r0,#1
        0x000036e6:    7008        .p      STRB     r0,[r1,#0]
        0x000036e8:    49da        .I      LDR      r1,[pc,#872] ; [0x3a54] = 0x20000f78
        0x000036ea:    2000        .       MOVS     r0,#0
        0x000036ec:    7008        .p      STRB     r0,[r1,#0]
        0x000036ee:    e1a3        ..      B        0x3a38 ; 0x3a38
        0x000036f0:    2011        .       MOVS     r0,#0x11
        0x000036f2:    f7fffa57    ..W.    BL       MODBUS_SendCmd ; 0x2ba4
        0x000036f6:    49d2        .I      LDR      r1,[pc,#840] ; [0x3a40] = 0x20000d07
        0x000036f8:    2001        .       MOVS     r0,#1
        0x000036fa:    7008        .p      STRB     r0,[r1,#0]
        0x000036fc:    49d5        .I      LDR      r1,[pc,#852] ; [0x3a54] = 0x20000f78
        0x000036fe:    2000        .       MOVS     r0,#0
        0x00003700:    7008        .p      STRB     r0,[r1,#0]
        0x00003702:    e199        ..      B        0x3a38 ; 0x3a38
        0x00003704:    2012        .       MOVS     r0,#0x12
        0x00003706:    f7fffa4d    ..M.    BL       MODBUS_SendCmd ; 0x2ba4
        0x0000370a:    49cd        .I      LDR      r1,[pc,#820] ; [0x3a40] = 0x20000d07
        0x0000370c:    2001        .       MOVS     r0,#1
        0x0000370e:    7008        .p      STRB     r0,[r1,#0]
        0x00003710:    49d0        .I      LDR      r1,[pc,#832] ; [0x3a54] = 0x20000f78
        0x00003712:    2000        .       MOVS     r0,#0
        0x00003714:    7008        .p      STRB     r0,[r1,#0]
        0x00003716:    e18f        ..      B        0x3a38 ; 0x3a38
        0x00003718:    2013        .       MOVS     r0,#0x13
        0x0000371a:    f7fffa43    ..C.    BL       MODBUS_SendCmd ; 0x2ba4
        0x0000371e:    49c8        .I      LDR      r1,[pc,#800] ; [0x3a40] = 0x20000d07
        0x00003720:    2001        .       MOVS     r0,#1
        0x00003722:    7008        .p      STRB     r0,[r1,#0]
        0x00003724:    49cb        .I      LDR      r1,[pc,#812] ; [0x3a54] = 0x20000f78
        0x00003726:    2000        .       MOVS     r0,#0
        0x00003728:    7008        .p      STRB     r0,[r1,#0]
        0x0000372a:    e185        ..      B        0x3a38 ; 0x3a38
        0x0000372c:    2014        .       MOVS     r0,#0x14
        0x0000372e:    f7fffa39    ..9.    BL       MODBUS_SendCmd ; 0x2ba4
        0x00003732:    49c3        .I      LDR      r1,[pc,#780] ; [0x3a40] = 0x20000d07
        0x00003734:    2001        .       MOVS     r0,#1
        0x00003736:    7008        .p      STRB     r0,[r1,#0]
        0x00003738:    49c6        .I      LDR      r1,[pc,#792] ; [0x3a54] = 0x20000f78
        0x0000373a:    2000        .       MOVS     r0,#0
        0x0000373c:    7008        .p      STRB     r0,[r1,#0]
        0x0000373e:    e17b        {.      B        0x3a38 ; 0x3a38
        0x00003740:    2015        .       MOVS     r0,#0x15
        0x00003742:    f7fffa2f    ../.    BL       MODBUS_SendCmd ; 0x2ba4
        0x00003746:    49be        .I      LDR      r1,[pc,#760] ; [0x3a40] = 0x20000d07
        0x00003748:    2001        .       MOVS     r0,#1
        0x0000374a:    7008        .p      STRB     r0,[r1,#0]
        0x0000374c:    49c1        .I      LDR      r1,[pc,#772] ; [0x3a54] = 0x20000f78
        0x0000374e:    2000        .       MOVS     r0,#0
        0x00003750:    7008        .p      STRB     r0,[r1,#0]
        0x00003752:    e171        q.      B        0x3a38 ; 0x3a38
        0x00003754:    2008        .       MOVS     r0,#8
        0x00003756:    f7fffa25    ..%.    BL       MODBUS_SendCmd ; 0x2ba4
        0x0000375a:    49b9        .I      LDR      r1,[pc,#740] ; [0x3a40] = 0x20000d07
        0x0000375c:    200f        .       MOVS     r0,#0xf
        0x0000375e:    7008        .p      STRB     r0,[r1,#0]
        0x00003760:    49b8        .I      LDR      r1,[pc,#736] ; [0x3a44] = 0x20000014
        0x00003762:    2000        .       MOVS     r0,#0
        0x00003764:    7008        .p      STRB     r0,[r1,#0]
        0x00003766:    e167        g.      B        0x3a38 ; 0x3a38
        0x00003768:    48b6        .H      LDR      r0,[pc,#728] ; [0x3a44] = 0x20000014
        0x0000376a:    7800        .x      LDRB     r0,[r0,#0]
        0x0000376c:    2829        )(      CMP      r0,#0x29
        0x0000376e:    db0b        ..      BLT      0x3788 ; 0x3788
        0x00003770:    e7ff        ..      B        0x3772 ; 0x3772
        0x00003772:    49b4        .I      LDR      r1,[pc,#720] ; [0x3a44] = 0x20000014
        0x00003774:    2000        .       MOVS     r0,#0
        0x00003776:    9004        ..      STR      r0,[sp,#0x10]
        0x00003778:    7008        .p      STRB     r0,[r1,#0]
        0x0000377a:    2002        .       MOVS     r0,#2
        0x0000377c:    f7fffa12    ....    BL       MODBUS_SendCmd ; 0x2ba4
        0x00003780:    9804        ..      LDR      r0,[sp,#0x10]
        0x00003782:    49af        .I      LDR      r1,[pc,#700] ; [0x3a40] = 0x20000d07
        0x00003784:    7008        .p      STRB     r0,[r1,#0]
        0x00003786:    e7ff        ..      B        0x3788 ; 0x3788
        0x00003788:    e156        V.      B        0x3a38 ; 0x3a38
        0x0000378a:    2008        .       MOVS     r0,#8
        0x0000378c:    f7fffa0a    ....    BL       MODBUS_SendCmd ; 0x2ba4
        0x00003790:    49f9        .I      LDR      r1,[pc,#996] ; [0x3b78] = 0x20000d07
        0x00003792:    2012        .       MOVS     r0,#0x12
        0x00003794:    7008        .p      STRB     r0,[r1,#0]
        0x00003796:    49ab        .I      LDR      r1,[pc,#684] ; [0x3a44] = 0x20000014
        0x00003798:    2000        .       MOVS     r0,#0
        0x0000379a:    7008        .p      STRB     r0,[r1,#0]
        0x0000379c:    e14c        L.      B        0x3a38 ; 0x3a38
        0x0000379e:    48a9        .H      LDR      r0,[pc,#676] ; [0x3a44] = 0x20000014
        0x000037a0:    7800        .x      LDRB     r0,[r0,#0]
        0x000037a2:    281f        .(      CMP      r0,#0x1f
        0x000037a4:    db0b        ..      BLT      0x37be ; 0x37be
        0x000037a6:    e7ff        ..      B        0x37a8 ; 0x37a8
        0x000037a8:    49a6        .I      LDR      r1,[pc,#664] ; [0x3a44] = 0x20000014
        0x000037aa:    2000        .       MOVS     r0,#0
        0x000037ac:    9003        ..      STR      r0,[sp,#0xc]
        0x000037ae:    7008        .p      STRB     r0,[r1,#0]
        0x000037b0:    200b        .       MOVS     r0,#0xb
        0x000037b2:    f7fff9f7    ....    BL       MODBUS_SendCmd ; 0x2ba4
        0x000037b6:    9803        ..      LDR      r0,[sp,#0xc]
        0x000037b8:    49ef        .I      LDR      r1,[pc,#956] ; [0x3b78] = 0x20000d07
        0x000037ba:    7008        .p      STRB     r0,[r1,#0]
        0x000037bc:    e7ff        ..      B        0x37be ; 0x37be
        0x000037be:    e13b        ;.      B        0x3a38 ; 0x3a38
        0x000037c0:    2008        .       MOVS     r0,#8
        0x000037c2:    f7fff9ef    ....    BL       MODBUS_SendCmd ; 0x2ba4
        0x000037c6:    49ec        .I      LDR      r1,[pc,#944] ; [0x3b78] = 0x20000d07
        0x000037c8:    2015        .       MOVS     r0,#0x15
        0x000037ca:    7008        .p      STRB     r0,[r1,#0]
        0x000037cc:    499d        .I      LDR      r1,[pc,#628] ; [0x3a44] = 0x20000014
        0x000037ce:    2000        .       MOVS     r0,#0
        0x000037d0:    7008        .p      STRB     r0,[r1,#0]
        0x000037d2:    e131        1.      B        0x3a38 ; 0x3a38
        0x000037d4:    489b        .H      LDR      r0,[pc,#620] ; [0x3a44] = 0x20000014
        0x000037d6:    7800        .x      LDRB     r0,[r0,#0]
        0x000037d8:    281f        .(      CMP      r0,#0x1f
        0x000037da:    db0b        ..      BLT      0x37f4 ; 0x37f4
        0x000037dc:    e7ff        ..      B        0x37de ; 0x37de
        0x000037de:    4999        .I      LDR      r1,[pc,#612] ; [0x3a44] = 0x20000014
        0x000037e0:    2000        .       MOVS     r0,#0
        0x000037e2:    9002        ..      STR      r0,[sp,#8]
        0x000037e4:    7008        .p      STRB     r0,[r1,#0]
        0x000037e6:    200a        .       MOVS     r0,#0xa
        0x000037e8:    f7fff9dc    ....    BL       MODBUS_SendCmd ; 0x2ba4
        0x000037ec:    9802        ..      LDR      r0,[sp,#8]
        0x000037ee:    49f7        .I      LDR      r1,[pc,#988] ; [0x3bcc] = 0x20000d07
        0x000037f0:    7008        .p      STRB     r0,[r1,#0]
        0x000037f2:    e7ff        ..      B        0x37f4 ; 0x37f4
        0x000037f4:    e120         .      B        0x3a38 ; 0x3a38
        0x000037f6:    4993        .I      LDR      r1,[pc,#588] ; [0x3a44] = 0x20000014
        0x000037f8:    2000        .       MOVS     r0,#0
        0x000037fa:    7008        .p      STRB     r0,[r1,#0]
        0x000037fc:    4994        .I      LDR      r1,[pc,#592] ; [0x3a50] = 0x20000f6c
        0x000037fe:    8008        ..      STRH     r0,[r1,#0]
        0x00003800:    2008        .       MOVS     r0,#8
        0x00003802:    f7fff9cf    ....    BL       MODBUS_SendCmd ; 0x2ba4
        0x00003806:    49f1        .I      LDR      r1,[pc,#964] ; [0x3bcc] = 0x20000d07
        0x00003808:    2018        .       MOVS     r0,#0x18
        0x0000380a:    7008        .p      STRB     r0,[r1,#0]
        0x0000380c:    e114        ..      B        0x3a38 ; 0x3a38
        0x0000380e:    488d        .H      LDR      r0,[pc,#564] ; [0x3a44] = 0x20000014
        0x00003810:    7800        .x      LDRB     r0,[r0,#0]
        0x00003812:    2833        3(      CMP      r0,#0x33
        0x00003814:    db0e        ..      BLT      0x3834 ; 0x3834
        0x00003816:    e7ff        ..      B        0x3818 ; 0x3818
        0x00003818:    498a        .I      LDR      r1,[pc,#552] ; [0x3a44] = 0x20000014
        0x0000381a:    2000        .       MOVS     r0,#0
        0x0000381c:    7008        .p      STRB     r0,[r1,#0]
        0x0000381e:    498a        .I      LDR      r1,[pc,#552] ; [0x3a48] = 0x20000d49
        0x00003820:    7008        .p      STRB     r0,[r1,#0]
        0x00003822:    4aea        .J      LDR      r2,[pc,#936] ; [0x3bcc] = 0x20000d07
        0x00003824:    2119        .!      MOVS     r1,#0x19
        0x00003826:    7011        .p      STRB     r1,[r2,#0]
        0x00003828:    4989        .I      LDR      r1,[pc,#548] ; [0x3a50] = 0x20000f6c
        0x0000382a:    8008        ..      STRH     r0,[r1,#0]
        0x0000382c:    2017        .       MOVS     r0,#0x17
        0x0000382e:    f7fff9b9    ....    BL       MODBUS_SendCmd ; 0x2ba4
        0x00003832:    e7ff        ..      B        0x3834 ; 0x3834
        0x00003834:    e100        ..      B        0x3a38 ; 0x3a38
        0x00003836:    4883        .H      LDR      r0,[pc,#524] ; [0x3a44] = 0x20000014
        0x00003838:    7800        .x      LDRB     r0,[r0,#0]
        0x0000383a:    2833        3(      CMP      r0,#0x33
        0x0000383c:    db0c        ..      BLT      0x3858 ; 0x3858
        0x0000383e:    e7ff        ..      B        0x3840 ; 0x3840
        0x00003840:    4980        .I      LDR      r1,[pc,#512] ; [0x3a44] = 0x20000014
        0x00003842:    2000        .       MOVS     r0,#0
        0x00003844:    7008        .p      STRB     r0,[r1,#0]
        0x00003846:    4ae1        .J      LDR      r2,[pc,#900] ; [0x3bcc] = 0x20000d07
        0x00003848:    211a        .!      MOVS     r1,#0x1a
        0x0000384a:    7011        .p      STRB     r1,[r2,#0]
        0x0000384c:    4980        .I      LDR      r1,[pc,#512] ; [0x3a50] = 0x20000f6c
        0x0000384e:    8008        ..      STRH     r0,[r1,#0]
        0x00003850:    2008        .       MOVS     r0,#8
        0x00003852:    f7fff9a7    ....    BL       MODBUS_SendCmd ; 0x2ba4
        0x00003856:    e7ff        ..      B        0x3858 ; 0x3858
        0x00003858:    e0ee        ..      B        0x3a38 ; 0x3a38
        0x0000385a:    487a        zH      LDR      r0,[pc,#488] ; [0x3a44] = 0x20000014
        0x0000385c:    7800        .x      LDRB     r0,[r0,#0]
        0x0000385e:    2833        3(      CMP      r0,#0x33
        0x00003860:    db0c        ..      BLT      0x387c ; 0x387c
        0x00003862:    e7ff        ..      B        0x3864 ; 0x3864
        0x00003864:    4977        wI      LDR      r1,[pc,#476] ; [0x3a44] = 0x20000014
        0x00003866:    2000        .       MOVS     r0,#0
        0x00003868:    7008        .p      STRB     r0,[r1,#0]
        0x0000386a:    4ad8        .J      LDR      r2,[pc,#864] ; [0x3bcc] = 0x20000d07
        0x0000386c:    211b        .!      MOVS     r1,#0x1b
        0x0000386e:    7011        .p      STRB     r1,[r2,#0]
        0x00003870:    4977        wI      LDR      r1,[pc,#476] ; [0x3a50] = 0x20000f6c
        0x00003872:    8008        ..      STRH     r0,[r1,#0]
        0x00003874:    200b        .       MOVS     r0,#0xb
        0x00003876:    f7fff995    ....    BL       MODBUS_SendCmd ; 0x2ba4
        0x0000387a:    e7ff        ..      B        0x387c ; 0x387c
        0x0000387c:    e0dc        ..      B        0x3a38 ; 0x3a38
        0x0000387e:    4871        qH      LDR      r0,[pc,#452] ; [0x3a44] = 0x20000014
        0x00003880:    7800        .x      LDRB     r0,[r0,#0]
        0x00003882:    2833        3(      CMP      r0,#0x33
        0x00003884:    db0c        ..      BLT      0x38a0 ; 0x38a0
        0x00003886:    e7ff        ..      B        0x3888 ; 0x3888
        0x00003888:    496e        nI      LDR      r1,[pc,#440] ; [0x3a44] = 0x20000014
        0x0000388a:    2000        .       MOVS     r0,#0
        0x0000388c:    7008        .p      STRB     r0,[r1,#0]
        0x0000388e:    4acf        .J      LDR      r2,[pc,#828] ; [0x3bcc] = 0x20000d07
        0x00003890:    211c        .!      MOVS     r1,#0x1c
        0x00003892:    7011        .p      STRB     r1,[r2,#0]
        0x00003894:    496e        nI      LDR      r1,[pc,#440] ; [0x3a50] = 0x20000f6c
        0x00003896:    8008        ..      STRH     r0,[r1,#0]
        0x00003898:    2008        .       MOVS     r0,#8
        0x0000389a:    f7fff983    ....    BL       MODBUS_SendCmd ; 0x2ba4
        0x0000389e:    e7ff        ..      B        0x38a0 ; 0x38a0
        0x000038a0:    e0ca        ..      B        0x3a38 ; 0x3a38
        0x000038a2:    4868        hH      LDR      r0,[pc,#416] ; [0x3a44] = 0x20000014
        0x000038a4:    7800        .x      LDRB     r0,[r0,#0]
        0x000038a6:    2833        3(      CMP      r0,#0x33
        0x000038a8:    db0e        ..      BLT      0x38c8 ; 0x38c8
        0x000038aa:    e7ff        ..      B        0x38ac ; 0x38ac
        0x000038ac:    4965        eI      LDR      r1,[pc,#404] ; [0x3a44] = 0x20000014
        0x000038ae:    2000        .       MOVS     r0,#0
        0x000038b0:    7008        .p      STRB     r0,[r1,#0]
        0x000038b2:    4a66        fJ      LDR      r2,[pc,#408] ; [0x3a4c] = 0x20000f24
        0x000038b4:    2101        .!      MOVS     r1,#1
        0x000038b6:    7011        .p      STRB     r1,[r2,#0]
        0x000038b8:    49c4        .I      LDR      r1,[pc,#784] ; [0x3bcc] = 0x20000d07
        0x000038ba:    7008        .p      STRB     r0,[r1,#0]
        0x000038bc:    4964        dI      LDR      r1,[pc,#400] ; [0x3a50] = 0x20000f6c
        0x000038be:    8008        ..      STRH     r0,[r1,#0]
        0x000038c0:    2002        .       MOVS     r0,#2
        0x000038c2:    f7fff96f    ..o.    BL       MODBUS_SendCmd ; 0x2ba4
        0x000038c6:    e7ff        ..      B        0x38c8 ; 0x38c8
        0x000038c8:    e0b6        ..      B        0x3a38 ; 0x3a38
        0x000038ca:    49c0        .I      LDR      r1,[pc,#768] ; [0x3bcc] = 0x20000d07
        0x000038cc:    201e        .       MOVS     r0,#0x1e
        0x000038ce:    7008        .p      STRB     r0,[r1,#0]
        0x000038d0:    495c        \I      LDR      r1,[pc,#368] ; [0x3a44] = 0x20000014
        0x000038d2:    2000        .       MOVS     r0,#0
        0x000038d4:    7008        .p      STRB     r0,[r1,#0]
        0x000038d6:    495e        ^I      LDR      r1,[pc,#376] ; [0x3a50] = 0x20000f6c
        0x000038d8:    8008        ..      STRH     r0,[r1,#0]
        0x000038da:    2008        .       MOVS     r0,#8
        0x000038dc:    f7fff962    ..b.    BL       MODBUS_SendCmd ; 0x2ba4
        0x000038e0:    e0aa        ..      B        0x3a38 ; 0x3a38
        0x000038e2:    4858        XH      LDR      r0,[pc,#352] ; [0x3a44] = 0x20000014
        0x000038e4:    7800        .x      LDRB     r0,[r0,#0]
        0x000038e6:    2833        3(      CMP      r0,#0x33
        0x000038e8:    db0e        ..      BLT      0x3908 ; 0x3908
        0x000038ea:    e7ff        ..      B        0x38ec ; 0x38ec
        0x000038ec:    4955        UI      LDR      r1,[pc,#340] ; [0x3a44] = 0x20000014
        0x000038ee:    2000        .       MOVS     r0,#0
        0x000038f0:    7008        .p      STRB     r0,[r1,#0]
        0x000038f2:    4955        UI      LDR      r1,[pc,#340] ; [0x3a48] = 0x20000d49
        0x000038f4:    7008        .p      STRB     r0,[r1,#0]
        0x000038f6:    4956        VI      LDR      r1,[pc,#344] ; [0x3a50] = 0x20000f6c
        0x000038f8:    8008        ..      STRH     r0,[r1,#0]
        0x000038fa:    2017        .       MOVS     r0,#0x17
        0x000038fc:    f7fff952    ..R.    BL       MODBUS_SendCmd ; 0x2ba4
        0x00003900:    49b2        .I      LDR      r1,[pc,#712] ; [0x3bcc] = 0x20000d07
        0x00003902:    2021        !       MOVS     r0,#0x21
        0x00003904:    7008        .p      STRB     r0,[r1,#0]
        0x00003906:    e7ff        ..      B        0x3908 ; 0x3908
        0x00003908:    e096        ..      B        0x3a38 ; 0x3a38
        0x0000390a:    484e        NH      LDR      r0,[pc,#312] ; [0x3a44] = 0x20000014
        0x0000390c:    7800        .x      LDRB     r0,[r0,#0]
        0x0000390e:    2833        3(      CMP      r0,#0x33
        0x00003910:    db0c        ..      BLT      0x392c ; 0x392c
        0x00003912:    e7ff        ..      B        0x3914 ; 0x3914
        0x00003914:    494b        KI      LDR      r1,[pc,#300] ; [0x3a44] = 0x20000014
        0x00003916:    2000        .       MOVS     r0,#0
        0x00003918:    7008        .p      STRB     r0,[r1,#0]
        0x0000391a:    494d        MI      LDR      r1,[pc,#308] ; [0x3a50] = 0x20000f6c
        0x0000391c:    8008        ..      STRH     r0,[r1,#0]
        0x0000391e:    2008        .       MOVS     r0,#8
        0x00003920:    f7fff940    ..@.    BL       MODBUS_SendCmd ; 0x2ba4
        0x00003924:    49a9        .I      LDR      r1,[pc,#676] ; [0x3bcc] = 0x20000d07
        0x00003926:    2020                MOVS     r0,#0x20
        0x00003928:    7008        .p      STRB     r0,[r1,#0]
        0x0000392a:    e7ff        ..      B        0x392c ; 0x392c
        0x0000392c:    e084        ..      B        0x3a38 ; 0x3a38
        0x0000392e:    4845        EH      LDR      r0,[pc,#276] ; [0x3a44] = 0x20000014
        0x00003930:    7800        .x      LDRB     r0,[r0,#0]
        0x00003932:    2833        3(      CMP      r0,#0x33
        0x00003934:    db0c        ..      BLT      0x3950 ; 0x3950
        0x00003936:    e7ff        ..      B        0x3938 ; 0x3938
        0x00003938:    49a4        .I      LDR      r1,[pc,#656] ; [0x3bcc] = 0x20000d07
        0x0000393a:    2021        !       MOVS     r0,#0x21
        0x0000393c:    7008        .p      STRB     r0,[r1,#0]
        0x0000393e:    4941        AI      LDR      r1,[pc,#260] ; [0x3a44] = 0x20000014
        0x00003940:    2000        .       MOVS     r0,#0
        0x00003942:    7008        .p      STRB     r0,[r1,#0]
        0x00003944:    4942        BI      LDR      r1,[pc,#264] ; [0x3a50] = 0x20000f6c
        0x00003946:    8008        ..      STRH     r0,[r1,#0]
        0x00003948:    200b        .       MOVS     r0,#0xb
        0x0000394a:    f7fff92b    ..+.    BL       MODBUS_SendCmd ; 0x2ba4
        0x0000394e:    e7ff        ..      B        0x3950 ; 0x3950
        0x00003950:    e072        r.      B        0x3a38 ; 0x3a38
        0x00003952:    483c        <H      LDR      r0,[pc,#240] ; [0x3a44] = 0x20000014
        0x00003954:    7800        .x      LDRB     r0,[r0,#0]
        0x00003956:    2833        3(      CMP      r0,#0x33
        0x00003958:    db0c        ..      BLT      0x3974 ; 0x3974
        0x0000395a:    e7ff        ..      B        0x395c ; 0x395c
        0x0000395c:    4939        9I      LDR      r1,[pc,#228] ; [0x3a44] = 0x20000014
        0x0000395e:    2000        .       MOVS     r0,#0
        0x00003960:    7008        .p      STRB     r0,[r1,#0]
        0x00003962:    493b        ;I      LDR      r1,[pc,#236] ; [0x3a50] = 0x20000f6c
        0x00003964:    8008        ..      STRH     r0,[r1,#0]
        0x00003966:    2008        .       MOVS     r0,#8
        0x00003968:    f7fff91c    ....    BL       MODBUS_SendCmd ; 0x2ba4
        0x0000396c:    4997        .I      LDR      r1,[pc,#604] ; [0x3bcc] = 0x20000d07
        0x0000396e:    2022        "       MOVS     r0,#0x22
        0x00003970:    7008        .p      STRB     r0,[r1,#0]
        0x00003972:    e7ff        ..      B        0x3974 ; 0x3974
        0x00003974:    e060        `.      B        0x3a38 ; 0x3a38
        0x00003976:    4833        3H      LDR      r0,[pc,#204] ; [0x3a44] = 0x20000014
        0x00003978:    7800        .x      LDRB     r0,[r0,#0]
        0x0000397a:    2833        3(      CMP      r0,#0x33
        0x0000397c:    db0d        ..      BLT      0x399a ; 0x399a
        0x0000397e:    e7ff        ..      B        0x3980 ; 0x3980
        0x00003980:    4992        .I      LDR      r1,[pc,#584] ; [0x3bcc] = 0x20000d07
        0x00003982:    2000        .       MOVS     r0,#0
        0x00003984:    7008        .p      STRB     r0,[r1,#0]
        0x00003986:    492f        /I      LDR      r1,[pc,#188] ; [0x3a44] = 0x20000014
        0x00003988:    7008        .p      STRB     r0,[r1,#0]
        0x0000398a:    4930        0I      LDR      r1,[pc,#192] ; [0x3a4c] = 0x20000f24
        0x0000398c:    7008        .p      STRB     r0,[r1,#0]
        0x0000398e:    4930        0I      LDR      r1,[pc,#192] ; [0x3a50] = 0x20000f6c
        0x00003990:    8008        ..      STRH     r0,[r1,#0]
        0x00003992:    2002        .       MOVS     r0,#2
        0x00003994:    f7fff906    ....    BL       MODBUS_SendCmd ; 0x2ba4
        0x00003998:    e7ff        ..      B        0x399a ; 0x399a
        0x0000399a:    e04d        M.      B        0x3a38 ; 0x3a38
    $d
        0x0000399c:    20000f24    $..     DCD    536874788
        0x000039a0:    20000d07    ...     DCD    536874247
    __arm_cp.0_33
        0x000039a4:    20000d27    '..     DCD    536874279
    $t
        0x000039a8:    2008        .       MOVS     r0,#8
        0x000039aa:    f7fff8fb    ....    BL       MODBUS_SendCmd ; 0x2ba4
        0x000039ae:    4987        .I      LDR      r1,[pc,#540] ; [0x3bcc] = 0x20000d07
        0x000039b0:    2024        $       MOVS     r0,#0x24
        0x000039b2:    7008        .p      STRB     r0,[r1,#0]
        0x000039b4:    4923        #I      LDR      r1,[pc,#140] ; [0x3a44] = 0x20000014
        0x000039b6:    2000        .       MOVS     r0,#0
        0x000039b8:    7008        .p      STRB     r0,[r1,#0]
        0x000039ba:    e03d        =.      B        0x3a38 ; 0x3a38
    $d
    __arm_cp.0_34
        0x000039bc:    20000034    4..     DCD    536870964
    __arm_cp.0_35
        0x000039c0:    20000d54    T..     DCD    536874324
    $t
        0x000039c4:    481f        .H      LDR      r0,[pc,#124] ; [0x3a44] = 0x20000014
        0x000039c6:    7800        .x      LDRB     r0,[r0,#0]
        0x000039c8:    2833        3(      CMP      r0,#0x33
        0x000039ca:    db0c        ..      BLT      0x39e6 ; 0x39e6
        0x000039cc:    e7ff        ..      B        0x39ce ; 0x39ce
        0x000039ce:    491d        .I      LDR      r1,[pc,#116] ; [0x3a44] = 0x20000014
        0x000039d0:    2000        .       MOVS     r0,#0
        0x000039d2:    7008        .p      STRB     r0,[r1,#0]
        0x000039d4:    491d        .I      LDR      r1,[pc,#116] ; [0x3a4c] = 0x20000f24
        0x000039d6:    7008        .p      STRB     r0,[r1,#0]
        0x000039d8:    2002        .       MOVS     r0,#2
        0x000039da:    f7fff8e3    ....    BL       MODBUS_SendCmd ; 0x2ba4
        0x000039de:    497b        {I      LDR      r1,[pc,#492] ; [0x3bcc] = 0x20000d07
        0x000039e0:    2025        %       MOVS     r0,#0x25
        0x000039e2:    7008        .p      STRB     r0,[r1,#0]
        0x000039e4:    e7ff        ..      B        0x39e6 ; 0x39e6
        0x000039e6:    e027        '.      B        0x3a38 ; 0x3a38
        0x000039e8:    4816        .H      LDR      r0,[pc,#88] ; [0x3a44] = 0x20000014
        0x000039ea:    7800        .x      LDRB     r0,[r0,#0]
        0x000039ec:    2833        3(      CMP      r0,#0x33
        0x000039ee:    db0a        ..      BLT      0x3a06 ; 0x3a06
        0x000039f0:    e7ff        ..      B        0x39f2 ; 0x39f2
        0x000039f2:    4914        .I      LDR      r1,[pc,#80] ; [0x3a44] = 0x20000014
        0x000039f4:    2000        .       MOVS     r0,#0
        0x000039f6:    7008        .p      STRB     r0,[r1,#0]
        0x000039f8:    2008        .       MOVS     r0,#8
        0x000039fa:    f7fff8d3    ....    BL       MODBUS_SendCmd ; 0x2ba4
        0x000039fe:    4973        sI      LDR      r1,[pc,#460] ; [0x3bcc] = 0x20000d07
        0x00003a00:    2026        &       MOVS     r0,#0x26
        0x00003a02:    7008        .p      STRB     r0,[r1,#0]
        0x00003a04:    e7ff        ..      B        0x3a06 ; 0x3a06
        0x00003a06:    e017        ..      B        0x3a38 ; 0x3a38
        0x00003a08:    480e        .H      LDR      r0,[pc,#56] ; [0x3a44] = 0x20000014
        0x00003a0a:    7800        .x      LDRB     r0,[r0,#0]
        0x00003a0c:    2833        3(      CMP      r0,#0x33
        0x00003a0e:    db0e        ..      BLT      0x3a2e ; 0x3a2e
        0x00003a10:    e7ff        ..      B        0x3a12 ; 0x3a12
        0x00003a12:    490c        .I      LDR      r1,[pc,#48] ; [0x3a44] = 0x20000014
        0x00003a14:    2000        .       MOVS     r0,#0
        0x00003a16:    9001        ..      STR      r0,[sp,#4]
        0x00003a18:    7008        .p      STRB     r0,[r1,#0]
        0x00003a1a:    490b        .I      LDR      r1,[pc,#44] ; [0x3a48] = 0x20000d49
        0x00003a1c:    2001        .       MOVS     r0,#1
        0x00003a1e:    7008        .p      STRB     r0,[r1,#0]
        0x00003a20:    2017        .       MOVS     r0,#0x17
        0x00003a22:    f7fff8bf    ....    BL       MODBUS_SendCmd ; 0x2ba4
        0x00003a26:    9801        ..      LDR      r0,[sp,#4]
        0x00003a28:    4968        hI      LDR      r1,[pc,#416] ; [0x3bcc] = 0x20000d07
        0x00003a2a:    7008        .p      STRB     r0,[r1,#0]
        0x00003a2c:    e7ff        ..      B        0x3a2e ; 0x3a2e
        0x00003a2e:    e003        ..      B        0x3a38 ; 0x3a38
        0x00003a30:    4966        fI      LDR      r1,[pc,#408] ; [0x3bcc] = 0x20000d07
        0x00003a32:    2000        .       MOVS     r0,#0
        0x00003a34:    7008        .p      STRB     r0,[r1,#0]
        0x00003a36:    e7ff        ..      B        0x3a38 ; 0x3a38
        0x00003a38:    b008        ..      ADD      sp,sp,#0x20
        0x00003a3a:    bd80        ..      POP      {r7,pc}
    $d
        0x00003a3c:    20000f78    x..     DCD    536874872
    __arm_cp.0_2
        0x00003a40:    20000d07    ...     DCD    536874247
    __arm_cp.0_3
        0x00003a44:    20000014    ...     DCD    536870932
    __arm_cp.0_4
        0x00003a48:    20000d49    I..     DCD    536874313
    __arm_cp.0_5
        0x00003a4c:    20000f24    $..     DCD    536874788
    __arm_cp.0_6
        0x00003a50:    20000f6c    l..     DCD    536874860
    __arm_cp.0_7
        0x00003a54:    20000f78    x..     DCD    536874872
    __arm_cp.0_8
        0x00003a58:    20000d4a    J..     DCD    536874314
    __arm_cp.0_9
        0x00003a5c:    20000f27    '..     DCD    536874791
    __arm_cp.0_10
        0x00003a60:    20000d4b    K..     DCD    536874315
    $t
    MeterProcess
        0x00003a64:    b580        ..      PUSH     {r7,lr}
        0x00003a66:    b082        ..      SUB      sp,sp,#8
        0x00003a68:    482f        /H      LDR      r0,[pc,#188] ; [0x3b28] = 0x20000ffb
        0x00003a6a:    7800        .x      LDRB     r0,[r0,#0]
        0x00003a6c:    07c0        ..      LSLS     r0,r0,#31
        0x00003a6e:    2800        .(      CMP      r0,#0
        0x00003a70:    d058        X.      BEQ      0x3b24 ; MeterProcess + 192
        0x00003a72:    e7ff        ..      B        0x3a74 ; MeterProcess + 16
        0x00003a74:    492c        ,I      LDR      r1,[pc,#176] ; [0x3b28] = 0x20000ffb
        0x00003a76:    2000        .       MOVS     r0,#0
        0x00003a78:    7008        .p      STRB     r0,[r1,#0]
        0x00003a7a:    482c        ,H      LDR      r0,[pc,#176] ; [0x3b2c] = 0x20000237
        0x00003a7c:    9000        ..      STR      r0,[sp,#0]
        0x00003a7e:    7800        .x      LDRB     r0,[r0,#0]
        0x00003a80:    1e80        ..      SUBS     r0,r0,#2
        0x00003a82:    b281        ..      UXTH     r1,r0
        0x00003a84:    482a        *H      LDR      r0,[pc,#168] ; [0x3b30] = 0x20000fe2
        0x00003a86:    9001        ..      STR      r0,[sp,#4]
        0x00003a88:    f7fdfe60    ..`.    BL       CRC16 ; 0x174c
        0x00003a8c:    9800        ..      LDR      r0,[sp,#0]
        0x00003a8e:    9901        ..      LDR      r1,[sp,#4]
        0x00003a90:    7800        .x      LDRB     r0,[r0,#0]
        0x00003a92:    1840        @.      ADDS     r0,r0,r1
        0x00003a94:    1e80        ..      SUBS     r0,r0,#2
        0x00003a96:    7800        .x      LDRB     r0,[r0,#0]
        0x00003a98:    4926        &I      LDR      r1,[pc,#152] ; [0x3b34] = 0x2000000c
        0x00003a9a:    7809        .x      LDRB     r1,[r1,#0]
        0x00003a9c:    4288        .B      CMP      r0,r1
        0x00003a9e:    d139        9.      BNE      0x3b14 ; MeterProcess + 176
        0x00003aa0:    e7ff        ..      B        0x3aa2 ; MeterProcess + 62
        0x00003aa2:    4822        "H      LDR      r0,[pc,#136] ; [0x3b2c] = 0x20000237
        0x00003aa4:    7800        .x      LDRB     r0,[r0,#0]
        0x00003aa6:    4922        "I      LDR      r1,[pc,#136] ; [0x3b30] = 0x20000fe2
        0x00003aa8:    1840        @.      ADDS     r0,r0,r1
        0x00003aaa:    1e40        @.      SUBS     r0,r0,#1
        0x00003aac:    7800        .x      LDRB     r0,[r0,#0]
        0x00003aae:    4922        "I      LDR      r1,[pc,#136] ; [0x3b38] = 0x2000000d
        0x00003ab0:    7809        .x      LDRB     r1,[r1,#0]
        0x00003ab2:    4288        .B      CMP      r0,r1
        0x00003ab4:    d12e        ..      BNE      0x3b14 ; MeterProcess + 176
        0x00003ab6:    e7ff        ..      B        0x3ab8 ; MeterProcess + 84
        0x00003ab8:    481d        .H      LDR      r0,[pc,#116] ; [0x3b30] = 0x20000fe2
        0x00003aba:    7800        .x      LDRB     r0,[r0,#0]
        0x00003abc:    491f        .I      LDR      r1,[pc,#124] ; [0x3b3c] = 0x20000034
        0x00003abe:    7008        .p      STRB     r0,[r1,#0]
        0x00003ac0:    481f        .H      LDR      r0,[pc,#124] ; [0x3b40] = 0x20000239
        0x00003ac2:    7800        .x      LDRB     r0,[r0,#0]
        0x00003ac4:    491f        .I      LDR      r1,[pc,#124] ; [0x3b44] = 0x20000d48
        0x00003ac6:    7809        .x      LDRB     r1,[r1,#0]
        0x00003ac8:    4288        .B      CMP      r0,r1
        0x00003aca:    d117        ..      BNE      0x3afc ; MeterProcess + 152
        0x00003acc:    e7ff        ..      B        0x3ace ; MeterProcess + 106
        0x00003ace:    481b        .H      LDR      r0,[pc,#108] ; [0x3b3c] = 0x20000034
        0x00003ad0:    7802        .x      LDRB     r2,[r0,#0]
        0x00003ad2:    2118        .!      MOVS     r1,#0x18
        0x00003ad4:    4351        QC      MULS     r1,r2,r1
        0x00003ad6:    4a1c        .J      LDR      r2,[pc,#112] ; [0x3b48] = 0x200006b8
        0x00003ad8:    1889        ..      ADDS     r1,r1,r2
        0x00003ada:    4a1c        .J      LDR      r2,[pc,#112] ; [0x3b4c] = 0x20000c88
        0x00003adc:    7812        .x      LDRB     r2,[r2,#0]
        0x00003ade:    0052        R.      LSLS     r2,r2,#1
        0x00003ae0:    188a        ..      ADDS     r2,r1,r2
        0x00003ae2:    3a18        .:      SUBS     r2,r2,#0x18
        0x00003ae4:    8811        ..      LDRH     r1,[r2,#0]
        0x00003ae6:    1c49        I.      ADDS     r1,r1,#1
        0x00003ae8:    8011        ..      STRH     r1,[r2,#0]
        0x00003aea:    7800        .x      LDRB     r0,[r0,#0]
        0x00003aec:    0080        ..      LSLS     r0,r0,#2
        0x00003aee:    4918        .I      LDR      r1,[pc,#96] ; [0x3b50] = 0x20000d58
        0x00003af0:    1840        @.      ADDS     r0,r0,r1
        0x00003af2:    1f01        ..      SUBS     r1,r0,#4
        0x00003af4:    6808        .h      LDR      r0,[r1,#0]
        0x00003af6:    1c40        @.      ADDS     r0,r0,#1
        0x00003af8:    6008        .`      STR      r0,[r1,#0]
        0x00003afa:    e7ff        ..      B        0x3afc ; MeterProcess + 152
        0x00003afc:    480f        .H      LDR      r0,[pc,#60] ; [0x3b3c] = 0x20000034
        0x00003afe:    7800        .x      LDRB     r0,[r0,#0]
        0x00003b00:    1e40        @.      SUBS     r0,r0,#1
        0x00003b02:    2201        ."      MOVS     r2,#1
        0x00003b04:    4082        .@      LSLS     r2,r2,r0
        0x00003b06:    4934        4I      LDR      r1,[pc,#208] ; [0x3bd8] = 0x20000d50
        0x00003b08:    6808        .h      LDR      r0,[r1,#0]
        0x00003b0a:    4390        .C      BICS     r0,r0,r2
        0x00003b0c:    6008        .`      STR      r0,[r1,#0]
        0x00003b0e:    f7fff95d    ..].    BL       MeterDataProcess ; 0x2dcc
        0x00003b12:    e006        ..      B        0x3b22 ; MeterProcess + 190
        0x00003b14:    4806        .H      LDR      r0,[pc,#24] ; [0x3b30] = 0x20000fe2
        0x00003b16:    7800        .x      LDRB     r0,[r0,#0]
        0x00003b18:    4908        .I      LDR      r1,[pc,#32] ; [0x3b3c] = 0x20000034
        0x00003b1a:    7008        .p      STRB     r0,[r1,#0]
        0x00003b1c:    f000fa0a    ....    BL       ResetMeterUART ; 0x3f34
        0x00003b20:    e7ff        ..      B        0x3b22 ; MeterProcess + 190
        0x00003b22:    e7ff        ..      B        0x3b24 ; MeterProcess + 192
        0x00003b24:    b002        ..      ADD      sp,sp,#8
        0x00003b26:    bd80        ..      POP      {r7,pc}
    $d
    __arm_cp.3_0
        0x00003b28:    20000ffb    ...     DCD    536875003
    __arm_cp.3_1
        0x00003b2c:    20000237    7..     DCD    536871479
    __arm_cp.3_2
        0x00003b30:    20000fe2    ...     DCD    536874978
    __arm_cp.3_3
        0x00003b34:    2000000c    ...     DCD    536870924
    __arm_cp.3_4
        0x00003b38:    2000000d    ...     DCD    536870925
    __arm_cp.3_5
        0x00003b3c:    20000034    4..     DCD    536870964
    __arm_cp.3_6
        0x00003b40:    20000239    9..     DCD    536871481
    __arm_cp.3_7
        0x00003b44:    20000d48    H..     DCD    536874312
    __arm_cp.3_8
        0x00003b48:    200006b8    ...     DCD    536872632
    __arm_cp.3_9
        0x00003b4c:    20000c88    ...     DCD    536874120
    __arm_cp.3_10
        0x00003b50:    20000d58    X..     DCD    536874328
    $t
    MeterSuccess
        0x00003b54:    481f        .H      LDR      r0,[pc,#124] ; [0x3bd4] = 0x20000d4a
        0x00003b56:    7800        .x      LDRB     r0,[r0,#0]
        0x00003b58:    1e40        @.      SUBS     r0,r0,#1
        0x00003b5a:    2201        ."      MOVS     r2,#1
        0x00003b5c:    4082        .@      LSLS     r2,r2,r0
        0x00003b5e:    491e        .I      LDR      r1,[pc,#120] ; [0x3bd8] = 0x20000d50
        0x00003b60:    6808        .h      LDR      r0,[r1,#0]
        0x00003b62:    4390        .C      BICS     r0,r0,r2
        0x00003b64:    6008        .`      STR      r0,[r1,#0]
        0x00003b66:    491d        .I      LDR      r1,[pc,#116] ; [0x3bdc] = 0x20000d4b
        0x00003b68:    7808        .x      LDRB     r0,[r1,#0]
        0x00003b6a:    1c40        @.      ADDS     r0,r0,#1
        0x00003b6c:    7008        .p      STRB     r0,[r1,#0]
        0x00003b6e:    4917        .I      LDR      r1,[pc,#92] ; [0x3bcc] = 0x20000d07
        0x00003b70:    2000        .       MOVS     r0,#0
        0x00003b72:    7008        .p      STRB     r0,[r1,#0]
        0x00003b74:    4770        pG      BX       lr
        0x00003b76:    46c0        .F      MOV      r8,r8
    $d
    __arm_cp.1_3
        0x00003b78:    20000d07    ...     DCD    536874247
    $t
    MeterTimeoutProcess
        0x00003b7c:    b580        ..      PUSH     {r7,lr}
        0x00003b7e:    4812        .H      LDR      r0,[pc,#72] ; [0x3bc8] = 0x20000f78
        0x00003b80:    7800        .x      LDRB     r0,[r0,#0]
        0x00003b82:    2833        3(      CMP      r0,#0x33
        0x00003b84:    db1f        ..      BLT      0x3bc6 ; MeterTimeoutProcess + 74
        0x00003b86:    e7ff        ..      B        0x3b88 ; MeterTimeoutProcess + 12
        0x00003b88:    4910        .I      LDR      r1,[pc,#64] ; [0x3bcc] = 0x20000d07
        0x00003b8a:    2000        .       MOVS     r0,#0
        0x00003b8c:    7008        .p      STRB     r0,[r1,#0]
        0x00003b8e:    4810        .H      LDR      r0,[pc,#64] ; [0x3bd0] = 0x20000d56
        0x00003b90:    7801        .x      LDRB     r1,[r0,#0]
        0x00003b92:    1c49        I.      ADDS     r1,r1,#1
        0x00003b94:    7001        .p      STRB     r1,[r0,#0]
        0x00003b96:    7800        .x      LDRB     r0,[r0,#0]
        0x00003b98:    2806        .(      CMP      r0,#6
        0x00003b9a:    db13        ..      BLT      0x3bc4 ; MeterTimeoutProcess + 72
        0x00003b9c:    e7ff        ..      B        0x3b9e ; MeterTimeoutProcess + 34
        0x00003b9e:    480d        .H      LDR      r0,[pc,#52] ; [0x3bd4] = 0x20000d4a
        0x00003ba0:    7800        .x      LDRB     r0,[r0,#0]
        0x00003ba2:    1e40        @.      SUBS     r0,r0,#1
        0x00003ba4:    2201        ."      MOVS     r2,#1
        0x00003ba6:    4082        .@      LSLS     r2,r2,r0
        0x00003ba8:    490b        .I      LDR      r1,[pc,#44] ; [0x3bd8] = 0x20000d50
        0x00003baa:    6808        .h      LDR      r0,[r1,#0]
        0x00003bac:    4310        .C      ORRS     r0,r0,r2
        0x00003bae:    6008        .`      STR      r0,[r1,#0]
        0x00003bb0:    490a        .I      LDR      r1,[pc,#40] ; [0x3bdc] = 0x20000d4b
        0x00003bb2:    7808        .x      LDRB     r0,[r1,#0]
        0x00003bb4:    1c40        @.      ADDS     r0,r0,#1
        0x00003bb6:    7008        .p      STRB     r0,[r1,#0]
        0x00003bb8:    4905        .I      LDR      r1,[pc,#20] ; [0x3bd0] = 0x20000d56
        0x00003bba:    2000        .       MOVS     r0,#0
        0x00003bbc:    7008        .p      STRB     r0,[r1,#0]
        0x00003bbe:    f000f9b9    ....    BL       ResetMeterUART ; 0x3f34
        0x00003bc2:    e7ff        ..      B        0x3bc4 ; MeterTimeoutProcess + 72
        0x00003bc4:    e7ff        ..      B        0x3bc6 ; MeterTimeoutProcess + 74
        0x00003bc6:    bd80        ..      POP      {r7,pc}
    $d
    __arm_cp.2_0
        0x00003bc8:    20000f78    x..     DCD    536874872
    __arm_cp.2_1
        0x00003bcc:    20000d07    ...     DCD    536874247
    __arm_cp.2_2
        0x00003bd0:    20000d56    V..     DCD    536874326
    __arm_cp.2_3
        0x00003bd4:    20000d4a    J..     DCD    536874314
    __arm_cp.2_4
        0x00003bd8:    20000d50    P..     DCD    536874320
    __arm_cp.2_5
        0x00003bdc:    20000d4b    K..     DCD    536874315
    $t
    NVIC_DisableIRQ
        0x00003be0:    b081        ..      SUB      sp,sp,#4
        0x00003be2:    4601        .F      MOV      r1,r0
        0x00003be4:    4668        hF      MOV      r0,sp
        0x00003be6:    7001        .p      STRB     r1,[r0,#0]
        0x00003be8:    7801        .x      LDRB     r1,[r0,#0]
        0x00003bea:    201f        .       MOVS     r0,#0x1f
        0x00003bec:    4001        .@      ANDS     r1,r1,r0
        0x00003bee:    2001        .       MOVS     r0,#1
        0x00003bf0:    4088        .@      LSLS     r0,r0,r1
        0x00003bf2:    4902        .I      LDR      r1,[pc,#8] ; [0x3bfc] = 0xe000e180
        0x00003bf4:    6008        .`      STR      r0,[r1,#0]
        0x00003bf6:    b001        ..      ADD      sp,sp,#4
        0x00003bf8:    4770        pG      BX       lr
        0x00003bfa:    46c0        .F      MOV      r8,r8
    $d
    __arm_cp.4_0
        0x00003bfc:    e000e180    ....    DCD    3758154112
    $t
    NVIC_EnableIRQ
        0x00003c00:    b081        ..      SUB      sp,sp,#4
        0x00003c02:    4601        .F      MOV      r1,r0
        0x00003c04:    4668        hF      MOV      r0,sp
        0x00003c06:    7001        .p      STRB     r1,[r0,#0]
        0x00003c08:    7801        .x      LDRB     r1,[r0,#0]
        0x00003c0a:    201f        .       MOVS     r0,#0x1f
        0x00003c0c:    4001        .@      ANDS     r1,r1,r0
        0x00003c0e:    2001        .       MOVS     r0,#1
        0x00003c10:    4088        .@      LSLS     r0,r0,r1
        0x00003c12:    4917        .I      LDR      r1,[pc,#92] ; [0x3c70] = 0xe000e100
        0x00003c14:    6008        .`      STR      r0,[r1,#0]
        0x00003c16:    b001        ..      ADD      sp,sp,#4
        0x00003c18:    4770        pG      BX       lr
        0x00003c1a:    46c0        .F      MOV      r8,r8
    NVIC_EnableIRQ
        0x00003c1c:    b081        ..      SUB      sp,sp,#4
        0x00003c1e:    4601        .F      MOV      r1,r0
        0x00003c20:    4668        hF      MOV      r0,sp
        0x00003c22:    7001        .p      STRB     r1,[r0,#0]
        0x00003c24:    7801        .x      LDRB     r1,[r0,#0]
        0x00003c26:    201f        .       MOVS     r0,#0x1f
        0x00003c28:    4001        .@      ANDS     r1,r1,r0
        0x00003c2a:    2001        .       MOVS     r0,#1
        0x00003c2c:    4088        .@      LSLS     r0,r0,r1
        0x00003c2e:    4910        .I      LDR      r1,[pc,#64] ; [0x3c70] = 0xe000e100
        0x00003c30:    6008        .`      STR      r0,[r1,#0]
        0x00003c32:    b001        ..      ADD      sp,sp,#4
        0x00003c34:    4770        pG      BX       lr
        0x00003c36:    46c0        .F      MOV      r8,r8
    NVIC_EnableIRQ
        0x00003c38:    b081        ..      SUB      sp,sp,#4
        0x00003c3a:    4601        .F      MOV      r1,r0
        0x00003c3c:    4668        hF      MOV      r0,sp
        0x00003c3e:    7001        .p      STRB     r1,[r0,#0]
        0x00003c40:    7801        .x      LDRB     r1,[r0,#0]
        0x00003c42:    201f        .       MOVS     r0,#0x1f
        0x00003c44:    4001        .@      ANDS     r1,r1,r0
        0x00003c46:    2001        .       MOVS     r0,#1
        0x00003c48:    4088        .@      LSLS     r0,r0,r1
        0x00003c4a:    4909        .I      LDR      r1,[pc,#36] ; [0x3c70] = 0xe000e100
        0x00003c4c:    6008        .`      STR      r0,[r1,#0]
        0x00003c4e:    b001        ..      ADD      sp,sp,#4
        0x00003c50:    4770        pG      BX       lr
        0x00003c52:    46c0        .F      MOV      r8,r8
    NVIC_EnableIRQ
        0x00003c54:    b081        ..      SUB      sp,sp,#4
        0x00003c56:    4601        .F      MOV      r1,r0
        0x00003c58:    4668        hF      MOV      r0,sp
        0x00003c5a:    7001        .p      STRB     r1,[r0,#0]
        0x00003c5c:    7801        .x      LDRB     r1,[r0,#0]
        0x00003c5e:    201f        .       MOVS     r0,#0x1f
        0x00003c60:    4001        .@      ANDS     r1,r1,r0
        0x00003c62:    2001        .       MOVS     r0,#1
        0x00003c64:    4088        .@      LSLS     r0,r0,r1
        0x00003c66:    4902        .I      LDR      r1,[pc,#8] ; [0x3c70] = 0xe000e100
        0x00003c68:    6008        .`      STR      r0,[r1,#0]
        0x00003c6a:    b001        ..      ADD      sp,sp,#4
        0x00003c6c:    4770        pG      BX       lr
        0x00003c6e:    46c0        .F      MOV      r8,r8
    $d
    __arm_cp.7_0
        0x00003c70:    e000e100    ....    DCD    3758153984
    $t
    NVIC_SetPriority
        0x00003c74:    b570        p.      PUSH     {r4-r6,lr}
        0x00003c76:    b082        ..      SUB      sp,sp,#8
        0x00003c78:    4602        .F      MOV      r2,r0
        0x00003c7a:    a801        ..      ADD      r0,sp,#4
        0x00003c7c:    7002        .p      STRB     r2,[r0,#0]
        0x00003c7e:    9100        ..      STR      r1,[sp,#0]
        0x00003c80:    2100        .!      MOVS     r1,#0
        0x00003c82:    5640        @V      LDRSB    r0,[r0,r1]
        0x00003c84:    2800        .(      CMP      r0,#0
        0x00003c86:    d51b        ..      BPL      0x3cc0 ; NVIC_SetPriority + 76
        0x00003c88:    e7ff        ..      B        0x3c8a ; NVIC_SetPriority + 22
        0x00003c8a:    a901        ..      ADD      r1,sp,#4
        0x00003c8c:    7808        .x      LDRB     r0,[r1,#0]
        0x00003c8e:    240f        .$      MOVS     r4,#0xf
        0x00003c90:    4020         @      ANDS     r0,r0,r4
        0x00003c92:    3808        .8      SUBS     r0,r0,#8
        0x00003c94:    2203        ."      MOVS     r2,#3
        0x00003c96:    43d3        .C      MVNS     r3,r2
        0x00003c98:    4018        .@      ANDS     r0,r0,r3
        0x00003c9a:    4a16        .J      LDR      r2,[pc,#88] ; [0x3cf4] = 0xe000ed1c
        0x00003c9c:    5880        .X      LDR      r0,[r0,r2]
        0x00003c9e:    2500        .%      MOVS     r5,#0
        0x00003ca0:    5749        IW      LDRSB    r1,[r1,r5]
        0x00003ca2:    078d        ..      LSLS     r5,r1,#30
        0x00003ca4:    0eee        ..      LSRS     r6,r5,#27
        0x00003ca6:    25ff        .%      MOVS     r5,#0xff
        0x00003ca8:    40b5        .@      LSLS     r5,r5,r6
        0x00003caa:    43a8        .C      BICS     r0,r0,r5
        0x00003cac:    9d00        ..      LDR      r5,[sp,#0]
        0x00003cae:    01ad        ..      LSLS     r5,r5,#6
        0x00003cb0:    b2ed        ..      UXTB     r5,r5
        0x00003cb2:    40b5        .@      LSLS     r5,r5,r6
        0x00003cb4:    4328        (C      ORRS     r0,r0,r5
        0x00003cb6:    4021        !@      ANDS     r1,r1,r4
        0x00003cb8:    3908        .9      SUBS     r1,r1,#8
        0x00003cba:    4019        .@      ANDS     r1,r1,r3
        0x00003cbc:    5088        .P      STR      r0,[r1,r2]
        0x00003cbe:    e015        ..      B        0x3cec ; NVIC_SetPriority + 120
        0x00003cc0:    2400        .$      MOVS     r4,#0
        0x00003cc2:    a901        ..      ADD      r1,sp,#4
        0x00003cc4:    5708        .W      LDRSB    r0,[r1,r4]
        0x00003cc6:    2203        ."      MOVS     r2,#3
        0x00003cc8:    43d3        .C      MVNS     r3,r2
        0x00003cca:    4018        .@      ANDS     r0,r0,r3
        0x00003ccc:    4a08        .J      LDR      r2,[pc,#32] ; [0x3cf0] = 0xe000e400
        0x00003cce:    5880        .X      LDR      r0,[r0,r2]
        0x00003cd0:    5709        .W      LDRSB    r1,[r1,r4]
        0x00003cd2:    078c        ..      LSLS     r4,r1,#30
        0x00003cd4:    0ee5        ..      LSRS     r5,r4,#27
        0x00003cd6:    24ff        .$      MOVS     r4,#0xff
        0x00003cd8:    40ac        .@      LSLS     r4,r4,r5
        0x00003cda:    43a0        .C      BICS     r0,r0,r4
        0x00003cdc:    9c00        ..      LDR      r4,[sp,#0]
        0x00003cde:    01a4        ..      LSLS     r4,r4,#6
        0x00003ce0:    b2e4        ..      UXTB     r4,r4
        0x00003ce2:    40ac        .@      LSLS     r4,r4,r5
        0x00003ce4:    4320         C      ORRS     r0,r0,r4
        0x00003ce6:    4019        .@      ANDS     r1,r1,r3
        0x00003ce8:    5088        .P      STR      r0,[r1,r2]
        0x00003cea:    e7ff        ..      B        0x3cec ; NVIC_SetPriority + 120
        0x00003cec:    b002        ..      ADD      sp,sp,#8
        0x00003cee:    bd70        p.      POP      {r4-r6,pc}
    $d
    __arm_cp.34_0
        0x00003cf0:    e000e400    ....    DCD    3758154752
    __arm_cp.34_1
        0x00003cf4:    e000ed1c    ....    DCD    3758157084
    $t
    NVIC_SystemReset
        0x00003cf8:    f3bf8f4f    ..O.    DSB      
        0x00003cfc:    4903        .I      LDR      r1,[pc,#12] ; [0x3d0c] = 0xe000ed0c
        0x00003cfe:    4804        .H      LDR      r0,[pc,#16] ; [0x3d10] = 0x5fa0004
        0x00003d00:    6008        .`      STR      r0,[r1,#0]
        0x00003d02:    f3bf8f4f    ..O.    DSB      
        0x00003d06:    e7ff        ..      B        0x3d08 ; NVIC_SystemReset + 16
        0x00003d08:    bf00        ..      NOP      
        0x00003d0a:    e7fd        ..      B        0x3d08 ; NVIC_SystemReset + 16
    $d
    __arm_cp.16_0
        0x00003d0c:    e000ed0c    ....    DCD    3758157068
    __arm_cp.16_1
        0x00003d10:    05fa0004    ....    DCD    100270084
    $t
    ProcessHardFault
        0x00003d14:    b580        ..      PUSH     {r7,lr}
        0x00003d16:    b084        ..      SUB      sp,sp,#0x10
        0x00003d18:    9003        ..      STR      r0,[sp,#0xc]
        0x00003d1a:    9102        ..      STR      r1,[sp,#8]
        0x00003d1c:    9201        ..      STR      r2,[sp,#4]
        0x00003d1e:    a803        ..      ADD      r0,sp,#0xc
        0x00003d20:    7800        .x      LDRB     r0,[r0,#0]
        0x00003d22:    0740        @.      LSLS     r0,r0,#29
        0x00003d24:    2800        .(      CMP      r0,#0
        0x00003d26:    d503        ..      BPL      0x3d30 ; ProcessHardFault + 28
        0x00003d28:    e7ff        ..      B        0x3d2a ; ProcessHardFault + 22
        0x00003d2a:    9801        ..      LDR      r0,[sp,#4]
        0x00003d2c:    9000        ..      STR      r0,[sp,#0]
        0x00003d2e:    e002        ..      B        0x3d36 ; ProcessHardFault + 34
        0x00003d30:    9802        ..      LDR      r0,[sp,#8]
        0x00003d32:    9000        ..      STR      r0,[sp,#0]
        0x00003d34:    e7ff        ..      B        0x3d36 ; ProcessHardFault + 34
        0x00003d36:    4807        .H      LDR      r0,[pc,#28] ; [0x3d54] = 0x6bb8
        0x00003d38:    f002f9a2    ....    BL       __0printf ; 0x6080
        0x00003d3c:    e7ff        ..      B        0x3d3e ; ProcessHardFault + 42
        0x00003d3e:    9800        ..      LDR      r0,[sp,#0]
        0x00003d40:    6800        .h      LDR      r0,[r0,#0]
        0x00003d42:    2101        .!      MOVS     r1,#1
        0x00003d44:    4308        .C      ORRS     r0,r0,r1
        0x00003d46:    2800        .(      CMP      r0,#0
        0x00003d48:    d001        ..      BEQ      0x3d4e ; ProcessHardFault + 58
        0x00003d4a:    e7ff        ..      B        0x3d4c ; ProcessHardFault + 56
        0x00003d4c:    e7f7        ..      B        0x3d3e ; ProcessHardFault + 42
        0x00003d4e:    9803        ..      LDR      r0,[sp,#0xc]
        0x00003d50:    b004        ..      ADD      sp,sp,#0x10
        0x00003d52:    bd80        ..      POP      {r7,pc}
    $d
    __arm_cp.0_0
        0x00003d54:    00006bb8    .k..    DCD    27576
    $t
    ROOM_POWER_On
        0x00003d58:    b081        ..      SUB      sp,sp,#4
        0x00003d5a:    4915        .I      LDR      r1,[pc,#84] ; [0x3db0] = 0x20000d0c
        0x00003d5c:    2001        .       MOVS     r0,#1
        0x00003d5e:    7008        .p      STRB     r0,[r1,#0]
        0x00003d60:    4914        .I      LDR      r1,[pc,#80] ; [0x3db4] = 0x5000435c
        0x00003d62:    6008        .`      STR      r0,[r1,#0]
        0x00003d64:    4669        iF      MOV      r1,sp
        0x00003d66:    2000        .       MOVS     r0,#0
        0x00003d68:    7008        .p      STRB     r0,[r1,#0]
        0x00003d6a:    e7ff        ..      B        0x3d6c ; ROOM_POWER_On + 20
        0x00003d6c:    4668        hF      MOV      r0,sp
        0x00003d6e:    7800        .x      LDRB     r0,[r0,#0]
        0x00003d70:    2831        1(      CMP      r0,#0x31
        0x00003d72:    dc07        ..      BGT      0x3d84 ; ROOM_POWER_On + 44
        0x00003d74:    e7ff        ..      B        0x3d76 ; ROOM_POWER_On + 30
        0x00003d76:    bf00        ..      NOP      
        0x00003d78:    e7ff        ..      B        0x3d7a ; ROOM_POWER_On + 34
        0x00003d7a:    9800        ..      LDR      r0,[sp,#0]
        0x00003d7c:    1c40        @.      ADDS     r0,r0,#1
        0x00003d7e:    4669        iF      MOV      r1,sp
        0x00003d80:    7008        .p      STRB     r0,[r1,#0]
        0x00003d82:    e7f3        ..      B        0x3d6c ; ROOM_POWER_On + 20
        0x00003d84:    490c        .I      LDR      r1,[pc,#48] ; [0x3db8] = 0x5000420c
        0x00003d86:    2001        .       MOVS     r0,#1
        0x00003d88:    6008        .`      STR      r0,[r1,#0]
        0x00003d8a:    4669        iF      MOV      r1,sp
        0x00003d8c:    2000        .       MOVS     r0,#0
        0x00003d8e:    7008        .p      STRB     r0,[r1,#0]
        0x00003d90:    e7ff        ..      B        0x3d92 ; ROOM_POWER_On + 58
        0x00003d92:    4668        hF      MOV      r0,sp
        0x00003d94:    7800        .x      LDRB     r0,[r0,#0]
        0x00003d96:    2831        1(      CMP      r0,#0x31
        0x00003d98:    dc07        ..      BGT      0x3daa ; ROOM_POWER_On + 82
        0x00003d9a:    e7ff        ..      B        0x3d9c ; ROOM_POWER_On + 68
        0x00003d9c:    bf00        ..      NOP      
        0x00003d9e:    e7ff        ..      B        0x3da0 ; ROOM_POWER_On + 72
        0x00003da0:    9800        ..      LDR      r0,[sp,#0]
        0x00003da2:    1c40        @.      ADDS     r0,r0,#1
        0x00003da4:    4669        iF      MOV      r1,sp
        0x00003da6:    7008        .p      STRB     r0,[r1,#0]
        0x00003da8:    e7f3        ..      B        0x3d92 ; ROOM_POWER_On + 58
        0x00003daa:    b001        ..      ADD      sp,sp,#4
        0x00003dac:    4770        pG      BX       lr
        0x00003dae:    46c0        .F      MOV      r8,r8
    $d
    __arm_cp.23_0
        0x00003db0:    20000d0c    ...     DCD    536874252
    __arm_cp.23_1
        0x00003db4:    5000435c    \C.P    DCD    1342194524
    __arm_cp.23_2
        0x00003db8:    5000420c    .B.P    DCD    1342194188
    $t
    ReadMetaInfo
        0x00003dbc:    b580        ..      PUSH     {r7,lr}
        0x00003dbe:    b088        ..      SUB      sp,sp,#0x20
        0x00003dc0:    9007        ..      STR      r0,[sp,#0x1c]
        0x00003dc2:    9106        ..      STR      r1,[sp,#0x18]
        0x00003dc4:    9205        ..      STR      r2,[sp,#0x14]
        0x00003dc6:    9b07        ..      LDR      r3,[sp,#0x1c]
        0x00003dc8:    203d        =       MOVS     r0,#0x3d
        0x00003dca:    02c1        ..      LSLS     r1,r0,#11
        0x00003dcc:    2000        .       MOVS     r0,#0
        0x00003dce:    9001        ..      STR      r0,[sp,#4]
        0x00003dd0:    4a13        .J      LDR      r2,[pc,#76] ; [0x3e20] = 0x1e810
        0x00003dd2:    f7fefa0b    ....    BL       FMC_Proc ; 0x21ec
        0x00003dd6:    9801        ..      LDR      r0,[sp,#4]
        0x00003dd8:    213f        ?!      MOVS     r1,#0x3f
        0x00003dda:    02c9        ..      LSLS     r1,r1,#11
        0x00003ddc:    9104        ..      STR      r1,[sp,#0x10]
        0x00003dde:    211f        .!      MOVS     r1,#0x1f
        0x00003de0:    030a        ..      LSLS     r2,r1,#12
        0x00003de2:    9203        ..      STR      r2,[sp,#0xc]
        0x00003de4:    9907        ..      LDR      r1,[sp,#0x1c]
        0x00003de6:    6849        Ih      LDR      r1,[r1,#4]
        0x00003de8:    1a89        ..      SUBS     r1,r1,r2
        0x00003dea:    1e4a        J.      SUBS     r2,r1,#1
        0x00003dec:    4191        .A      SBCS     r1,r1,r2
        0x00003dee:    9102        ..      STR      r1,[sp,#8]
        0x00003df0:    9902        ..      LDR      r1,[sp,#8]
        0x00003df2:    008a        ..      LSLS     r2,r1,#2
        0x00003df4:    a903        ..      ADD      r1,sp,#0xc
        0x00003df6:    9100        ..      STR      r1,[sp,#0]
        0x00003df8:    5889        .X      LDR      r1,[r1,r2]
        0x00003dfa:    460a        .F      MOV      r2,r1
        0x00003dfc:    3220         2      ADDS     r2,r2,#0x20
        0x00003dfe:    9b06        ..      LDR      r3,[sp,#0x18]
        0x00003e00:    f7fef9f4    ....    BL       FMC_Proc ; 0x21ec
        0x00003e04:    9900        ..      LDR      r1,[sp,#0]
        0x00003e06:    9801        ..      LDR      r0,[sp,#4]
        0x00003e08:    9b02        ..      LDR      r3,[sp,#8]
        0x00003e0a:    2201        ."      MOVS     r2,#1
        0x00003e0c:    1ad2        ..      SUBS     r2,r2,r3
        0x00003e0e:    0092        ..      LSLS     r2,r2,#2
        0x00003e10:    5889        .X      LDR      r1,[r1,r2]
        0x00003e12:    460a        .F      MOV      r2,r1
        0x00003e14:    3220         2      ADDS     r2,r2,#0x20
        0x00003e16:    9b05        ..      LDR      r3,[sp,#0x14]
        0x00003e18:    f7fef9e8    ....    BL       FMC_Proc ; 0x21ec
        0x00003e1c:    b008        ..      ADD      sp,sp,#0x20
        0x00003e1e:    bd80        ..      POP      {r7,pc}
    $d
    __arm_cp.3_0
        0x00003e20:    0001e810    ....    DCD    124944
    $t
    ReadMyMeterID
        0x00003e24:    4821        !H      LDR      r0,[pc,#132] ; [0x3eac] = 0x50004248
        0x00003e26:    6800        .h      LDR      r0,[r0,#0]
        0x00003e28:    2800        .(      CMP      r0,#0
        0x00003e2a:    d006        ..      BEQ      0x3e3a ; ReadMyMeterID + 22
        0x00003e2c:    e7ff        ..      B        0x3e2e ; ReadMyMeterID + 10
        0x00003e2e:    4920         I      LDR      r1,[pc,#128] ; [0x3eb0] = 0x20000d48
        0x00003e30:    7808        .x      LDRB     r0,[r1,#0]
        0x00003e32:    2201        ."      MOVS     r2,#1
        0x00003e34:    4310        .C      ORRS     r0,r0,r2
        0x00003e36:    7008        .p      STRB     r0,[r1,#0]
        0x00003e38:    e7ff        ..      B        0x3e3a ; ReadMyMeterID + 22
        0x00003e3a:    481e        .H      LDR      r0,[pc,#120] ; [0x3eb4] = 0x5000424c
        0x00003e3c:    6800        .h      LDR      r0,[r0,#0]
        0x00003e3e:    2800        .(      CMP      r0,#0
        0x00003e40:    d006        ..      BEQ      0x3e50 ; ReadMyMeterID + 44
        0x00003e42:    e7ff        ..      B        0x3e44 ; ReadMyMeterID + 32
        0x00003e44:    491a        .I      LDR      r1,[pc,#104] ; [0x3eb0] = 0x20000d48
        0x00003e46:    7808        .x      LDRB     r0,[r1,#0]
        0x00003e48:    2202        ."      MOVS     r2,#2
        0x00003e4a:    4310        .C      ORRS     r0,r0,r2
        0x00003e4c:    7008        .p      STRB     r0,[r1,#0]
        0x00003e4e:    e7ff        ..      B        0x3e50 ; ReadMyMeterID + 44
        0x00003e50:    4819        .H      LDR      r0,[pc,#100] ; [0x3eb8] = 0x50004250
        0x00003e52:    6800        .h      LDR      r0,[r0,#0]
        0x00003e54:    2800        .(      CMP      r0,#0
        0x00003e56:    d006        ..      BEQ      0x3e66 ; ReadMyMeterID + 66
        0x00003e58:    e7ff        ..      B        0x3e5a ; ReadMyMeterID + 54
        0x00003e5a:    4915        .I      LDR      r1,[pc,#84] ; [0x3eb0] = 0x20000d48
        0x00003e5c:    7808        .x      LDRB     r0,[r1,#0]
        0x00003e5e:    2204        ."      MOVS     r2,#4
        0x00003e60:    4310        .C      ORRS     r0,r0,r2
        0x00003e62:    7008        .p      STRB     r0,[r1,#0]
        0x00003e64:    e7ff        ..      B        0x3e66 ; ReadMyMeterID + 66
        0x00003e66:    4815        .H      LDR      r0,[pc,#84] ; [0x3ebc] = 0x50004254
        0x00003e68:    6800        .h      LDR      r0,[r0,#0]
        0x00003e6a:    2800        .(      CMP      r0,#0
        0x00003e6c:    d006        ..      BEQ      0x3e7c ; ReadMyMeterID + 88
        0x00003e6e:    e7ff        ..      B        0x3e70 ; ReadMyMeterID + 76
        0x00003e70:    490f        .I      LDR      r1,[pc,#60] ; [0x3eb0] = 0x20000d48
        0x00003e72:    7808        .x      LDRB     r0,[r1,#0]
        0x00003e74:    2208        ."      MOVS     r2,#8
        0x00003e76:    4310        .C      ORRS     r0,r0,r2
        0x00003e78:    7008        .p      STRB     r0,[r1,#0]
        0x00003e7a:    e7ff        ..      B        0x3e7c ; ReadMyMeterID + 88
        0x00003e7c:    4810        .H      LDR      r0,[pc,#64] ; [0x3ec0] = 0x50004258
        0x00003e7e:    6800        .h      LDR      r0,[r0,#0]
        0x00003e80:    2800        .(      CMP      r0,#0
        0x00003e82:    d006        ..      BEQ      0x3e92 ; ReadMyMeterID + 110
        0x00003e84:    e7ff        ..      B        0x3e86 ; ReadMyMeterID + 98
        0x00003e86:    490a        .I      LDR      r1,[pc,#40] ; [0x3eb0] = 0x20000d48
        0x00003e88:    7808        .x      LDRB     r0,[r1,#0]
        0x00003e8a:    2210        ."      MOVS     r2,#0x10
        0x00003e8c:    4310        .C      ORRS     r0,r0,r2
        0x00003e8e:    7008        .p      STRB     r0,[r1,#0]
        0x00003e90:    e7ff        ..      B        0x3e92 ; ReadMyMeterID + 110
        0x00003e92:    480c        .H      LDR      r0,[pc,#48] ; [0x3ec4] = 0x5000425c
        0x00003e94:    6800        .h      LDR      r0,[r0,#0]
        0x00003e96:    2800        .(      CMP      r0,#0
        0x00003e98:    d006        ..      BEQ      0x3ea8 ; ReadMyMeterID + 132
        0x00003e9a:    e7ff        ..      B        0x3e9c ; ReadMyMeterID + 120
        0x00003e9c:    4904        .I      LDR      r1,[pc,#16] ; [0x3eb0] = 0x20000d48
        0x00003e9e:    7808        .x      LDRB     r0,[r1,#0]
        0x00003ea0:    2220         "      MOVS     r2,#0x20
        0x00003ea2:    4310        .C      ORRS     r0,r0,r2
        0x00003ea4:    7008        .p      STRB     r0,[r1,#0]
        0x00003ea6:    e7ff        ..      B        0x3ea8 ; ReadMyMeterID + 132
        0x00003ea8:    4770        pG      BX       lr
        0x00003eaa:    46c0        .F      MOV      r8,r8
    $d
    __arm_cp.25_0
        0x00003eac:    50004248    HB.P    DCD    1342194248
    __arm_cp.25_1
        0x00003eb0:    20000d48    H..     DCD    536874312
    __arm_cp.25_2
        0x00003eb4:    5000424c    LB.P    DCD    1342194252
    __arm_cp.25_3
        0x00003eb8:    50004250    PB.P    DCD    1342194256
    __arm_cp.25_4
        0x00003ebc:    50004254    TB.P    DCD    1342194260
    __arm_cp.25_5
        0x00003ec0:    50004258    XB.P    DCD    1342194264
    __arm_cp.25_6
        0x00003ec4:    5000425c    \B.P    DCD    1342194268
    $t
    RecoverSystemMoniter
        0x00003ec8:    b580        ..      PUSH     {r7,lr}
        0x00003eca:    b082        ..      SUB      sp,sp,#8
        0x00003ecc:    480a        .H      LDR      r0,[pc,#40] ; [0x3ef8] = 0x200010ba
        0x00003ece:    7800        .x      LDRB     r0,[r0,#0]
        0x00003ed0:    07c0        ..      LSLS     r0,r0,#31
        0x00003ed2:    2800        .(      CMP      r0,#0
        0x00003ed4:    d00e        ..      BEQ      0x3ef4 ; RecoverSystemMoniter + 44
        0x00003ed6:    e7ff        ..      B        0x3ed8 ; RecoverSystemMoniter + 16
        0x00003ed8:    4907        .I      LDR      r1,[pc,#28] ; [0x3ef8] = 0x200010ba
        0x00003eda:    2000        .       MOVS     r0,#0
        0x00003edc:    7008        .p      STRB     r0,[r1,#0]
        0x00003ede:    4907        .I      LDR      r1,[pc,#28] ; [0x3efc] = 0x500042dc
        0x00003ee0:    9101        ..      STR      r1,[sp,#4]
        0x00003ee2:    6008        .`      STR      r0,[r1,#0]
        0x00003ee4:    f000f80c    ....    BL       ResetHostUART ; 0x3f00
        0x00003ee8:    f000f83e    ..>.    BL       ResetReaderUART ; 0x3f68
        0x00003eec:    9901        ..      LDR      r1,[sp,#4]
        0x00003eee:    2001        .       MOVS     r0,#1
        0x00003ef0:    6008        .`      STR      r0,[r1,#0]
        0x00003ef2:    e7ff        ..      B        0x3ef4 ; RecoverSystemMoniter + 44
        0x00003ef4:    b002        ..      ADD      sp,sp,#8
        0x00003ef6:    bd80        ..      POP      {r7,pc}
    $d
    __arm_cp.4_0
        0x00003ef8:    200010ba    ...     DCD    536875194
    __arm_cp.4_1
        0x00003efc:    500042dc    .B.P    DCD    1342194396
    $t
    ResetHostUART
        0x00003f00:    4906        .I      LDR      r1,[pc,#24] ; [0x3f1c] = 0x20000099
        0x00003f02:    2000        .       MOVS     r0,#0
        0x00003f04:    7008        .p      STRB     r0,[r1,#0]
        0x00003f06:    4906        .I      LDR      r1,[pc,#24] ; [0x3f20] = 0x2000009b
        0x00003f08:    7008        .p      STRB     r0,[r1,#0]
        0x00003f0a:    4906        .I      LDR      r1,[pc,#24] ; [0x3f24] = 0x2000009a
        0x00003f0c:    7008        .p      STRB     r0,[r1,#0]
        0x00003f0e:    4906        .I      LDR      r1,[pc,#24] ; [0x3f28] = 0x20000101
        0x00003f10:    7008        .p      STRB     r0,[r1,#0]
        0x00003f12:    4906        .I      LDR      r1,[pc,#24] ; [0x3f2c] = 0x20000103
        0x00003f14:    7008        .p      STRB     r0,[r1,#0]
        0x00003f16:    4906        .I      LDR      r1,[pc,#24] ; [0x3f30] = 0x20000102
        0x00003f18:    7008        .p      STRB     r0,[r1,#0]
        0x00003f1a:    4770        pG      BX       lr
    $d
    __arm_cp.5_0
        0x00003f1c:    20000099    ...     DCD    536871065
    __arm_cp.5_1
        0x00003f20:    2000009b    ...     DCD    536871067
    __arm_cp.5_2
        0x00003f24:    2000009a    ...     DCD    536871066
    __arm_cp.5_3
        0x00003f28:    20000101    ...     DCD    536871169
    __arm_cp.5_4
        0x00003f2c:    20000103    ...     DCD    536871171
    __arm_cp.5_5
        0x00003f30:    20000102    ...     DCD    536871170
    $t
    ResetMeterUART
        0x00003f34:    4906        .I      LDR      r1,[pc,#24] ; [0x3f50] = 0x2000021a
        0x00003f36:    2000        .       MOVS     r0,#0
        0x00003f38:    7008        .p      STRB     r0,[r1,#0]
        0x00003f3a:    4906        .I      LDR      r1,[pc,#24] ; [0x3f54] = 0x20000219
        0x00003f3c:    7008        .p      STRB     r0,[r1,#0]
        0x00003f3e:    4906        .I      LDR      r1,[pc,#24] ; [0x3f58] = 0x20000218
        0x00003f40:    7008        .p      STRB     r0,[r1,#0]
        0x00003f42:    4906        .I      LDR      r1,[pc,#24] ; [0x3f5c] = 0x20000236
        0x00003f44:    7008        .p      STRB     r0,[r1,#0]
        0x00003f46:    4906        .I      LDR      r1,[pc,#24] ; [0x3f60] = 0x20000235
        0x00003f48:    7008        .p      STRB     r0,[r1,#0]
        0x00003f4a:    4906        .I      LDR      r1,[pc,#24] ; [0x3f64] = 0x20000234
        0x00003f4c:    7008        .p      STRB     r0,[r1,#0]
        0x00003f4e:    4770        pG      BX       lr
    $d
    __arm_cp.32_0
        0x00003f50:    2000021a    ...     DCD    536871450
    __arm_cp.32_1
        0x00003f54:    20000219    ...     DCD    536871449
    __arm_cp.32_2
        0x00003f58:    20000218    ...     DCD    536871448
    __arm_cp.32_3
        0x00003f5c:    20000236    6..     DCD    536871478
    __arm_cp.32_4
        0x00003f60:    20000235    5..     DCD    536871477
    __arm_cp.32_5
        0x00003f64:    20000234    4..     DCD    536871476
    $t
    ResetReaderUART
        0x00003f68:    4906        .I      LDR      r1,[pc,#24] ; [0x3f84] = 0x20000eb7
        0x00003f6a:    2000        .       MOVS     r0,#0
        0x00003f6c:    7008        .p      STRB     r0,[r1,#0]
        0x00003f6e:    4906        .I      LDR      r1,[pc,#24] ; [0x3f88] = 0x20000eb6
        0x00003f70:    7008        .p      STRB     r0,[r1,#0]
        0x00003f72:    4906        .I      LDR      r1,[pc,#24] ; [0x3f8c] = 0x20000eb5
        0x00003f74:    7008        .p      STRB     r0,[r1,#0]
        0x00003f76:    4906        .I      LDR      r1,[pc,#24] ; [0x3f90] = 0x20000f1f
        0x00003f78:    7008        .p      STRB     r0,[r1,#0]
        0x00003f7a:    4906        .I      LDR      r1,[pc,#24] ; [0x3f94] = 0x20000f1e
        0x00003f7c:    7008        .p      STRB     r0,[r1,#0]
        0x00003f7e:    4906        .I      LDR      r1,[pc,#24] ; [0x3f98] = 0x20000f1d
        0x00003f80:    7008        .p      STRB     r0,[r1,#0]
        0x00003f82:    4770        pG      BX       lr
    $d
    __arm_cp.6_0
        0x00003f84:    20000eb7    ...     DCD    536874679
    __arm_cp.6_1
        0x00003f88:    20000eb6    ...     DCD    536874678
    __arm_cp.6_2
        0x00003f8c:    20000eb5    ...     DCD    536874677
    __arm_cp.6_3
        0x00003f90:    20000f1f    ...     DCD    536874783
    __arm_cp.6_4
        0x00003f94:    20000f1e    ...     DCD    536874782
    __arm_cp.6_5
        0x00003f98:    20000f1d    ...     DCD    536874781
    $t
    SH_Return
        0x00003f9c:    b083        ..      SUB      sp,sp,#0xc
        0x00003f9e:    9002        ..      STR      r0,[sp,#8]
        0x00003fa0:    9101        ..      STR      r1,[sp,#4]
        0x00003fa2:    9200        ..      STR      r2,[sp,#0]
        0x00003fa4:    2000        .       MOVS     r0,#0
        0x00003fa6:    b003        ..      ADD      sp,sp,#0xc
        0x00003fa8:    4770        pG      BX       lr
        0x00003faa:    0000        ..      MOVS     r0,r0
    SYS_GetResetSrc
        0x00003fac:    4801        .H      LDR      r0,[pc,#4] ; [0x3fb4] = 0x50000004
        0x00003fae:    6800        .h      LDR      r0,[r0,#0]
        0x00003fb0:    4770        pG      BX       lr
        0x00003fb2:    46c0        .F      MOV      r8,r8
    $d
    __arm_cp.2_0
        0x00003fb4:    50000004    ...P    DCD    1342177284
    $t
    SYS_Init
        0x00003fb8:    b5f0        ..      PUSH     {r4-r7,lr}
        0x00003fba:    b089        ..      SUB      sp,sp,#0x24
        0x00003fbc:    494b        KI      LDR      r1,[pc,#300] ; [0x40ec] = 0x50000058
        0x00003fbe:    6808        .h      LDR      r0,[r1,#0]
        0x00003fc0:    2201        ."      MOVS     r2,#1
        0x00003fc2:    9208        ..      STR      r2,[sp,#0x20]
        0x00003fc4:    4310        .C      ORRS     r0,r0,r2
        0x00003fc6:    220e        ."      MOVS     r2,#0xe
        0x00003fc8:    4390        .C      BICS     r0,r0,r2
        0x00003fca:    6008        .`      STR      r0,[r1,#0]
        0x00003fcc:    6808        .h      LDR      r0,[r1,#0]
        0x00003fce:    2210        ."      MOVS     r2,#0x10
        0x00003fd0:    4310        .C      ORRS     r0,r0,r2
        0x00003fd2:    22e0        ."      MOVS     r2,#0xe0
        0x00003fd4:    4390        .C      BICS     r0,r0,r2
        0x00003fd6:    6008        .`      STR      r0,[r1,#0]
        0x00003fd8:    2006        .       MOVS     r0,#6
        0x00003fda:    f7fdf987    ....    BL       CLK_EnableXtalRC ; 0x12ec
        0x00003fde:    2012        .       MOVS     r0,#0x12
        0x00003fe0:    f7fdfb92    ....    BL       CLK_WaitClockReady ; 0x1708
        0x00003fe4:    2007        .       MOVS     r0,#7
        0x00003fe6:    9000        ..      STR      r0,[sp,#0]
        0x00003fe8:    2100        .!      MOVS     r1,#0
        0x00003fea:    9106        ..      STR      r1,[sp,#0x18]
        0x00003fec:    f7fdfad8    ....    BL       CLK_SetHCLK ; 0x15a0
        0x00003ff0:    483f        ?H      LDR      r0,[pc,#252] ; [0x40f0] = 0x44aa200
        0x00003ff2:    f7fdfa77    ..w.    BL       CLK_SetCoreClock ; 0x14e4
        0x00003ff6:    2018        .       MOVS     r0,#0x18
        0x00003ff8:    f7fdfb54    ..T.    BL       CLK_SetSysTickClockSrc ; 0x16a4
        0x00003ffc:    483d        =H      LDR      r0,[pc,#244] ; [0x40f4] = 0x57803d10
        0x00003ffe:    9001        ..      STR      r0,[sp,#4]
        0x00004000:    f7fdf854    ..T.    BL       CLK_EnableModuleClock ; 0x10ac
        0x00004004:    483c        <H      LDR      r0,[pc,#240] ; [0x40f8] = 0x57803d11
        0x00004006:    9002        ..      STR      r0,[sp,#8]
        0x00004008:    f7fdf850    ..P.    BL       CLK_EnableModuleClock ; 0x10ac
        0x0000400c:    483b        ;H      LDR      r0,[pc,#236] ; [0x40fc] = 0x57803d12
        0x0000400e:    9003        ..      STR      r0,[sp,#0xc]
        0x00004010:    f7fdf84c    ..L.    BL       CLK_EnableModuleClock ; 0x10ac
        0x00004014:    2002        .       MOVS     r0,#2
        0x00004016:    9007        ..      STR      r0,[sp,#0x1c]
        0x00004018:    f7fdf848    ..H.    BL       CLK_EnableModuleClock ; 0x10ac
        0x0000401c:    9800        ..      LDR      r0,[sp,#0]
        0x0000401e:    f7fdf845    ..E.    BL       CLK_EnableModuleClock ; 0x10ac
        0x00004022:    202b        +       MOVS     r0,#0x2b
        0x00004024:    0640        @.      LSLS     r0,r0,#25
        0x00004026:    9005        ..      STR      r0,[sp,#0x14]
        0x00004028:    f7fdf840    ..@.    BL       CLK_EnableModuleClock ; 0x10ac
        0x0000402c:    9801        ..      LDR      r0,[sp,#4]
        0x0000402e:    9a06        ..      LDR      r2,[sp,#0x18]
        0x00004030:    2403        .$      MOVS     r4,#3
        0x00004032:    0621        !.      LSLS     r1,r4,#24
        0x00004034:    9104        ..      STR      r1,[sp,#0x10]
        0x00004036:    f7fdfae5    ....    BL       CLK_SetModuleClock ; 0x1604
        0x0000403a:    9802        ..      LDR      r0,[sp,#8]
        0x0000403c:    9904        ..      LDR      r1,[sp,#0x10]
        0x0000403e:    9a06        ..      LDR      r2,[sp,#0x18]
        0x00004040:    f7fdfae0    ....    BL       CLK_SetModuleClock ; 0x1604
        0x00004044:    9803        ..      LDR      r0,[sp,#0xc]
        0x00004046:    9904        ..      LDR      r1,[sp,#0x10]
        0x00004048:    9a06        ..      LDR      r2,[sp,#0x18]
        0x0000404a:    f7fdfadb    ....    BL       CLK_SetModuleClock ; 0x1604
        0x0000404e:    9805        ..      LDR      r0,[sp,#0x14]
        0x00004050:    9a06        ..      LDR      r2,[sp,#0x18]
        0x00004052:    9907        ..      LDR      r1,[sp,#0x1c]
        0x00004054:    f7fdfad6    ....    BL       CLK_SetModuleClock ; 0x1604
        0x00004058:    9b07        ..      LDR      r3,[sp,#0x1c]
        0x0000405a:    9a08        ..      LDR      r2,[sp,#0x20]
        0x0000405c:    4928        (I      LDR      r1,[pc,#160] ; [0x4100] = 0x50000080
        0x0000405e:    6808        .h      LDR      r0,[r1,#0]
        0x00004060:    4310        .C      ORRS     r0,r0,r2
        0x00004062:    4398        .C      BICS     r0,r0,r3
        0x00004064:    6008        .`      STR      r0,[r1,#0]
        0x00004066:    6808        .h      LDR      r0,[r1,#0]
        0x00004068:    0292        ..      LSLS     r2,r2,#10
        0x0000406a:    4390        .C      BICS     r0,r0,r2
        0x0000406c:    6008        .`      STR      r0,[r1,#0]
        0x0000406e:    6808        .h      LDR      r0,[r1,#0]
        0x00004070:    2211        ."      MOVS     r2,#0x11
        0x00004072:    0113        ..      LSLS     r3,r2,#4
        0x00004074:    4318        .C      ORRS     r0,r0,r3
        0x00004076:    2320         #      MOVS     r3,#0x20
        0x00004078:    4398        .C      BICS     r0,r0,r3
        0x0000407a:    6008        .`      STR      r0,[r1,#0]
        0x0000407c:    6808        .h      LDR      r0,[r1,#0]
        0x0000407e:    0192        ..      LSLS     r2,r2,#6
        0x00004080:    4310        .C      ORRS     r0,r0,r2
        0x00004082:    2280        ."      MOVS     r2,#0x80
        0x00004084:    4390        .C      BICS     r0,r0,r2
        0x00004086:    6008        .`      STR      r0,[r1,#0]
        0x00004088:    491e        .I      LDR      r1,[pc,#120] ; [0x4104] = 0x50000048
        0x0000408a:    6808        .h      LDR      r0,[r1,#0]
        0x0000408c:    4320         C      ORRS     r0,r0,r4
        0x0000408e:    220c        ."      MOVS     r2,#0xc
        0x00004090:    4390        .C      BICS     r0,r0,r2
        0x00004092:    6008        .`      STR      r0,[r1,#0]
        0x00004094:    6808        .h      LDR      r0,[r1,#0]
        0x00004096:    2330        0#      MOVS     r3,#0x30
        0x00004098:    4318        .C      ORRS     r0,r0,r3
        0x0000409a:    22c0        ."      MOVS     r2,#0xc0
        0x0000409c:    43d2        .C      MVNS     r2,r2
        0x0000409e:    4010        .@      ANDS     r0,r0,r2
        0x000040a0:    6008        .`      STR      r0,[r1,#0]
        0x000040a2:    4919        .I      LDR      r1,[pc,#100] ; [0x4108] = 0x50000054
        0x000040a4:    6808        .h      LDR      r0,[r1,#0]
        0x000040a6:    250f        .%      MOVS     r5,#0xf
        0x000040a8:    052e        ..      LSLS     r6,r5,#20
        0x000040aa:    43b0        .C      BICS     r0,r0,r6
        0x000040ac:    0526        &.      LSLS     r6,r4,#20
        0x000040ae:    1980        ..      ADDS     r0,r0,r6
        0x000040b0:    6008        .`      STR      r0,[r1,#0]
        0x000040b2:    6808        .h      LDR      r0,[r1,#0]
        0x000040b4:    042e        ..      LSLS     r6,r5,#16
        0x000040b6:    43b0        .C      BICS     r0,r0,r6
        0x000040b8:    0426        &.      LSLS     r6,r4,#16
        0x000040ba:    1980        ..      ADDS     r0,r0,r6
        0x000040bc:    6008        .`      STR      r0,[r1,#0]
        0x000040be:    6808        .h      LDR      r0,[r1,#0]
        0x000040c0:    4f12        .O      LDR      r7,[pc,#72] ; [0x410c] = 0xffff0fff
        0x000040c2:    4038        8@      ANDS     r0,r0,r7
        0x000040c4:    0326        &.      LSLS     r6,r4,#12
        0x000040c6:    1980        ..      ADDS     r0,r0,r6
        0x000040c8:    6008        .`      STR      r0,[r1,#0]
        0x000040ca:    4911        .I      LDR      r1,[pc,#68] ; [0x4110] = 0x50000040
        0x000040cc:    6808        .h      LDR      r0,[r1,#0]
        0x000040ce:    4038        8@      ANDS     r0,r0,r7
        0x000040d0:    1980        ..      ADDS     r0,r0,r6
        0x000040d2:    6008        .`      STR      r0,[r1,#0]
        0x000040d4:    6808        .h      LDR      r0,[r1,#0]
        0x000040d6:    022d        -.      LSLS     r5,r5,#8
        0x000040d8:    43a8        .C      BICS     r0,r0,r5
        0x000040da:    0224        $.      LSLS     r4,r4,#8
        0x000040dc:    1900        ..      ADDS     r0,r0,r4
        0x000040de:    6008        .`      STR      r0,[r1,#0]
        0x000040e0:    6808        .h      LDR      r0,[r1,#0]
        0x000040e2:    4318        .C      ORRS     r0,r0,r3
        0x000040e4:    4010        .@      ANDS     r0,r0,r2
        0x000040e6:    6008        .`      STR      r0,[r1,#0]
        0x000040e8:    b009        ..      ADD      sp,sp,#0x24
        0x000040ea:    bdf0        ..      POP      {r4-r7,pc}
    $d
    __arm_cp.15_0
        0x000040ec:    50000058    X..P    DCD    1342177368
    __arm_cp.15_1
        0x000040f0:    044aa200    ..J.    DCD    72000000
    __arm_cp.15_2
        0x000040f4:    57803d10    .=.W    DCD    1468022032
    __arm_cp.15_3
        0x000040f8:    57803d11    .=.W    DCD    1468022033
    __arm_cp.15_4
        0x000040fc:    57803d12    .=.W    DCD    1468022034
    __arm_cp.15_5
        0x00004100:    50000080    ...P    DCD    1342177408
    __arm_cp.15_6
        0x00004104:    50000048    H..P    DCD    1342177352
    __arm_cp.15_7
        0x00004108:    50000054    T..P    DCD    1342177364
    __arm_cp.15_8
        0x0000410c:    ffff0fff    ....    DCD    4294905855
    __arm_cp.15_9
        0x00004110:    50000040    @..P    DCD    1342177344
    $t
    SYS_LockReg
        0x00004114:    4938        8I      LDR      r1,[pc,#224] ; [0x41f8] = 0x50000100
        0x00004116:    2000        .       MOVS     r0,#0
        0x00004118:    6008        .`      STR      r0,[r1,#0]
        0x0000411a:    4770        pG      BX       lr
    SYS_ResetModule
        0x0000411c:    b5b0        ..      PUSH     {r4,r5,r7,lr}
        0x0000411e:    b081        ..      SUB      sp,sp,#4
        0x00004120:    9000        ..      STR      r0,[sp,#0]
        0x00004122:    9800        ..      LDR      r0,[sp,#0]
        0x00004124:    4c0a        .L      LDR      r4,[pc,#40] ; [0x4150] = 0xffffff
        0x00004126:    4601        .F      MOV      r1,r0
        0x00004128:    4021        !@      ANDS     r1,r1,r4
        0x0000412a:    2301        .#      MOVS     r3,#1
        0x0000412c:    461d        .F      MOV      r5,r3
        0x0000412e:    408d        .@      LSLS     r5,r5,r1
        0x00004130:    0e01        ..      LSRS     r1,r0,#24
        0x00004132:    4a08        .J      LDR      r2,[pc,#32] ; [0x4154] = 0x50000008
        0x00004134:    5888        .X      LDR      r0,[r1,r2]
        0x00004136:    4328        (C      ORRS     r0,r0,r5
        0x00004138:    5088        .P      STR      r0,[r1,r2]
        0x0000413a:    9800        ..      LDR      r0,[sp,#0]
        0x0000413c:    4601        .F      MOV      r1,r0
        0x0000413e:    4021        !@      ANDS     r1,r1,r4
        0x00004140:    408b        .@      LSLS     r3,r3,r1
        0x00004142:    0e01        ..      LSRS     r1,r0,#24
        0x00004144:    5888        .X      LDR      r0,[r1,r2]
        0x00004146:    4398        .C      BICS     r0,r0,r3
        0x00004148:    5088        .P      STR      r0,[r1,r2]
        0x0000414a:    b001        ..      ADD      sp,sp,#4
        0x0000414c:    bdb0        ..      POP      {r4,r5,r7,pc}
        0x0000414e:    46c0        .F      MOV      r8,r8
    $d
    __arm_cp.7_0
        0x00004150:    00ffffff    ....    DCD    16777215
    __arm_cp.7_1
        0x00004154:    50000008    ...P    DCD    1342177288
    $t
    SYS_UnlockReg
        0x00004158:    b081        ..      SUB      sp,sp,#4
        0x0000415a:    4826        &H      LDR      r0,[pc,#152] ; [0x41f4] = 0x1518000
        0x0000415c:    9000        ..      STR      r0,[sp,#0]
        0x0000415e:    e7ff        ..      B        0x4160 ; SYS_UnlockReg + 8
        0x00004160:    4925        %I      LDR      r1,[pc,#148] ; [0x41f8] = 0x50000100
        0x00004162:    2059        Y       MOVS     r0,#0x59
        0x00004164:    6008        .`      STR      r0,[r1,#0]
        0x00004166:    2016        .       MOVS     r0,#0x16
        0x00004168:    6008        .`      STR      r0,[r1,#0]
        0x0000416a:    2088        .       MOVS     r0,#0x88
        0x0000416c:    6008        .`      STR      r0,[r1,#0]
        0x0000416e:    9800        ..      LDR      r0,[sp,#0]
        0x00004170:    1e40        @.      SUBS     r0,r0,#1
        0x00004172:    9000        ..      STR      r0,[sp,#0]
        0x00004174:    2800        .(      CMP      r0,#0
        0x00004176:    d101        ..      BNE      0x417c ; SYS_UnlockReg + 36
        0x00004178:    e7ff        ..      B        0x417a ; SYS_UnlockReg + 34
        0x0000417a:    e005        ..      B        0x4188 ; SYS_UnlockReg + 48
        0x0000417c:    e7ff        ..      B        0x417e ; SYS_UnlockReg + 38
        0x0000417e:    481e        .H      LDR      r0,[pc,#120] ; [0x41f8] = 0x50000100
        0x00004180:    6800        .h      LDR      r0,[r0,#0]
        0x00004182:    2800        .(      CMP      r0,#0
        0x00004184:    d0ec        ..      BEQ      0x4160 ; SYS_UnlockReg + 8
        0x00004186:    e7ff        ..      B        0x4188 ; SYS_UnlockReg + 48
        0x00004188:    b001        ..      ADD      sp,sp,#4
        0x0000418a:    4770        pG      BX       lr
    SYS_UnlockReg
        0x0000418c:    b081        ..      SUB      sp,sp,#4
        0x0000418e:    4819        .H      LDR      r0,[pc,#100] ; [0x41f4] = 0x1518000
        0x00004190:    9000        ..      STR      r0,[sp,#0]
        0x00004192:    e7ff        ..      B        0x4194 ; SYS_UnlockReg + 8
        0x00004194:    4918        .I      LDR      r1,[pc,#96] ; [0x41f8] = 0x50000100
        0x00004196:    2059        Y       MOVS     r0,#0x59
        0x00004198:    6008        .`      STR      r0,[r1,#0]
        0x0000419a:    2016        .       MOVS     r0,#0x16
        0x0000419c:    6008        .`      STR      r0,[r1,#0]
        0x0000419e:    2088        .       MOVS     r0,#0x88
        0x000041a0:    6008        .`      STR      r0,[r1,#0]
        0x000041a2:    9800        ..      LDR      r0,[sp,#0]
        0x000041a4:    1e40        @.      SUBS     r0,r0,#1
        0x000041a6:    9000        ..      STR      r0,[sp,#0]
        0x000041a8:    2800        .(      CMP      r0,#0
        0x000041aa:    d101        ..      BNE      0x41b0 ; SYS_UnlockReg + 36
        0x000041ac:    e7ff        ..      B        0x41ae ; SYS_UnlockReg + 34
        0x000041ae:    e005        ..      B        0x41bc ; SYS_UnlockReg + 48
        0x000041b0:    e7ff        ..      B        0x41b2 ; SYS_UnlockReg + 38
        0x000041b2:    4811        .H      LDR      r0,[pc,#68] ; [0x41f8] = 0x50000100
        0x000041b4:    6800        .h      LDR      r0,[r0,#0]
        0x000041b6:    2800        .(      CMP      r0,#0
        0x000041b8:    d0ec        ..      BEQ      0x4194 ; SYS_UnlockReg + 8
        0x000041ba:    e7ff        ..      B        0x41bc ; SYS_UnlockReg + 48
        0x000041bc:    b001        ..      ADD      sp,sp,#4
        0x000041be:    4770        pG      BX       lr
    SYS_UnlockReg
        0x000041c0:    b081        ..      SUB      sp,sp,#4
        0x000041c2:    480c        .H      LDR      r0,[pc,#48] ; [0x41f4] = 0x1518000
        0x000041c4:    9000        ..      STR      r0,[sp,#0]
        0x000041c6:    e7ff        ..      B        0x41c8 ; SYS_UnlockReg + 8
        0x000041c8:    490b        .I      LDR      r1,[pc,#44] ; [0x41f8] = 0x50000100
        0x000041ca:    2059        Y       MOVS     r0,#0x59
        0x000041cc:    6008        .`      STR      r0,[r1,#0]
        0x000041ce:    2016        .       MOVS     r0,#0x16
        0x000041d0:    6008        .`      STR      r0,[r1,#0]
        0x000041d2:    2088        .       MOVS     r0,#0x88
        0x000041d4:    6008        .`      STR      r0,[r1,#0]
        0x000041d6:    9800        ..      LDR      r0,[sp,#0]
        0x000041d8:    1e40        @.      SUBS     r0,r0,#1
        0x000041da:    9000        ..      STR      r0,[sp,#0]
        0x000041dc:    2800        .(      CMP      r0,#0
        0x000041de:    d101        ..      BNE      0x41e4 ; SYS_UnlockReg + 36
        0x000041e0:    e7ff        ..      B        0x41e2 ; SYS_UnlockReg + 34
        0x000041e2:    e005        ..      B        0x41f0 ; SYS_UnlockReg + 48
        0x000041e4:    e7ff        ..      B        0x41e6 ; SYS_UnlockReg + 38
        0x000041e6:    4804        .H      LDR      r0,[pc,#16] ; [0x41f8] = 0x50000100
        0x000041e8:    6800        .h      LDR      r0,[r0,#0]
        0x000041ea:    2800        .(      CMP      r0,#0
        0x000041ec:    d0ec        ..      BEQ      0x41c8 ; SYS_UnlockReg + 8
        0x000041ee:    e7ff        ..      B        0x41f0 ; SYS_UnlockReg + 48
        0x000041f0:    b001        ..      ADD      sp,sp,#4
        0x000041f2:    4770        pG      BX       lr
    $d
    __arm_cp.14_0
        0x000041f4:    01518000    ..Q.    DCD    22118400
    __arm_cp.14_1
        0x000041f8:    50000100    ...P    DCD    1342177536
    $t
    SendChar
        0x000041fc:    b580        ..      PUSH     {r7,lr}
        0x000041fe:    b082        ..      SUB      sp,sp,#8
        0x00004200:    9001        ..      STR      r0,[sp,#4]
        0x00004202:    9801        ..      LDR      r0,[sp,#4]
        0x00004204:    f000f802    ....    BL       SendChar_ToUART ; 0x420c
        0x00004208:    b002        ..      ADD      sp,sp,#8
        0x0000420a:    bd80        ..      POP      {r7,pc}
    SendChar_ToUART
        0x0000420c:    b081        ..      SUB      sp,sp,#4
        0x0000420e:    9000        ..      STR      r0,[sp,#0]
        0x00004210:    4668        hF      MOV      r0,sp
        0x00004212:    7800        .x      LDRB     r0,[r0,#0]
        0x00004214:    280a        .(      CMP      r0,#0xa
        0x00004216:    d10c        ..      BNE      0x4232 ; SendChar_ToUART + 38
        0x00004218:    e7ff        ..      B        0x421a ; SendChar_ToUART + 14
        0x0000421a:    e7ff        ..      B        0x421c ; SendChar_ToUART + 16
        0x0000421c:    480b        .H      LDR      r0,[pc,#44] ; [0x424c] = 0x40050018
        0x0000421e:    6800        .h      LDR      r0,[r0,#0]
        0x00004220:    0200        ..      LSLS     r0,r0,#8
        0x00004222:    2800        .(      CMP      r0,#0
        0x00004224:    d501        ..      BPL      0x422a ; SendChar_ToUART + 30
        0x00004226:    e7ff        ..      B        0x4228 ; SendChar_ToUART + 28
        0x00004228:    e7f8        ..      B        0x421c ; SendChar_ToUART + 16
        0x0000422a:    4909        .I      LDR      r1,[pc,#36] ; [0x4250] = 0x40050000
        0x0000422c:    200d        .       MOVS     r0,#0xd
        0x0000422e:    6008        .`      STR      r0,[r1,#0]
        0x00004230:    e7ff        ..      B        0x4232 ; SendChar_ToUART + 38
        0x00004232:    e7ff        ..      B        0x4234 ; SendChar_ToUART + 40
        0x00004234:    4805        .H      LDR      r0,[pc,#20] ; [0x424c] = 0x40050018
        0x00004236:    6800        .h      LDR      r0,[r0,#0]
        0x00004238:    0200        ..      LSLS     r0,r0,#8
        0x0000423a:    2800        .(      CMP      r0,#0
        0x0000423c:    d501        ..      BPL      0x4242 ; SendChar_ToUART + 54
        0x0000423e:    e7ff        ..      B        0x4240 ; SendChar_ToUART + 52
        0x00004240:    e7f8        ..      B        0x4234 ; SendChar_ToUART + 40
        0x00004242:    9800        ..      LDR      r0,[sp,#0]
        0x00004244:    4902        .I      LDR      r1,[pc,#8] ; [0x4250] = 0x40050000
        0x00004246:    6008        .`      STR      r0,[r1,#0]
        0x00004248:    b001        ..      ADD      sp,sp,#4
        0x0000424a:    4770        pG      BX       lr
    $d
    __arm_cp.2_0
        0x0000424c:    40050018    ...@    DCD    1074069528
    __arm_cp.2_1
        0x00004250:    40050000    ...@    DCD    1074069504
    $t
    SendHost_Ack
        0x00004254:    b5b0        ..      PUSH     {r4,r5,r7,lr}
        0x00004256:    b082        ..      SUB      sp,sp,#8
        0x00004258:    49dd        .I      LDR      r1,[pc,#884] ; [0x45d0] = 0x20000106
        0x0000425a:    2030        0       MOVS     r0,#0x30
        0x0000425c:    7088        .p      STRB     r0,[r1,#2]
        0x0000425e:    48dd        .H      LDR      r0,[pc,#884] ; [0x45d4] = 0x200010c7
        0x00004260:    7800        .x      LDRB     r0,[r0,#0]
        0x00004262:    70c8        .p      STRB     r0,[r1,#3]
        0x00004264:    480f        .H      LDR      r0,[pc,#60] ; [0x42a4] = 0x200010c8
        0x00004266:    7800        .x      LDRB     r0,[r0,#0]
        0x00004268:    7108        .q      STRB     r0,[r1,#4]
        0x0000426a:    ac01        ..      ADD      r4,sp,#4
        0x0000426c:    2005        .       MOVS     r0,#5
        0x0000426e:    7020         p      STRB     r0,[r4,#0]
        0x00004270:    480d        .H      LDR      r0,[pc,#52] ; [0x42a8] = 0x20000d50
        0x00004272:    78c2        .x      LDRB     r2,[r0,#3]
        0x00004274:    7823        #x      LDRB     r3,[r4,#0]
        0x00004276:    1c5d        ].      ADDS     r5,r3,#1
        0x00004278:    7025        %p      STRB     r5,[r4,#0]
        0x0000427a:    54ca        .T      STRB     r2,[r1,r3]
        0x0000427c:    8842        B.      LDRH     r2,[r0,#2]
        0x0000427e:    7823        #x      LDRB     r3,[r4,#0]
        0x00004280:    1c5d        ].      ADDS     r5,r3,#1
        0x00004282:    7025        %p      STRB     r5,[r4,#0]
        0x00004284:    54ca        .T      STRB     r2,[r1,r3]
        0x00004286:    6802        .h      LDR      r2,[r0,#0]
        0x00004288:    0a12        ..      LSRS     r2,r2,#8
        0x0000428a:    7823        #x      LDRB     r3,[r4,#0]
        0x0000428c:    1c5d        ].      ADDS     r5,r3,#1
        0x0000428e:    7025        %p      STRB     r5,[r4,#0]
        0x00004290:    54ca        .T      STRB     r2,[r1,r3]
        0x00004292:    6800        .h      LDR      r0,[r0,#0]
        0x00004294:    7822        "x      LDRB     r2,[r4,#0]
        0x00004296:    1c53        S.      ADDS     r3,r2,#1
        0x00004298:    7023        #p      STRB     r3,[r4,#0]
        0x0000429a:    5488        .T      STRB     r0,[r1,r2]
        0x0000429c:    f7fdfb1e    ....    BL       CalChecksumH ; 0x18dc
        0x000042a0:    b002        ..      ADD      sp,sp,#8
        0x000042a2:    bdb0        ..      POP      {r4,r5,r7,pc}
    $d
    __arm_cp.7_2
        0x000042a4:    200010c8    ...     DCD    536875208
    __arm_cp.7_3
        0x000042a8:    20000d50    P..     DCD    536874320
    $t
    SendHost_MenterFWActivatedInfo
        0x000042ac:    b580        ..      PUSH     {r7,lr}
        0x000042ae:    49c8        .I      LDR      r1,[pc,#800] ; [0x45d0] = 0x20000106
        0x000042b0:    200a        .       MOVS     r0,#0xa
        0x000042b2:    7108        .q      STRB     r0,[r1,#4]
        0x000042b4:    20bb        .       MOVS     r0,#0xbb
        0x000042b6:    7148        Hq      STRB     r0,[r1,#5]
        0x000042b8:    20c0        .       MOVS     r0,#0xc0
        0x000042ba:    7188        .q      STRB     r0,[r1,#6]
        0x000042bc:    20dd        .       MOVS     r0,#0xdd
        0x000042be:    71c8        .q      STRB     r0,[r1,#7]
        0x000042c0:    f7fdfb0c    ....    BL       CalChecksumH ; 0x18dc
        0x000042c4:    bd80        ..      POP      {r7,pc}
        0x000042c6:    46c0        .F      MOV      r8,r8
    SendHost_MenterFWinfo
        0x000042c8:    b580        ..      PUSH     {r7,lr}
        0x000042ca:    b084        ..      SUB      sp,sp,#0x10
        0x000042cc:    48fc        .H      LDR      r0,[pc,#1008] ; [0x46c0] = 0x20000106
        0x000042ce:    9002        ..      STR      r0,[sp,#8]
        0x000042d0:    2117        .!      MOVS     r1,#0x17
        0x000042d2:    7081        .p      STRB     r1,[r0,#2]
        0x000042d4:    1d00        ..      ADDS     r0,r0,#4
        0x000042d6:    490a        .I      LDR      r1,[pc,#40] ; [0x4300] = 0x200010d0
        0x000042d8:    2210        ."      MOVS     r2,#0x10
        0x000042da:    f7fbff19    ....    BL       __aeabi_memcpy ; 0x110
        0x000042de:    9802        ..      LDR      r0,[sp,#8]
        0x000042e0:    3014        .0      ADDS     r0,r0,#0x14
        0x000042e2:    4908        .I      LDR      r1,[pc,#32] ; [0x4304] = 0x200010f0
        0x000042e4:    2220         "      MOVS     r2,#0x20
        0x000042e6:    9201        ..      STR      r2,[sp,#4]
        0x000042e8:    f7fbff12    ....    BL       __aeabi_memcpy ; 0x110
        0x000042ec:    9a01        ..      LDR      r2,[sp,#4]
        0x000042ee:    9802        ..      LDR      r0,[sp,#8]
        0x000042f0:    3034        40      ADDS     r0,r0,#0x34
        0x000042f2:    4905        .I      LDR      r1,[pc,#20] ; [0x4308] = 0x20001110
        0x000042f4:    f7fbff0c    ....    BL       __aeabi_memcpy ; 0x110
        0x000042f8:    f7fdfaf0    ....    BL       CalChecksumH ; 0x18dc
        0x000042fc:    b004        ..      ADD      sp,sp,#0x10
        0x000042fe:    bd80        ..      POP      {r7,pc}
    $d
    __arm_cp.10_1
        0x00004300:    200010d0    ...     DCD    536875216
    __arm_cp.10_2
        0x00004304:    200010f0    ...     DCD    536875248
    __arm_cp.10_3
        0x00004308:    20001110    ...     DCD    536875280
    $t
    SendHost_PowerData
        0x0000430c:    b5f0        ..      PUSH     {r4-r7,lr}
        0x0000430e:    b083        ..      SUB      sp,sp,#0xc
        0x00004310:    48ae        .H      LDR      r0,[pc,#696] ; [0x45cc] = 0x20000105
        0x00004312:    7800        .x      LDRB     r0,[r0,#0]
        0x00004314:    1e40        @.      SUBS     r0,r0,#1
        0x00004316:    ab01        ..      ADD      r3,sp,#4
        0x00004318:    7018        .p      STRB     r0,[r3,#0]
        0x0000431a:    49e9        .I      LDR      r1,[pc,#932] ; [0x46c0] = 0x20000106
        0x0000431c:    2033        3       MOVS     r0,#0x33
        0x0000431e:    7088        .p      STRB     r0,[r1,#2]
        0x00004320:    48e8        .H      LDR      r0,[pc,#928] ; [0x46c4] = 0x200010c7
        0x00004322:    7800        .x      LDRB     r0,[r0,#0]
        0x00004324:    70c8        .p      STRB     r0,[r1,#3]
        0x00004326:    9801        ..      LDR      r0,[sp,#4]
        0x00004328:    7108        .q      STRB     r0,[r1,#4]
        0x0000432a:    ac02        ..      ADD      r4,sp,#8
        0x0000432c:    2005        .       MOVS     r0,#5
        0x0000432e:    7020         p      STRB     r0,[r4,#0]
        0x00004330:    7818        .x      LDRB     r0,[r3,#0]
        0x00004332:    2224        $"      MOVS     r2,#0x24
        0x00004334:    4615        .F      MOV      r5,r2
        0x00004336:    4345        EC      MULS     r5,r0,r5
        0x00004338:    48a7        .H      LDR      r0,[pc,#668] ; [0x45d8] = 0x2000023c
        0x0000433a:    1945        E.      ADDS     r5,r0,r5
        0x0000433c:    786d        mx      LDRB     r5,[r5,#1]
        0x0000433e:    7826        &x      LDRB     r6,[r4,#0]
        0x00004340:    1c77        w.      ADDS     r7,r6,#1
        0x00004342:    7027        'p      STRB     r7,[r4,#0]
        0x00004344:    558d        .U      STRB     r5,[r1,r6]
        0x00004346:    781e        .x      LDRB     r6,[r3,#0]
        0x00004348:    4da4        .M      LDR      r5,[pc,#656] ; [0x45dc] = 0x20000698
        0x0000434a:    5dad        .]      LDRB     r5,[r5,r6]
        0x0000434c:    7826        &x      LDRB     r6,[r4,#0]
        0x0000434e:    1c77        w.      ADDS     r7,r6,#1
        0x00004350:    7027        'p      STRB     r7,[r4,#0]
        0x00004352:    558d        .U      STRB     r5,[r1,r6]
        0x00004354:    781e        .x      LDRB     r6,[r3,#0]
        0x00004356:    4615        .F      MOV      r5,r2
        0x00004358:    4375        uC      MULS     r5,r6,r5
        0x0000435a:    5d45        E]      LDRB     r5,[r0,r5]
        0x0000435c:    7826        &x      LDRB     r6,[r4,#0]
        0x0000435e:    1c77        w.      ADDS     r7,r6,#1
        0x00004360:    7027        'p      STRB     r7,[r4,#0]
        0x00004362:    558d        .U      STRB     r5,[r1,r6]
        0x00004364:    781e        .x      LDRB     r6,[r3,#0]
        0x00004366:    4615        .F      MOV      r5,r2
        0x00004368:    4375        uC      MULS     r5,r6,r5
        0x0000436a:    1945        E.      ADDS     r5,r0,r5
        0x0000436c:    78ad        .x      LDRB     r5,[r5,#2]
        0x0000436e:    7826        &x      LDRB     r6,[r4,#0]
        0x00004370:    1c77        w.      ADDS     r7,r6,#1
        0x00004372:    7027        'p      STRB     r7,[r4,#0]
        0x00004374:    558d        .U      STRB     r5,[r1,r6]
        0x00004376:    781e        .x      LDRB     r6,[r3,#0]
        0x00004378:    4615        .F      MOV      r5,r2
        0x0000437a:    4375        uC      MULS     r5,r6,r5
        0x0000437c:    1945        E.      ADDS     r5,r0,r5
        0x0000437e:    79ed        .y      LDRB     r5,[r5,#7]
        0x00004380:    7826        &x      LDRB     r6,[r4,#0]
        0x00004382:    1c77        w.      ADDS     r7,r6,#1
        0x00004384:    7027        'p      STRB     r7,[r4,#0]
        0x00004386:    558d        .U      STRB     r5,[r1,r6]
        0x00004388:    781e        .x      LDRB     r6,[r3,#0]
        0x0000438a:    4615        .F      MOV      r5,r2
        0x0000438c:    4375        uC      MULS     r5,r6,r5
        0x0000438e:    1945        E.      ADDS     r5,r0,r5
        0x00004390:    88ed        ..      LDRH     r5,[r5,#6]
        0x00004392:    7826        &x      LDRB     r6,[r4,#0]
        0x00004394:    1c77        w.      ADDS     r7,r6,#1
        0x00004396:    7027        'p      STRB     r7,[r4,#0]
        0x00004398:    558d        .U      STRB     r5,[r1,r6]
        0x0000439a:    781e        .x      LDRB     r6,[r3,#0]
        0x0000439c:    4615        .F      MOV      r5,r2
        0x0000439e:    4375        uC      MULS     r5,r6,r5
        0x000043a0:    1945        E.      ADDS     r5,r0,r5
        0x000043a2:    686d        mh      LDR      r5,[r5,#4]
        0x000043a4:    0a2d        -.      LSRS     r5,r5,#8
        0x000043a6:    7826        &x      LDRB     r6,[r4,#0]
        0x000043a8:    1c77        w.      ADDS     r7,r6,#1
        0x000043aa:    7027        'p      STRB     r7,[r4,#0]
        0x000043ac:    558d        .U      STRB     r5,[r1,r6]
        0x000043ae:    781e        .x      LDRB     r6,[r3,#0]
        0x000043b0:    4615        .F      MOV      r5,r2
        0x000043b2:    4375        uC      MULS     r5,r6,r5
        0x000043b4:    1945        E.      ADDS     r5,r0,r5
        0x000043b6:    686d        mh      LDR      r5,[r5,#4]
        0x000043b8:    7826        &x      LDRB     r6,[r4,#0]
        0x000043ba:    1c77        w.      ADDS     r7,r6,#1
        0x000043bc:    7027        'p      STRB     r7,[r4,#0]
        0x000043be:    558d        .U      STRB     r5,[r1,r6]
        0x000043c0:    781e        .x      LDRB     r6,[r3,#0]
        0x000043c2:    4615        .F      MOV      r5,r2
        0x000043c4:    4375        uC      MULS     r5,r6,r5
        0x000043c6:    1945        E.      ADDS     r5,r0,r5
        0x000043c8:    7aed        .z      LDRB     r5,[r5,#0xb]
        0x000043ca:    7826        &x      LDRB     r6,[r4,#0]
        0x000043cc:    1c77        w.      ADDS     r7,r6,#1
        0x000043ce:    7027        'p      STRB     r7,[r4,#0]
        0x000043d0:    558d        .U      STRB     r5,[r1,r6]
        0x000043d2:    781e        .x      LDRB     r6,[r3,#0]
        0x000043d4:    4615        .F      MOV      r5,r2
        0x000043d6:    4375        uC      MULS     r5,r6,r5
        0x000043d8:    1945        E.      ADDS     r5,r0,r5
        0x000043da:    896d        m.      LDRH     r5,[r5,#0xa]
        0x000043dc:    7826        &x      LDRB     r6,[r4,#0]
        0x000043de:    1c77        w.      ADDS     r7,r6,#1
        0x000043e0:    7027        'p      STRB     r7,[r4,#0]
        0x000043e2:    558d        .U      STRB     r5,[r1,r6]
        0x000043e4:    781e        .x      LDRB     r6,[r3,#0]
        0x000043e6:    4615        .F      MOV      r5,r2
        0x000043e8:    4375        uC      MULS     r5,r6,r5
        0x000043ea:    1945        E.      ADDS     r5,r0,r5
        0x000043ec:    68ad        .h      LDR      r5,[r5,#8]
        0x000043ee:    0a2d        -.      LSRS     r5,r5,#8
        0x000043f0:    7826        &x      LDRB     r6,[r4,#0]
        0x000043f2:    1c77        w.      ADDS     r7,r6,#1
        0x000043f4:    7027        'p      STRB     r7,[r4,#0]
        0x000043f6:    558d        .U      STRB     r5,[r1,r6]
        0x000043f8:    781e        .x      LDRB     r6,[r3,#0]
        0x000043fa:    4615        .F      MOV      r5,r2
        0x000043fc:    4375        uC      MULS     r5,r6,r5
        0x000043fe:    1945        E.      ADDS     r5,r0,r5
        0x00004400:    68ad        .h      LDR      r5,[r5,#8]
        0x00004402:    7826        &x      LDRB     r6,[r4,#0]
        0x00004404:    1c77        w.      ADDS     r7,r6,#1
        0x00004406:    7027        'p      STRB     r7,[r4,#0]
        0x00004408:    558d        .U      STRB     r5,[r1,r6]
        0x0000440a:    781e        .x      LDRB     r6,[r3,#0]
        0x0000440c:    4615        .F      MOV      r5,r2
        0x0000440e:    4375        uC      MULS     r5,r6,r5
        0x00004410:    1945        E.      ADDS     r5,r0,r5
        0x00004412:    7bed        .{      LDRB     r5,[r5,#0xf]
        0x00004414:    7826        &x      LDRB     r6,[r4,#0]
        0x00004416:    1c77        w.      ADDS     r7,r6,#1
        0x00004418:    7027        'p      STRB     r7,[r4,#0]
        0x0000441a:    558d        .U      STRB     r5,[r1,r6]
        0x0000441c:    781e        .x      LDRB     r6,[r3,#0]
        0x0000441e:    4615        .F      MOV      r5,r2
        0x00004420:    4375        uC      MULS     r5,r6,r5
        0x00004422:    1945        E.      ADDS     r5,r0,r5
        0x00004424:    89ed        ..      LDRH     r5,[r5,#0xe]
        0x00004426:    7826        &x      LDRB     r6,[r4,#0]
        0x00004428:    1c77        w.      ADDS     r7,r6,#1
        0x0000442a:    7027        'p      STRB     r7,[r4,#0]
        0x0000442c:    558d        .U      STRB     r5,[r1,r6]
        0x0000442e:    781e        .x      LDRB     r6,[r3,#0]
        0x00004430:    4615        .F      MOV      r5,r2
        0x00004432:    4375        uC      MULS     r5,r6,r5
        0x00004434:    1945        E.      ADDS     r5,r0,r5
        0x00004436:    68ed        .h      LDR      r5,[r5,#0xc]
        0x00004438:    0a2d        -.      LSRS     r5,r5,#8
        0x0000443a:    7826        &x      LDRB     r6,[r4,#0]
        0x0000443c:    1c77        w.      ADDS     r7,r6,#1
        0x0000443e:    7027        'p      STRB     r7,[r4,#0]
        0x00004440:    558d        .U      STRB     r5,[r1,r6]
        0x00004442:    781e        .x      LDRB     r6,[r3,#0]
        0x00004444:    4615        .F      MOV      r5,r2
        0x00004446:    4375        uC      MULS     r5,r6,r5
        0x00004448:    1945        E.      ADDS     r5,r0,r5
        0x0000444a:    68ed        .h      LDR      r5,[r5,#0xc]
        0x0000444c:    7826        &x      LDRB     r6,[r4,#0]
        0x0000444e:    1c77        w.      ADDS     r7,r6,#1
        0x00004450:    7027        'p      STRB     r7,[r4,#0]
        0x00004452:    558d        .U      STRB     r5,[r1,r6]
        0x00004454:    781e        .x      LDRB     r6,[r3,#0]
        0x00004456:    4615        .F      MOV      r5,r2
        0x00004458:    4375        uC      MULS     r5,r6,r5
        0x0000445a:    1945        E.      ADDS     r5,r0,r5
        0x0000445c:    7e6d        m~      LDRB     r5,[r5,#0x19]
        0x0000445e:    7826        &x      LDRB     r6,[r4,#0]
        0x00004460:    1c77        w.      ADDS     r7,r6,#1
        0x00004462:    7027        'p      STRB     r7,[r4,#0]
        0x00004464:    558d        .U      STRB     r5,[r1,r6]
        0x00004466:    781e        .x      LDRB     r6,[r3,#0]
        0x00004468:    4615        .F      MOV      r5,r2
        0x0000446a:    4375        uC      MULS     r5,r6,r5
        0x0000446c:    1945        E.      ADDS     r5,r0,r5
        0x0000446e:    8b2d        -.      LDRH     r5,[r5,#0x18]
        0x00004470:    7826        &x      LDRB     r6,[r4,#0]
        0x00004472:    1c77        w.      ADDS     r7,r6,#1
        0x00004474:    7027        'p      STRB     r7,[r4,#0]
        0x00004476:    558d        .U      STRB     r5,[r1,r6]
        0x00004478:    781e        .x      LDRB     r6,[r3,#0]
        0x0000447a:    4615        .F      MOV      r5,r2
        0x0000447c:    4375        uC      MULS     r5,r6,r5
        0x0000447e:    1945        E.      ADDS     r5,r0,r5
        0x00004480:    7eed        .~      LDRB     r5,[r5,#0x1b]
        0x00004482:    7826        &x      LDRB     r6,[r4,#0]
        0x00004484:    1c77        w.      ADDS     r7,r6,#1
        0x00004486:    7027        'p      STRB     r7,[r4,#0]
        0x00004488:    558d        .U      STRB     r5,[r1,r6]
        0x0000448a:    781e        .x      LDRB     r6,[r3,#0]
        0x0000448c:    4615        .F      MOV      r5,r2
        0x0000448e:    4375        uC      MULS     r5,r6,r5
        0x00004490:    1945        E.      ADDS     r5,r0,r5
        0x00004492:    8b6d        m.      LDRH     r5,[r5,#0x1a]
        0x00004494:    7826        &x      LDRB     r6,[r4,#0]
        0x00004496:    1c77        w.      ADDS     r7,r6,#1
        0x00004498:    7027        'p      STRB     r7,[r4,#0]
        0x0000449a:    558d        .U      STRB     r5,[r1,r6]
        0x0000449c:    781e        .x      LDRB     r6,[r3,#0]
        0x0000449e:    4615        .F      MOV      r5,r2
        0x000044a0:    4375        uC      MULS     r5,r6,r5
        0x000044a2:    1945        E.      ADDS     r5,r0,r5
        0x000044a4:    7ded        .}      LDRB     r5,[r5,#0x17]
        0x000044a6:    7826        &x      LDRB     r6,[r4,#0]
        0x000044a8:    1c77        w.      ADDS     r7,r6,#1
        0x000044aa:    7027        'p      STRB     r7,[r4,#0]
        0x000044ac:    558d        .U      STRB     r5,[r1,r6]
        0x000044ae:    781e        .x      LDRB     r6,[r3,#0]
        0x000044b0:    4615        .F      MOV      r5,r2
        0x000044b2:    4375        uC      MULS     r5,r6,r5
        0x000044b4:    1945        E.      ADDS     r5,r0,r5
        0x000044b6:    8aed        ..      LDRH     r5,[r5,#0x16]
        0x000044b8:    7826        &x      LDRB     r6,[r4,#0]
        0x000044ba:    1c77        w.      ADDS     r7,r6,#1
        0x000044bc:    7027        'p      STRB     r7,[r4,#0]
        0x000044be:    558d        .U      STRB     r5,[r1,r6]
        0x000044c0:    781e        .x      LDRB     r6,[r3,#0]
        0x000044c2:    4615        .F      MOV      r5,r2
        0x000044c4:    4375        uC      MULS     r5,r6,r5
        0x000044c6:    1945        E.      ADDS     r5,r0,r5
        0x000044c8:    696d        mi      LDR      r5,[r5,#0x14]
        0x000044ca:    0a2d        -.      LSRS     r5,r5,#8
        0x000044cc:    7826        &x      LDRB     r6,[r4,#0]
        0x000044ce:    1c77        w.      ADDS     r7,r6,#1
        0x000044d0:    7027        'p      STRB     r7,[r4,#0]
        0x000044d2:    558d        .U      STRB     r5,[r1,r6]
        0x000044d4:    781e        .x      LDRB     r6,[r3,#0]
        0x000044d6:    4615        .F      MOV      r5,r2
        0x000044d8:    4375        uC      MULS     r5,r6,r5
        0x000044da:    1945        E.      ADDS     r5,r0,r5
        0x000044dc:    696d        mi      LDR      r5,[r5,#0x14]
        0x000044de:    7826        &x      LDRB     r6,[r4,#0]
        0x000044e0:    1c77        w.      ADDS     r7,r6,#1
        0x000044e2:    7027        'p      STRB     r7,[r4,#0]
        0x000044e4:    558d        .U      STRB     r5,[r1,r6]
        0x000044e6:    781e        .x      LDRB     r6,[r3,#0]
        0x000044e8:    4615        .F      MOV      r5,r2
        0x000044ea:    4375        uC      MULS     r5,r6,r5
        0x000044ec:    1945        E.      ADDS     r5,r0,r5
        0x000044ee:    7ced        .|      LDRB     r5,[r5,#0x13]
        0x000044f0:    7826        &x      LDRB     r6,[r4,#0]
        0x000044f2:    1c77        w.      ADDS     r7,r6,#1
        0x000044f4:    7027        'p      STRB     r7,[r4,#0]
        0x000044f6:    558d        .U      STRB     r5,[r1,r6]
        0x000044f8:    781e        .x      LDRB     r6,[r3,#0]
        0x000044fa:    4615        .F      MOV      r5,r2
        0x000044fc:    4375        uC      MULS     r5,r6,r5
        0x000044fe:    1945        E.      ADDS     r5,r0,r5
        0x00004500:    8a6d        m.      LDRH     r5,[r5,#0x12]
        0x00004502:    7826        &x      LDRB     r6,[r4,#0]
        0x00004504:    1c77        w.      ADDS     r7,r6,#1
        0x00004506:    7027        'p      STRB     r7,[r4,#0]
        0x00004508:    558d        .U      STRB     r5,[r1,r6]
        0x0000450a:    781e        .x      LDRB     r6,[r3,#0]
        0x0000450c:    4615        .F      MOV      r5,r2
        0x0000450e:    4375        uC      MULS     r5,r6,r5
        0x00004510:    1945        E.      ADDS     r5,r0,r5
        0x00004512:    692d        -i      LDR      r5,[r5,#0x10]
        0x00004514:    0a2d        -.      LSRS     r5,r5,#8
        0x00004516:    7826        &x      LDRB     r6,[r4,#0]
        0x00004518:    1c77        w.      ADDS     r7,r6,#1
        0x0000451a:    7027        'p      STRB     r7,[r4,#0]
        0x0000451c:    558d        .U      STRB     r5,[r1,r6]
        0x0000451e:    781e        .x      LDRB     r6,[r3,#0]
        0x00004520:    4615        .F      MOV      r5,r2
        0x00004522:    4375        uC      MULS     r5,r6,r5
        0x00004524:    1945        E.      ADDS     r5,r0,r5
        0x00004526:    692d        -i      LDR      r5,[r5,#0x10]
        0x00004528:    7826        &x      LDRB     r6,[r4,#0]
        0x0000452a:    1c77        w.      ADDS     r7,r6,#1
        0x0000452c:    7027        'p      STRB     r7,[r4,#0]
        0x0000452e:    558d        .U      STRB     r5,[r1,r6]
        0x00004530:    781e        .x      LDRB     r6,[r3,#0]
        0x00004532:    4615        .F      MOV      r5,r2
        0x00004534:    4375        uC      MULS     r5,r6,r5
        0x00004536:    1945        E.      ADDS     r5,r0,r5
        0x00004538:    7fed        ..      LDRB     r5,[r5,#0x1f]
        0x0000453a:    7826        &x      LDRB     r6,[r4,#0]
        0x0000453c:    1c77        w.      ADDS     r7,r6,#1
        0x0000453e:    7027        'p      STRB     r7,[r4,#0]
        0x00004540:    558d        .U      STRB     r5,[r1,r6]
        0x00004542:    781e        .x      LDRB     r6,[r3,#0]
        0x00004544:    4615        .F      MOV      r5,r2
        0x00004546:    4375        uC      MULS     r5,r6,r5
        0x00004548:    1945        E.      ADDS     r5,r0,r5
        0x0000454a:    8bed        ..      LDRH     r5,[r5,#0x1e]
        0x0000454c:    7826        &x      LDRB     r6,[r4,#0]
        0x0000454e:    1c77        w.      ADDS     r7,r6,#1
        0x00004550:    7027        'p      STRB     r7,[r4,#0]
        0x00004552:    558d        .U      STRB     r5,[r1,r6]
        0x00004554:    781e        .x      LDRB     r6,[r3,#0]
        0x00004556:    4615        .F      MOV      r5,r2
        0x00004558:    4375        uC      MULS     r5,r6,r5
        0x0000455a:    1945        E.      ADDS     r5,r0,r5
        0x0000455c:    69ed        .i      LDR      r5,[r5,#0x1c]
        0x0000455e:    0a2d        -.      LSRS     r5,r5,#8
        0x00004560:    7826        &x      LDRB     r6,[r4,#0]
        0x00004562:    1c77        w.      ADDS     r7,r6,#1
        0x00004564:    7027        'p      STRB     r7,[r4,#0]
        0x00004566:    558d        .U      STRB     r5,[r1,r6]
        0x00004568:    781e        .x      LDRB     r6,[r3,#0]
        0x0000456a:    4615        .F      MOV      r5,r2
        0x0000456c:    4375        uC      MULS     r5,r6,r5
        0x0000456e:    1945        E.      ADDS     r5,r0,r5
        0x00004570:    69ed        .i      LDR      r5,[r5,#0x1c]
        0x00004572:    7826        &x      LDRB     r6,[r4,#0]
        0x00004574:    1c77        w.      ADDS     r7,r6,#1
        0x00004576:    7027        'p      STRB     r7,[r4,#0]
        0x00004578:    558d        .U      STRB     r5,[r1,r6]
        0x0000457a:    781e        .x      LDRB     r6,[r3,#0]
        0x0000457c:    4615        .F      MOV      r5,r2
        0x0000457e:    4375        uC      MULS     r5,r6,r5
        0x00004580:    1945        E.      ADDS     r5,r0,r5
        0x00004582:    2623        #&      MOVS     r6,#0x23
        0x00004584:    5dad        .]      LDRB     r5,[r5,r6]
        0x00004586:    7826        &x      LDRB     r6,[r4,#0]
        0x00004588:    1c77        w.      ADDS     r7,r6,#1
        0x0000458a:    7027        'p      STRB     r7,[r4,#0]
        0x0000458c:    558d        .U      STRB     r5,[r1,r6]
        0x0000458e:    781e        .x      LDRB     r6,[r3,#0]
        0x00004590:    4615        .F      MOV      r5,r2
        0x00004592:    4375        uC      MULS     r5,r6,r5
        0x00004594:    1945        E.      ADDS     r5,r0,r5
        0x00004596:    8c6d        m.      LDRH     r5,[r5,#0x22]
        0x00004598:    7826        &x      LDRB     r6,[r4,#0]
        0x0000459a:    1c77        w.      ADDS     r7,r6,#1
        0x0000459c:    7027        'p      STRB     r7,[r4,#0]
        0x0000459e:    558d        .U      STRB     r5,[r1,r6]
        0x000045a0:    781e        .x      LDRB     r6,[r3,#0]
        0x000045a2:    4615        .F      MOV      r5,r2
        0x000045a4:    4375        uC      MULS     r5,r6,r5
        0x000045a6:    1945        E.      ADDS     r5,r0,r5
        0x000045a8:    6a2d        -j      LDR      r5,[r5,#0x20]
        0x000045aa:    0a2d        -.      LSRS     r5,r5,#8
        0x000045ac:    7826        &x      LDRB     r6,[r4,#0]
        0x000045ae:    1c77        w.      ADDS     r7,r6,#1
        0x000045b0:    7027        'p      STRB     r7,[r4,#0]
        0x000045b2:    558d        .U      STRB     r5,[r1,r6]
        0x000045b4:    781b        .x      LDRB     r3,[r3,#0]
        0x000045b6:    435a        ZC      MULS     r2,r3,r2
        0x000045b8:    1880        ..      ADDS     r0,r0,r2
        0x000045ba:    6a00        .j      LDR      r0,[r0,#0x20]
        0x000045bc:    7822        "x      LDRB     r2,[r4,#0]
        0x000045be:    1c53        S.      ADDS     r3,r2,#1
        0x000045c0:    7023        #p      STRB     r3,[r4,#0]
        0x000045c2:    5488        .T      STRB     r0,[r1,r2]
        0x000045c4:    f7fdf98a    ....    BL       CalChecksumH ; 0x18dc
        0x000045c8:    b003        ..      ADD      sp,sp,#0xc
        0x000045ca:    bdf0        ..      POP      {r4-r7,pc}
    $d
    __arm_cp.8_0
        0x000045cc:    20000105    ...     DCD    536871173
    __arm_cp.8_1
        0x000045d0:    20000106    ...     DCD    536871174
    __arm_cp.8_2
        0x000045d4:    200010c7    ...     DCD    536875207
    __arm_cp.8_3
        0x000045d8:    2000023c    <..     DCD    536871484
    __arm_cp.8_4
        0x000045dc:    20000698    ...     DCD    536872600
    $t
    SendHost_SystemInformation
        0x000045e0:    b570        p.      PUSH     {r4-r6,lr}
        0x000045e2:    b082        ..      SUB      sp,sp,#8
        0x000045e4:    4835        5H      LDR      r0,[pc,#212] ; [0x46bc] = 0x20000d48
        0x000045e6:    7800        .x      LDRB     r0,[r0,#0]
        0x000045e8:    1e40        @.      SUBS     r0,r0,#1
        0x000045ea:    466a        jF      MOV      r2,sp
        0x000045ec:    7010        .p      STRB     r0,[r2,#0]
        0x000045ee:    4934        4I      LDR      r1,[pc,#208] ; [0x46c0] = 0x20000106
        0x000045f0:    2031        1       MOVS     r0,#0x31
        0x000045f2:    7088        .p      STRB     r0,[r1,#2]
        0x000045f4:    4833        3H      LDR      r0,[pc,#204] ; [0x46c4] = 0x200010c7
        0x000045f6:    7800        .x      LDRB     r0,[r0,#0]
        0x000045f8:    70c8        .p      STRB     r0,[r1,#3]
        0x000045fa:    4833        3H      LDR      r0,[pc,#204] ; [0x46c8] = 0x200010c8
        0x000045fc:    7800        .x      LDRB     r0,[r0,#0]
        0x000045fe:    7108        .q      STRB     r0,[r1,#4]
        0x00004600:    ac01        ..      ADD      r4,sp,#4
        0x00004602:    2005        .       MOVS     r0,#5
        0x00004604:    7020         p      STRB     r0,[r4,#0]
        0x00004606:    4831        1H      LDR      r0,[pc,#196] ; [0x46cc] = 0x20000d50
        0x00004608:    78c3        .x      LDRB     r3,[r0,#3]
        0x0000460a:    7825        %x      LDRB     r5,[r4,#0]
        0x0000460c:    1c6e        n.      ADDS     r6,r5,#1
        0x0000460e:    7026        &p      STRB     r6,[r4,#0]
        0x00004610:    554b        KU      STRB     r3,[r1,r5]
        0x00004612:    8843        C.      LDRH     r3,[r0,#2]
        0x00004614:    7825        %x      LDRB     r5,[r4,#0]
        0x00004616:    1c6e        n.      ADDS     r6,r5,#1
        0x00004618:    7026        &p      STRB     r6,[r4,#0]
        0x0000461a:    554b        KU      STRB     r3,[r1,r5]
        0x0000461c:    6803        .h      LDR      r3,[r0,#0]
        0x0000461e:    0a1b        ..      LSRS     r3,r3,#8
        0x00004620:    7825        %x      LDRB     r5,[r4,#0]
        0x00004622:    1c6e        n.      ADDS     r6,r5,#1
        0x00004624:    7026        &p      STRB     r6,[r4,#0]
        0x00004626:    554b        KU      STRB     r3,[r1,r5]
        0x00004628:    6800        .h      LDR      r0,[r0,#0]
        0x0000462a:    7823        #x      LDRB     r3,[r4,#0]
        0x0000462c:    1c5d        ].      ADDS     r5,r3,#1
        0x0000462e:    7025        %p      STRB     r5,[r4,#0]
        0x00004630:    54c8        .T      STRB     r0,[r1,r3]
        0x00004632:    7810        .x      LDRB     r0,[r2,#0]
        0x00004634:    0083        ..      LSLS     r3,r0,#2
        0x00004636:    4826        &H      LDR      r0,[pc,#152] ; [0x46d0] = 0x20000dd4
        0x00004638:    18c3        ..      ADDS     r3,r0,r3
        0x0000463a:    78db        .x      LDRB     r3,[r3,#3]
        0x0000463c:    7825        %x      LDRB     r5,[r4,#0]
        0x0000463e:    1c6e        n.      ADDS     r6,r5,#1
        0x00004640:    7026        &p      STRB     r6,[r4,#0]
        0x00004642:    554b        KU      STRB     r3,[r1,r5]
        0x00004644:    7813        .x      LDRB     r3,[r2,#0]
        0x00004646:    009b        ..      LSLS     r3,r3,#2
        0x00004648:    18c3        ..      ADDS     r3,r0,r3
        0x0000464a:    885b        [.      LDRH     r3,[r3,#2]
        0x0000464c:    7825        %x      LDRB     r5,[r4,#0]
        0x0000464e:    1c6e        n.      ADDS     r6,r5,#1
        0x00004650:    7026        &p      STRB     r6,[r4,#0]
        0x00004652:    554b        KU      STRB     r3,[r1,r5]
        0x00004654:    7813        .x      LDRB     r3,[r2,#0]
        0x00004656:    009b        ..      LSLS     r3,r3,#2
        0x00004658:    58c3        .X      LDR      r3,[r0,r3]
        0x0000465a:    0a1b        ..      LSRS     r3,r3,#8
        0x0000465c:    7825        %x      LDRB     r5,[r4,#0]
        0x0000465e:    1c6e        n.      ADDS     r6,r5,#1
        0x00004660:    7026        &p      STRB     r6,[r4,#0]
        0x00004662:    554b        KU      STRB     r3,[r1,r5]
        0x00004664:    7813        .x      LDRB     r3,[r2,#0]
        0x00004666:    009b        ..      LSLS     r3,r3,#2
        0x00004668:    58c0        .X      LDR      r0,[r0,r3]
        0x0000466a:    7823        #x      LDRB     r3,[r4,#0]
        0x0000466c:    1c5d        ].      ADDS     r5,r3,#1
        0x0000466e:    7025        %p      STRB     r5,[r4,#0]
        0x00004670:    54c8        .T      STRB     r0,[r1,r3]
        0x00004672:    7810        .x      LDRB     r0,[r2,#0]
        0x00004674:    0083        ..      LSLS     r3,r0,#2
        0x00004676:    4817        .H      LDR      r0,[pc,#92] ; [0x46d4] = 0x20000d58
        0x00004678:    18c3        ..      ADDS     r3,r0,r3
        0x0000467a:    78db        .x      LDRB     r3,[r3,#3]
        0x0000467c:    7825        %x      LDRB     r5,[r4,#0]
        0x0000467e:    1c6e        n.      ADDS     r6,r5,#1
        0x00004680:    7026        &p      STRB     r6,[r4,#0]
        0x00004682:    554b        KU      STRB     r3,[r1,r5]
        0x00004684:    7813        .x      LDRB     r3,[r2,#0]
        0x00004686:    009b        ..      LSLS     r3,r3,#2
        0x00004688:    18c3        ..      ADDS     r3,r0,r3
        0x0000468a:    885b        [.      LDRH     r3,[r3,#2]
        0x0000468c:    7825        %x      LDRB     r5,[r4,#0]
        0x0000468e:    1c6e        n.      ADDS     r6,r5,#1
        0x00004690:    7026        &p      STRB     r6,[r4,#0]
        0x00004692:    554b        KU      STRB     r3,[r1,r5]
        0x00004694:    7813        .x      LDRB     r3,[r2,#0]
        0x00004696:    009b        ..      LSLS     r3,r3,#2
        0x00004698:    58c3        .X      LDR      r3,[r0,r3]
        0x0000469a:    0a1b        ..      LSRS     r3,r3,#8
        0x0000469c:    7825        %x      LDRB     r5,[r4,#0]
        0x0000469e:    1c6e        n.      ADDS     r6,r5,#1
        0x000046a0:    7026        &p      STRB     r6,[r4,#0]
        0x000046a2:    554b        KU      STRB     r3,[r1,r5]
        0x000046a4:    7812        .x      LDRB     r2,[r2,#0]
        0x000046a6:    0092        ..      LSLS     r2,r2,#2
        0x000046a8:    5880        .X      LDR      r0,[r0,r2]
        0x000046aa:    7822        "x      LDRB     r2,[r4,#0]
        0x000046ac:    1c53        S.      ADDS     r3,r2,#1
        0x000046ae:    7023        #p      STRB     r3,[r4,#0]
        0x000046b0:    5488        .T      STRB     r0,[r1,r2]
        0x000046b2:    f7fdf913    ....    BL       CalChecksumH ; 0x18dc
        0x000046b6:    b002        ..      ADD      sp,sp,#8
        0x000046b8:    bd70        p.      POP      {r4-r6,pc}
        0x000046ba:    46c0        .F      MOV      r8,r8
    $d
    __arm_cp.6_0
        0x000046bc:    20000d48    H..     DCD    536874312
    __arm_cp.6_1
        0x000046c0:    20000106    ...     DCD    536871174
    __arm_cp.6_2
        0x000046c4:    200010c7    ...     DCD    536875207
    __arm_cp.6_3
        0x000046c8:    200010c8    ...     DCD    536875208
    __arm_cp.6_4
        0x000046cc:    20000d50    P..     DCD    536874320
    __arm_cp.6_5
        0x000046d0:    20000dd4    ...     DCD    536874452
    __arm_cp.6_6
        0x000046d4:    20000d58    X..     DCD    536874328
    $t
    SoftI2cMasterInit
        0x000046d8:    4aa4        .J      LDR      r2,[pc,#656] ; [0x496c] = 0x50004140
        0x000046da:    6810        .h      LDR      r0,[r2,#0]
        0x000046dc:    2140        @!      MOVS     r1,#0x40
        0x000046de:    4308        .C      ORRS     r0,r0,r1
        0x000046e0:    2180        .!      MOVS     r1,#0x80
        0x000046e2:    4388        .C      BICS     r0,r0,r1
        0x000046e4:    6010        .`      STR      r0,[r2,#0]
        0x000046e6:    49a3        .I      LDR      r1,[pc,#652] ; [0x4974] = 0x5000434c
        0x000046e8:    2001        .       MOVS     r0,#1
        0x000046ea:    6008        .`      STR      r0,[r1,#0]
        0x000046ec:    6811        .h      LDR      r1,[r2,#0]
        0x000046ee:    2303        .#      MOVS     r3,#3
        0x000046f0:    021b        ..      LSLS     r3,r3,#8
        0x000046f2:    4399        .C      BICS     r1,r1,r3
        0x000046f4:    0203        ..      LSLS     r3,r0,#8
        0x000046f6:    18c9        ..      ADDS     r1,r1,r3
        0x000046f8:    6011        .`      STR      r1,[r2,#0]
        0x000046fa:    499d        .I      LDR      r1,[pc,#628] ; [0x4970] = 0x50004350
        0x000046fc:    6008        .`      STR      r0,[r1,#0]
        0x000046fe:    4770        pG      BX       lr
    SoftI2cMasterRead
        0x00004700:    b580        ..      PUSH     {r7,lr}
        0x00004702:    b086        ..      SUB      sp,sp,#0x18
        0x00004704:    a905        ..      ADD      r1,sp,#0x14
        0x00004706:    7008        .p      STRB     r0,[r1,#0]
        0x00004708:    a903        ..      ADD      r1,sp,#0xc
        0x0000470a:    2000        .       MOVS     r0,#0
        0x0000470c:    7008        .p      STRB     r0,[r1,#0]
        0x0000470e:    4a98        .J      LDR      r2,[pc,#608] ; [0x4970] = 0x50004350
        0x00004710:    2101        .!      MOVS     r1,#1
        0x00004712:    6011        .`      STR      r1,[r2,#0]
        0x00004714:    4a95        .J      LDR      r2,[pc,#596] ; [0x496c] = 0x50004140
        0x00004716:    6811        .h      LDR      r1,[r2,#0]
        0x00004718:    2303        .#      MOVS     r3,#3
        0x0000471a:    021b        ..      LSLS     r3,r3,#8
        0x0000471c:    4319        .C      ORRS     r1,r1,r3
        0x0000471e:    6011        .`      STR      r1,[r2,#0]
        0x00004720:    a904        ..      ADD      r1,sp,#0x10
        0x00004722:    7008        .p      STRB     r0,[r1,#0]
        0x00004724:    e7ff        ..      B        0x4726 ; SoftI2cMasterRead + 38
        0x00004726:    a804        ..      ADD      r0,sp,#0x10
        0x00004728:    7800        .x      LDRB     r0,[r0,#0]
        0x0000472a:    2807        .(      CMP      r0,#7
        0x0000472c:    dc25        %.      BGT      0x477a ; SoftI2cMasterRead + 122
        0x0000472e:    e7ff        ..      B        0x4730 ; SoftI2cMasterRead + 48
        0x00004730:    9803        ..      LDR      r0,[sp,#0xc]
        0x00004732:    0040        @.      LSLS     r0,r0,#1
        0x00004734:    a903        ..      ADD      r1,sp,#0xc
        0x00004736:    7008        .p      STRB     r0,[r1,#0]
        0x00004738:    2002        .       MOVS     r0,#2
        0x0000473a:    9002        ..      STR      r0,[sp,#8]
        0x0000473c:    f001fa06    ....    BL       a_delay_us ; 0x5b4c
        0x00004740:    9802        ..      LDR      r0,[sp,#8]
        0x00004742:    4a8c        .J      LDR      r2,[pc,#560] ; [0x4974] = 0x5000434c
        0x00004744:    2101        .!      MOVS     r1,#1
        0x00004746:    6011        .`      STR      r1,[r2,#0]
        0x00004748:    f001fa00    ....    BL       a_delay_us ; 0x5b4c
        0x0000474c:    4888        .H      LDR      r0,[pc,#544] ; [0x4970] = 0x50004350
        0x0000474e:    6800        .h      LDR      r0,[r0,#0]
        0x00004750:    2800        .(      CMP      r0,#0
        0x00004752:    d006        ..      BEQ      0x4762 ; SoftI2cMasterRead + 98
        0x00004754:    e7ff        ..      B        0x4756 ; SoftI2cMasterRead + 86
        0x00004756:    9803        ..      LDR      r0,[sp,#0xc]
        0x00004758:    2101        .!      MOVS     r1,#1
        0x0000475a:    4308        .C      ORRS     r0,r0,r1
        0x0000475c:    a903        ..      ADD      r1,sp,#0xc
        0x0000475e:    7008        .p      STRB     r0,[r1,#0]
        0x00004760:    e7ff        ..      B        0x4762 ; SoftI2cMasterRead + 98
        0x00004762:    2002        .       MOVS     r0,#2
        0x00004764:    f001f9f2    ....    BL       a_delay_us ; 0x5b4c
        0x00004768:    4982        .I      LDR      r1,[pc,#520] ; [0x4974] = 0x5000434c
        0x0000476a:    2000        .       MOVS     r0,#0
        0x0000476c:    6008        .`      STR      r0,[r1,#0]
        0x0000476e:    e7ff        ..      B        0x4770 ; SoftI2cMasterRead + 112
        0x00004770:    9804        ..      LDR      r0,[sp,#0x10]
        0x00004772:    1c40        @.      ADDS     r0,r0,#1
        0x00004774:    a904        ..      ADD      r1,sp,#0x10
        0x00004776:    7008        .p      STRB     r0,[r1,#0]
        0x00004778:    e7d5        ..      B        0x4726 ; SoftI2cMasterRead + 38
        0x0000477a:    497c        |I      LDR      r1,[pc,#496] ; [0x496c] = 0x50004140
        0x0000477c:    6808        .h      LDR      r0,[r1,#0]
        0x0000477e:    2203        ."      MOVS     r2,#3
        0x00004780:    0212        ..      LSLS     r2,r2,#8
        0x00004782:    4390        .C      BICS     r0,r0,r2
        0x00004784:    2201        ."      MOVS     r2,#1
        0x00004786:    0212        ..      LSLS     r2,r2,#8
        0x00004788:    1880        ..      ADDS     r0,r0,r2
        0x0000478a:    6008        .`      STR      r0,[r1,#0]
        0x0000478c:    a805        ..      ADD      r0,sp,#0x14
        0x0000478e:    7800        .x      LDRB     r0,[r0,#0]
        0x00004790:    2800        .(      CMP      r0,#0
        0x00004792:    d004        ..      BEQ      0x479e ; SoftI2cMasterRead + 158
        0x00004794:    e7ff        ..      B        0x4796 ; SoftI2cMasterRead + 150
        0x00004796:    4976        vI      LDR      r1,[pc,#472] ; [0x4970] = 0x50004350
        0x00004798:    2001        .       MOVS     r0,#1
        0x0000479a:    6008        .`      STR      r0,[r1,#0]
        0x0000479c:    e003        ..      B        0x47a6 ; SoftI2cMasterRead + 166
        0x0000479e:    4974        tI      LDR      r1,[pc,#464] ; [0x4970] = 0x50004350
        0x000047a0:    2000        .       MOVS     r0,#0
        0x000047a2:    6008        .`      STR      r0,[r1,#0]
        0x000047a4:    e7ff        ..      B        0x47a6 ; SoftI2cMasterRead + 166
        0x000047a6:    4973        sI      LDR      r1,[pc,#460] ; [0x4974] = 0x5000434c
        0x000047a8:    9101        ..      STR      r1,[sp,#4]
        0x000047aa:    2001        .       MOVS     r0,#1
        0x000047ac:    6008        .`      STR      r0,[r1,#0]
        0x000047ae:    2002        .       MOVS     r0,#2
        0x000047b0:    f001f9cc    ....    BL       a_delay_us ; 0x5b4c
        0x000047b4:    9901        ..      LDR      r1,[sp,#4]
        0x000047b6:    2000        .       MOVS     r0,#0
        0x000047b8:    6008        .`      STR      r0,[r1,#0]
        0x000047ba:    496d        mI      LDR      r1,[pc,#436] ; [0x4970] = 0x50004350
        0x000047bc:    6008        .`      STR      r0,[r1,#0]
        0x000047be:    a803        ..      ADD      r0,sp,#0xc
        0x000047c0:    7800        .x      LDRB     r0,[r0,#0]
        0x000047c2:    b006        ..      ADD      sp,sp,#0x18
        0x000047c4:    bd80        ..      POP      {r7,pc}
        0x000047c6:    46c0        .F      MOV      r8,r8
    SoftI2cMasterRestart
        0x000047c8:    b580        ..      PUSH     {r7,lr}
        0x000047ca:    b082        ..      SUB      sp,sp,#8
        0x000047cc:    a901        ..      ADD      r1,sp,#4
        0x000047ce:    9100        ..      STR      r1,[sp,#0]
        0x000047d0:    7008        .p      STRB     r0,[r1,#0]
        0x000047d2:    4a66        fJ      LDR      r2,[pc,#408] ; [0x496c] = 0x50004140
        0x000047d4:    6810        .h      LDR      r0,[r2,#0]
        0x000047d6:    2140        @!      MOVS     r1,#0x40
        0x000047d8:    4308        .C      ORRS     r0,r0,r1
        0x000047da:    2180        .!      MOVS     r1,#0x80
        0x000047dc:    4388        .C      BICS     r0,r0,r1
        0x000047de:    6010        .`      STR      r0,[r2,#0]
        0x000047e0:    6811        .h      LDR      r1,[r2,#0]
        0x000047e2:    2003        .       MOVS     r0,#3
        0x000047e4:    0200        ..      LSLS     r0,r0,#8
        0x000047e6:    4381        .C      BICS     r1,r1,r0
        0x000047e8:    2001        .       MOVS     r0,#1
        0x000047ea:    0203        ..      LSLS     r3,r0,#8
        0x000047ec:    18c9        ..      ADDS     r1,r1,r3
        0x000047ee:    6011        .`      STR      r1,[r2,#0]
        0x000047f0:    495f        _I      LDR      r1,[pc,#380] ; [0x4970] = 0x50004350
        0x000047f2:    6008        .`      STR      r0,[r1,#0]
        0x000047f4:    495f        _I      LDR      r1,[pc,#380] ; [0x4974] = 0x5000434c
        0x000047f6:    6008        .`      STR      r0,[r1,#0]
        0x000047f8:    2002        .       MOVS     r0,#2
        0x000047fa:    f001f9a7    ....    BL       a_delay_us ; 0x5b4c
        0x000047fe:    9800        ..      LDR      r0,[sp,#0]
        0x00004800:    7800        .x      LDRB     r0,[r0,#0]
        0x00004802:    f000f803    ....    BL       SoftI2cMasterStart ; 0x480c
        0x00004806:    b002        ..      ADD      sp,sp,#8
        0x00004808:    bd80        ..      POP      {r7,pc}
        0x0000480a:    46c0        .F      MOV      r8,r8
    SoftI2cMasterStart
        0x0000480c:    b580        ..      PUSH     {r7,lr}
        0x0000480e:    b084        ..      SUB      sp,sp,#0x10
        0x00004810:    a903        ..      ADD      r1,sp,#0xc
        0x00004812:    9102        ..      STR      r1,[sp,#8]
        0x00004814:    7008        .p      STRB     r0,[r1,#0]
        0x00004816:    4955        UI      LDR      r1,[pc,#340] ; [0x496c] = 0x50004140
        0x00004818:    6808        .h      LDR      r0,[r1,#0]
        0x0000481a:    2240        @"      MOVS     r2,#0x40
        0x0000481c:    4310        .C      ORRS     r0,r0,r2
        0x0000481e:    2280        ."      MOVS     r2,#0x80
        0x00004820:    4390        .C      BICS     r0,r0,r2
        0x00004822:    6008        .`      STR      r0,[r1,#0]
        0x00004824:    6808        .h      LDR      r0,[r1,#0]
        0x00004826:    2203        ."      MOVS     r2,#3
        0x00004828:    0212        ..      LSLS     r2,r2,#8
        0x0000482a:    4390        .C      BICS     r0,r0,r2
        0x0000482c:    2201        ."      MOVS     r2,#1
        0x0000482e:    0212        ..      LSLS     r2,r2,#8
        0x00004830:    1880        ..      ADDS     r0,r0,r2
        0x00004832:    6008        .`      STR      r0,[r1,#0]
        0x00004834:    494e        NI      LDR      r1,[pc,#312] ; [0x4970] = 0x50004350
        0x00004836:    2000        .       MOVS     r0,#0
        0x00004838:    9000        ..      STR      r0,[sp,#0]
        0x0000483a:    6008        .`      STR      r0,[r1,#0]
        0x0000483c:    2002        .       MOVS     r0,#2
        0x0000483e:    9001        ..      STR      r0,[sp,#4]
        0x00004840:    f001f984    ....    BL       a_delay_us ; 0x5b4c
        0x00004844:    9900        ..      LDR      r1,[sp,#0]
        0x00004846:    9801        ..      LDR      r0,[sp,#4]
        0x00004848:    4a4a        JJ      LDR      r2,[pc,#296] ; [0x4974] = 0x5000434c
        0x0000484a:    6011        .`      STR      r1,[r2,#0]
        0x0000484c:    f001f97e    ..~.    BL       a_delay_us ; 0x5b4c
        0x00004850:    9802        ..      LDR      r0,[sp,#8]
        0x00004852:    7800        .x      LDRB     r0,[r0,#0]
        0x00004854:    f000f824    ..$.    BL       SoftI2cMasterWrite ; 0x48a0
        0x00004858:    b004        ..      ADD      sp,sp,#0x10
        0x0000485a:    bd80        ..      POP      {r7,pc}
    SoftI2cMasterStop
        0x0000485c:    b580        ..      PUSH     {r7,lr}
        0x0000485e:    b084        ..      SUB      sp,sp,#0x10
        0x00004860:    4942        BI      LDR      r1,[pc,#264] ; [0x496c] = 0x50004140
        0x00004862:    6808        .h      LDR      r0,[r1,#0]
        0x00004864:    2203        ."      MOVS     r2,#3
        0x00004866:    0212        ..      LSLS     r2,r2,#8
        0x00004868:    4390        .C      BICS     r0,r0,r2
        0x0000486a:    2201        ."      MOVS     r2,#1
        0x0000486c:    9202        ..      STR      r2,[sp,#8]
        0x0000486e:    0212        ..      LSLS     r2,r2,#8
        0x00004870:    1880        ..      ADDS     r0,r0,r2
        0x00004872:    6008        .`      STR      r0,[r1,#0]
        0x00004874:    493e        >I      LDR      r1,[pc,#248] ; [0x4970] = 0x50004350
        0x00004876:    9101        ..      STR      r1,[sp,#4]
        0x00004878:    2000        .       MOVS     r0,#0
        0x0000487a:    6008        .`      STR      r0,[r1,#0]
        0x0000487c:    2002        .       MOVS     r0,#2
        0x0000487e:    9003        ..      STR      r0,[sp,#0xc]
        0x00004880:    f001f964    ..d.    BL       a_delay_us ; 0x5b4c
        0x00004884:    9902        ..      LDR      r1,[sp,#8]
        0x00004886:    9803        ..      LDR      r0,[sp,#0xc]
        0x00004888:    4a3a        :J      LDR      r2,[pc,#232] ; [0x4974] = 0x5000434c
        0x0000488a:    6011        .`      STR      r1,[r2,#0]
        0x0000488c:    f001f95e    ..^.    BL       a_delay_us ; 0x5b4c
        0x00004890:    9a01        ..      LDR      r2,[sp,#4]
        0x00004892:    9902        ..      LDR      r1,[sp,#8]
        0x00004894:    9803        ..      LDR      r0,[sp,#0xc]
        0x00004896:    6011        .`      STR      r1,[r2,#0]
        0x00004898:    f001f958    ..X.    BL       a_delay_us ; 0x5b4c
        0x0000489c:    b004        ..      ADD      sp,sp,#0x10
        0x0000489e:    bd80        ..      POP      {r7,pc}
    SoftI2cMasterWrite
        0x000048a0:    b570        p.      PUSH     {r4-r6,lr}
        0x000048a2:    b08a        ..      SUB      sp,sp,#0x28
        0x000048a4:    a909        ..      ADD      r1,sp,#0x24
        0x000048a6:    7008        .p      STRB     r0,[r1,#0]
        0x000048a8:    4930        0I      LDR      r1,[pc,#192] ; [0x496c] = 0x50004140
        0x000048aa:    6808        .h      LDR      r0,[r1,#0]
        0x000048ac:    2203        ."      MOVS     r2,#3
        0x000048ae:    0212        ..      LSLS     r2,r2,#8
        0x000048b0:    4390        .C      BICS     r0,r0,r2
        0x000048b2:    2201        ."      MOVS     r2,#1
        0x000048b4:    0212        ..      LSLS     r2,r2,#8
        0x000048b6:    1880        ..      ADDS     r0,r0,r2
        0x000048b8:    6008        .`      STR      r0,[r1,#0]
        0x000048ba:    a908        ..      ADD      r1,sp,#0x20
        0x000048bc:    2080        .       MOVS     r0,#0x80
        0x000048be:    7008        .p      STRB     r0,[r1,#0]
        0x000048c0:    e7ff        ..      B        0x48c2 ; SoftI2cMasterWrite + 34
        0x000048c2:    a808        ..      ADD      r0,sp,#0x20
        0x000048c4:    7800        .x      LDRB     r0,[r0,#0]
        0x000048c6:    2800        .(      CMP      r0,#0
        0x000048c8:    d026        &.      BEQ      0x4918 ; SoftI2cMasterWrite + 120
        0x000048ca:    e7ff        ..      B        0x48cc ; SoftI2cMasterWrite + 44
        0x000048cc:    2002        .       MOVS     r0,#2
        0x000048ce:    f001f93d    ..=.    BL       a_delay_us ; 0x5b4c
        0x000048d2:    a808        ..      ADD      r0,sp,#0x20
        0x000048d4:    7800        .x      LDRB     r0,[r0,#0]
        0x000048d6:    a909        ..      ADD      r1,sp,#0x24
        0x000048d8:    7809        .x      LDRB     r1,[r1,#0]
        0x000048da:    4208        .B      TST      r0,r1
        0x000048dc:    d004        ..      BEQ      0x48e8 ; SoftI2cMasterWrite + 72
        0x000048de:    e7ff        ..      B        0x48e0 ; SoftI2cMasterWrite + 64
        0x000048e0:    4923        #I      LDR      r1,[pc,#140] ; [0x4970] = 0x50004350
        0x000048e2:    2001        .       MOVS     r0,#1
        0x000048e4:    6008        .`      STR      r0,[r1,#0]
        0x000048e6:    e003        ..      B        0x48f0 ; SoftI2cMasterWrite + 80
        0x000048e8:    4921        !I      LDR      r1,[pc,#132] ; [0x4970] = 0x50004350
        0x000048ea:    2000        .       MOVS     r0,#0
        0x000048ec:    6008        .`      STR      r0,[r1,#0]
        0x000048ee:    e7ff        ..      B        0x48f0 ; SoftI2cMasterWrite + 80
        0x000048f0:    2002        .       MOVS     r0,#2
        0x000048f2:    9005        ..      STR      r0,[sp,#0x14]
        0x000048f4:    f001f92a    ..*.    BL       a_delay_us ; 0x5b4c
        0x000048f8:    9805        ..      LDR      r0,[sp,#0x14]
        0x000048fa:    4a1e        .J      LDR      r2,[pc,#120] ; [0x4974] = 0x5000434c
        0x000048fc:    9206        ..      STR      r2,[sp,#0x18]
        0x000048fe:    2101        .!      MOVS     r1,#1
        0x00004900:    6011        .`      STR      r1,[r2,#0]
        0x00004902:    f001f923    ..#.    BL       a_delay_us ; 0x5b4c
        0x00004906:    9906        ..      LDR      r1,[sp,#0x18]
        0x00004908:    2000        .       MOVS     r0,#0
        0x0000490a:    6008        .`      STR      r0,[r1,#0]
        0x0000490c:    e7ff        ..      B        0x490e ; SoftI2cMasterWrite + 110
        0x0000490e:    a908        ..      ADD      r1,sp,#0x20
        0x00004910:    7808        .x      LDRB     r0,[r1,#0]
        0x00004912:    0840        @.      LSRS     r0,r0,#1
        0x00004914:    7008        .p      STRB     r0,[r1,#0]
        0x00004916:    e7d4        ..      B        0x48c2 ; SoftI2cMasterWrite + 34
        0x00004918:    4815        .H      LDR      r0,[pc,#84] ; [0x4970] = 0x50004350
        0x0000491a:    9003        ..      STR      r0,[sp,#0xc]
        0x0000491c:    2401        .$      MOVS     r4,#1
        0x0000491e:    6004        .`      STR      r4,[r0,#0]
        0x00004920:    4912        .I      LDR      r1,[pc,#72] ; [0x496c] = 0x50004140
        0x00004922:    9102        ..      STR      r1,[sp,#8]
        0x00004924:    6808        .h      LDR      r0,[r1,#0]
        0x00004926:    2203        ."      MOVS     r2,#3
        0x00004928:    0215        ..      LSLS     r5,r2,#8
        0x0000492a:    4328        (C      ORRS     r0,r0,r5
        0x0000492c:    6008        .`      STR      r0,[r1,#0]
        0x0000492e:    4811        .H      LDR      r0,[pc,#68] ; [0x4974] = 0x5000434c
        0x00004930:    9001        ..      STR      r0,[sp,#4]
        0x00004932:    6004        .`      STR      r4,[r0,#0]
        0x00004934:    2004        .       MOVS     r0,#4
        0x00004936:    f001f909    ....    BL       a_delay_us ; 0x5b4c
        0x0000493a:    9a01        ..      LDR      r2,[sp,#4]
        0x0000493c:    9b02        ..      LDR      r3,[sp,#8]
        0x0000493e:    9903        ..      LDR      r1,[sp,#0xc]
        0x00004940:    6808        .h      LDR      r0,[r1,#0]
        0x00004942:    ae07        ..      ADD      r6,sp,#0x1c
        0x00004944:    9604        ..      STR      r6,[sp,#0x10]
        0x00004946:    7030        0p      STRB     r0,[r6,#0]
        0x00004948:    2000        .       MOVS     r0,#0
        0x0000494a:    6010        .`      STR      r0,[r2,#0]
        0x0000494c:    681a        .h      LDR      r2,[r3,#0]
        0x0000494e:    43aa        .C      BICS     r2,r2,r5
        0x00004950:    0224        $.      LSLS     r4,r4,#8
        0x00004952:    1912        ..      ADDS     r2,r2,r4
        0x00004954:    601a        .`      STR      r2,[r3,#0]
        0x00004956:    6008        .`      STR      r0,[r1,#0]
        0x00004958:    2002        .       MOVS     r0,#2
        0x0000495a:    f001f8f7    ....    BL       a_delay_us ; 0x5b4c
        0x0000495e:    9804        ..      LDR      r0,[sp,#0x10]
        0x00004960:    7800        .x      LDRB     r0,[r0,#0]
        0x00004962:    4241        AB      RSBS     r1,r0,#0
        0x00004964:    4148        HA      ADCS     r0,r0,r1
        0x00004966:    b00a        ..      ADD      sp,sp,#0x28
        0x00004968:    bd70        p.      POP      {r4-r6,pc}
        0x0000496a:    46c0        .F      MOV      r8,r8
    $d
    __arm_cp.4_0
        0x0000496c:    50004140    @A.P    DCD    1342193984
    __arm_cp.4_1
        0x00004970:    50004350    PC.P    DCD    1342194512
    __arm_cp.4_2
        0x00004974:    5000434c    LC.P    DCD    1342194508
    $t
    SysTick_Config
        0x00004978:    b580        ..      PUSH     {r7,lr}
        0x0000497a:    b084        ..      SUB      sp,sp,#0x10
        0x0000497c:    9002        ..      STR      r0,[sp,#8]
        0x0000497e:    9802        ..      LDR      r0,[sp,#8]
        0x00004980:    1e40        @.      SUBS     r0,r0,#1
        0x00004982:    0e00        ..      LSRS     r0,r0,#24
        0x00004984:    2800        .(      CMP      r0,#0
        0x00004986:    d003        ..      BEQ      0x4990 ; SysTick_Config + 24
        0x00004988:    e7ff        ..      B        0x498a ; SysTick_Config + 18
        0x0000498a:    2001        .       MOVS     r0,#1
        0x0000498c:    9003        ..      STR      r0,[sp,#0xc]
        0x0000498e:    e011        ..      B        0x49b4 ; SysTick_Config + 60
        0x00004990:    9802        ..      LDR      r0,[sp,#8]
        0x00004992:    1e40        @.      SUBS     r0,r0,#1
        0x00004994:    4909        .I      LDR      r1,[pc,#36] ; [0x49bc] = 0xe000e014
        0x00004996:    6008        .`      STR      r0,[r1,#0]
        0x00004998:    2000        .       MOVS     r0,#0
        0x0000499a:    9001        ..      STR      r0,[sp,#4]
        0x0000499c:    43c0        .C      MVNS     r0,r0
        0x0000499e:    2103        .!      MOVS     r1,#3
        0x000049a0:    f7fff968    ..h.    BL       NVIC_SetPriority ; 0x3c74
        0x000049a4:    9801        ..      LDR      r0,[sp,#4]
        0x000049a6:    4906        .I      LDR      r1,[pc,#24] ; [0x49c0] = 0xe000e018
        0x000049a8:    6008        .`      STR      r0,[r1,#0]
        0x000049aa:    4a06        .J      LDR      r2,[pc,#24] ; [0x49c4] = 0xe000e010
        0x000049ac:    2107        .!      MOVS     r1,#7
        0x000049ae:    6011        .`      STR      r1,[r2,#0]
        0x000049b0:    9003        ..      STR      r0,[sp,#0xc]
        0x000049b2:    e7ff        ..      B        0x49b4 ; SysTick_Config + 60
        0x000049b4:    9803        ..      LDR      r0,[sp,#0xc]
        0x000049b6:    b004        ..      ADD      sp,sp,#0x10
        0x000049b8:    bd80        ..      POP      {r7,pc}
        0x000049ba:    46c0        .F      MOV      r8,r8
    $d
    __arm_cp.24_0
        0x000049bc:    e000e014    ....    DCD    3758153748
    __arm_cp.24_1
        0x000049c0:    e000e018    ....    DCD    3758153752
    __arm_cp.24_2
        0x000049c4:    e000e010    ....    DCD    3758153744
    $t
    SysTick_Handler
        0x000049c8:    b5b0        ..      PUSH     {r4,r5,r7,lr}
        0x000049ca:    b082        ..      SUB      sp,sp,#8
        0x000049cc:    4956        VI      LDR      r1,[pc,#344] ; [0x4b28] = 0x20000012
        0x000049ce:    8808        ..      LDRH     r0,[r1,#0]
        0x000049d0:    1c40        @.      ADDS     r0,r0,#1
        0x000049d2:    8008        ..      STRH     r0,[r1,#0]
        0x000049d4:    4855        UH      LDR      r0,[pc,#340] ; [0x4b2c] = 0x20000f7c
        0x000049d6:    7801        .x      LDRB     r1,[r0,#0]
        0x000049d8:    1c49        I.      ADDS     r1,r1,#1
        0x000049da:    7001        .p      STRB     r1,[r0,#0]
        0x000049dc:    4a54        TJ      LDR      r2,[pc,#336] ; [0x4b30] = 0x200010ef
        0x000049de:    7811        .x      LDRB     r1,[r2,#0]
        0x000049e0:    1c49        I.      ADDS     r1,r1,#1
        0x000049e2:    7011        .p      STRB     r1,[r2,#0]
        0x000049e4:    4a53        SJ      LDR      r2,[pc,#332] ; [0x4b34] = 0x20000f6c
        0x000049e6:    8811        ..      LDRH     r1,[r2,#0]
        0x000049e8:    1c49        I.      ADDS     r1,r1,#1
        0x000049ea:    8011        ..      STRH     r1,[r2,#0]
        0x000049ec:    4a52        RJ      LDR      r2,[pc,#328] ; [0x4b38] = 0x20000f23
        0x000049ee:    7811        .x      LDRB     r1,[r2,#0]
        0x000049f0:    1c49        I.      ADDS     r1,r1,#1
        0x000049f2:    7011        .p      STRB     r1,[r2,#0]
        0x000049f4:    4a51        QJ      LDR      r2,[pc,#324] ; [0x4b3c] = 0x20000014
        0x000049f6:    7811        .x      LDRB     r1,[r2,#0]
        0x000049f8:    1c49        I.      ADDS     r1,r1,#1
        0x000049fa:    7011        .p      STRB     r1,[r2,#0]
        0x000049fc:    4a50        PJ      LDR      r2,[pc,#320] ; [0x4b40] = 0x20001138
        0x000049fe:    6811        .h      LDR      r1,[r2,#0]
        0x00004a00:    1c49        I.      ADDS     r1,r1,#1
        0x00004a02:    6011        .`      STR      r1,[r2,#0]
        0x00004a04:    4a4f        OJ      LDR      r2,[pc,#316] ; [0x4b44] = 0x20000f7a
        0x00004a06:    8811        ..      LDRH     r1,[r2,#0]
        0x00004a08:    1c49        I.      ADDS     r1,r1,#1
        0x00004a0a:    8011        ..      STRH     r1,[r2,#0]
        0x00004a0c:    4a4e        NJ      LDR      r2,[pc,#312] ; [0x4b48] = 0x20000f78
        0x00004a0e:    7811        .x      LDRB     r1,[r2,#0]
        0x00004a10:    1c49        I.      ADDS     r1,r1,#1
        0x00004a12:    7011        .p      STRB     r1,[r2,#0]
        0x00004a14:    4a4d        MJ      LDR      r2,[pc,#308] ; [0x4b4c] = 0x20000f77
        0x00004a16:    7811        .x      LDRB     r1,[r2,#0]
        0x00004a18:    1c49        I.      ADDS     r1,r1,#1
        0x00004a1a:    7011        .p      STRB     r1,[r2,#0]
        0x00004a1c:    7800        .x      LDRB     r0,[r0,#0]
        0x00004a1e:    2864        d(      CMP      r0,#0x64
        0x00004a20:    db48        H.      BLT      0x4ab4 ; SysTick_Handler + 236
        0x00004a22:    e7ff        ..      B        0x4a24 ; SysTick_Handler + 92
        0x00004a24:    4941        AI      LDR      r1,[pc,#260] ; [0x4b2c] = 0x20000f7c
        0x00004a26:    2000        .       MOVS     r0,#0
        0x00004a28:    7008        .p      STRB     r0,[r1,#0]
        0x00004a2a:    4949        II      LDR      r1,[pc,#292] ; [0x4b50] = 0x20000f7d
        0x00004a2c:    7808        .x      LDRB     r0,[r1,#0]
        0x00004a2e:    1c40        @.      ADDS     r0,r0,#1
        0x00004a30:    7008        .p      STRB     r0,[r1,#0]
        0x00004a32:    4948        HI      LDR      r1,[pc,#288] ; [0x4b54] = 0x20000f68
        0x00004a34:    7808        .x      LDRB     r0,[r1,#0]
        0x00004a36:    1c40        @.      ADDS     r0,r0,#1
        0x00004a38:    7008        .p      STRB     r0,[r1,#0]
        0x00004a3a:    4847        GH      LDR      r0,[pc,#284] ; [0x4b58] = 0x20000f6a
        0x00004a3c:    8801        ..      LDRH     r1,[r0,#0]
        0x00004a3e:    1c49        I.      ADDS     r1,r1,#1
        0x00004a40:    8001        ..      STRH     r1,[r0,#0]
        0x00004a42:    8800        ..      LDRH     r0,[r0,#0]
        0x00004a44:    214b        K!      MOVS     r1,#0x4b
        0x00004a46:    0089        ..      LSLS     r1,r1,#2
        0x00004a48:    4288        .B      CMP      r0,r1
        0x00004a4a:    db32        2.      BLT      0x4ab2 ; SysTick_Handler + 234
        0x00004a4c:    e7ff        ..      B        0x4a4e ; SysTick_Handler + 134
        0x00004a4e:    4942        BI      LDR      r1,[pc,#264] ; [0x4b58] = 0x20000f6a
        0x00004a50:    2000        .       MOVS     r0,#0
        0x00004a52:    8008        ..      STRH     r0,[r1,#0]
        0x00004a54:    4841        AH      LDR      r0,[pc,#260] ; [0x4b5c] = 0x20000c88
        0x00004a56:    7801        .x      LDRB     r1,[r0,#0]
        0x00004a58:    1c49        I.      ADDS     r1,r1,#1
        0x00004a5a:    7001        .p      STRB     r1,[r0,#0]
        0x00004a5c:    7800        .x      LDRB     r0,[r0,#0]
        0x00004a5e:    280c        .(      CMP      r0,#0xc
        0x00004a60:    db04        ..      BLT      0x4a6c ; SysTick_Handler + 164
        0x00004a62:    e7ff        ..      B        0x4a64 ; SysTick_Handler + 156
        0x00004a64:    493d        =I      LDR      r1,[pc,#244] ; [0x4b5c] = 0x20000c88
        0x00004a66:    2000        .       MOVS     r0,#0
        0x00004a68:    7008        .p      STRB     r0,[r1,#0]
        0x00004a6a:    e7ff        ..      B        0x4a6c ; SysTick_Handler + 164
        0x00004a6c:    a901        ..      ADD      r1,sp,#4
        0x00004a6e:    2000        .       MOVS     r0,#0
        0x00004a70:    7008        .p      STRB     r0,[r1,#0]
        0x00004a72:    e7ff        ..      B        0x4a74 ; SysTick_Handler + 172
        0x00004a74:    a801        ..      ADD      r0,sp,#4
        0x00004a76:    7800        .x      LDRB     r0,[r0,#0]
        0x00004a78:    281e        .(      CMP      r0,#0x1e
        0x00004a7a:    dc19        ..      BGT      0x4ab0 ; SysTick_Handler + 232
        0x00004a7c:    e7ff        ..      B        0x4a7e ; SysTick_Handler + 182
        0x00004a7e:    a901        ..      ADD      r1,sp,#4
        0x00004a80:    7808        .x      LDRB     r0,[r1,#0]
        0x00004a82:    2318        .#      MOVS     r3,#0x18
        0x00004a84:    461a        .F      MOV      r2,r3
        0x00004a86:    4342        BC      MULS     r2,r0,r2
        0x00004a88:    483b        ;H      LDR      r0,[pc,#236] ; [0x4b78] = 0x200009a0
        0x00004a8a:    1884        ..      ADDS     r4,r0,r2
        0x00004a8c:    4a33        3J      LDR      r2,[pc,#204] ; [0x4b5c] = 0x20000c88
        0x00004a8e:    7810        .x      LDRB     r0,[r2,#0]
        0x00004a90:    0045        E.      LSLS     r5,r0,#1
        0x00004a92:    2001        .       MOVS     r0,#1
        0x00004a94:    5360        `S      STRH     r0,[r4,r5]
        0x00004a96:    7809        .x      LDRB     r1,[r1,#0]
        0x00004a98:    434b        KC      MULS     r3,r1,r3
        0x00004a9a:    4938        8I      LDR      r1,[pc,#224] ; [0x4b7c] = 0x200006b8
        0x00004a9c:    18c9        ..      ADDS     r1,r1,r3
        0x00004a9e:    7812        .x      LDRB     r2,[r2,#0]
        0x00004aa0:    0052        R.      LSLS     r2,r2,#1
        0x00004aa2:    5288        .R      STRH     r0,[r1,r2]
        0x00004aa4:    e7ff        ..      B        0x4aa6 ; SysTick_Handler + 222
        0x00004aa6:    9801        ..      LDR      r0,[sp,#4]
        0x00004aa8:    1c40        @.      ADDS     r0,r0,#1
        0x00004aaa:    a901        ..      ADD      r1,sp,#4
        0x00004aac:    7008        .p      STRB     r0,[r1,#0]
        0x00004aae:    e7e1        ..      B        0x4a74 ; SysTick_Handler + 172
        0x00004ab0:    e7ff        ..      B        0x4ab2 ; SysTick_Handler + 234
        0x00004ab2:    e7ff        ..      B        0x4ab4 ; SysTick_Handler + 236
        0x00004ab4:    482a        *H      LDR      r0,[pc,#168] ; [0x4b60] = 0x20000f66
        0x00004ab6:    8801        ..      LDRH     r1,[r0,#0]
        0x00004ab8:    1c49        I.      ADDS     r1,r1,#1
        0x00004aba:    8001        ..      STRH     r1,[r0,#0]
        0x00004abc:    8800        ..      LDRH     r0,[r0,#0]
        0x00004abe:    21ff        .!      MOVS     r1,#0xff
        0x00004ac0:    31f6        .1      ADDS     r1,r1,#0xf6
        0x00004ac2:    4288        .B      CMP      r0,r1
        0x00004ac4:    db06        ..      BLT      0x4ad4 ; SysTick_Handler + 268
        0x00004ac6:    e7ff        ..      B        0x4ac8 ; SysTick_Handler + 256
        0x00004ac8:    4926        &I      LDR      r1,[pc,#152] ; [0x4b64] = 0x200010ba
        0x00004aca:    2001        .       MOVS     r0,#1
        0x00004acc:    7008        .p      STRB     r0,[r1,#0]
        0x00004ace:    f7fff9fb    ....    BL       RecoverSystemMoniter ; 0x3ec8
        0x00004ad2:    e7ff        ..      B        0x4ad4 ; SysTick_Handler + 268
        0x00004ad4:    4824        $H      LDR      r0,[pc,#144] ; [0x4b68] = 0x20000099
        0x00004ad6:    7800        .x      LDRB     r0,[r0,#0]
        0x00004ad8:    2801        .(      CMP      r0,#1
        0x00004ada:    db0f        ..      BLT      0x4afc ; SysTick_Handler + 308
        0x00004adc:    e7ff        ..      B        0x4ade ; SysTick_Handler + 278
        0x00004ade:    4823        #H      LDR      r0,[pc,#140] ; [0x4b6c] = 0x20000f75
        0x00004ae0:    7801        .x      LDRB     r1,[r0,#0]
        0x00004ae2:    1c49        I.      ADDS     r1,r1,#1
        0x00004ae4:    7001        .p      STRB     r1,[r0,#0]
        0x00004ae6:    7800        .x      LDRB     r0,[r0,#0]
        0x00004ae8:    2865        e(      CMP      r0,#0x65
        0x00004aea:    db06        ..      BLT      0x4afa ; SysTick_Handler + 306
        0x00004aec:    e7ff        ..      B        0x4aee ; SysTick_Handler + 294
        0x00004aee:    491f        .I      LDR      r1,[pc,#124] ; [0x4b6c] = 0x20000f75
        0x00004af0:    2000        .       MOVS     r0,#0
        0x00004af2:    7008        .p      STRB     r0,[r1,#0]
        0x00004af4:    f7fffa04    ....    BL       ResetHostUART ; 0x3f00
        0x00004af8:    e7ff        ..      B        0x4afa ; SysTick_Handler + 306
        0x00004afa:    e7ff        ..      B        0x4afc ; SysTick_Handler + 308
        0x00004afc:    481c        .H      LDR      r0,[pc,#112] ; [0x4b70] = 0x20000eb5
        0x00004afe:    7800        .x      LDRB     r0,[r0,#0]
        0x00004b00:    2801        .(      CMP      r0,#1
        0x00004b02:    db0f        ..      BLT      0x4b24 ; SysTick_Handler + 348
        0x00004b04:    e7ff        ..      B        0x4b06 ; SysTick_Handler + 318
        0x00004b06:    481b        .H      LDR      r0,[pc,#108] ; [0x4b74] = 0x20000f76
        0x00004b08:    7801        .x      LDRB     r1,[r0,#0]
        0x00004b0a:    1c49        I.      ADDS     r1,r1,#1
        0x00004b0c:    7001        .p      STRB     r1,[r0,#0]
        0x00004b0e:    7800        .x      LDRB     r0,[r0,#0]
        0x00004b10:    2865        e(      CMP      r0,#0x65
        0x00004b12:    db06        ..      BLT      0x4b22 ; SysTick_Handler + 346
        0x00004b14:    e7ff        ..      B        0x4b16 ; SysTick_Handler + 334
        0x00004b16:    4917        .I      LDR      r1,[pc,#92] ; [0x4b74] = 0x20000f76
        0x00004b18:    2000        .       MOVS     r0,#0
        0x00004b1a:    7008        .p      STRB     r0,[r1,#0]
        0x00004b1c:    f7fffa24    ..$.    BL       ResetReaderUART ; 0x3f68
        0x00004b20:    e7ff        ..      B        0x4b22 ; SysTick_Handler + 346
        0x00004b22:    e7ff        ..      B        0x4b24 ; SysTick_Handler + 348
        0x00004b24:    b002        ..      ADD      sp,sp,#8
        0x00004b26:    bdb0        ..      POP      {r4,r5,r7,pc}
    $d
    __arm_cp.3_0
        0x00004b28:    20000012    ...     DCD    536870930
    __arm_cp.3_1
        0x00004b2c:    20000f7c    |..     DCD    536874876
    __arm_cp.3_2
        0x00004b30:    200010ef    ...     DCD    536875247
    __arm_cp.3_3
        0x00004b34:    20000f6c    l..     DCD    536874860
    __arm_cp.3_4
        0x00004b38:    20000f23    #..     DCD    536874787
    __arm_cp.3_5
        0x00004b3c:    20000014    ...     DCD    536870932
    __arm_cp.3_6
        0x00004b40:    20001138    8..     DCD    536875320
    __arm_cp.3_7
        0x00004b44:    20000f7a    z..     DCD    536874874
    __arm_cp.3_8
        0x00004b48:    20000f78    x..     DCD    536874872
    __arm_cp.3_9
        0x00004b4c:    20000f77    w..     DCD    536874871
    __arm_cp.3_10
        0x00004b50:    20000f7d    }..     DCD    536874877
    __arm_cp.3_11
        0x00004b54:    20000f68    h..     DCD    536874856
    __arm_cp.3_12
        0x00004b58:    20000f6a    j..     DCD    536874858
    __arm_cp.3_13
        0x00004b5c:    20000c88    ...     DCD    536874120
    __arm_cp.3_14
        0x00004b60:    20000f66    f..     DCD    536874854
    __arm_cp.3_15
        0x00004b64:    200010ba    ...     DCD    536875194
    __arm_cp.3_16
        0x00004b68:    20000099    ...     DCD    536871065
    __arm_cp.3_17
        0x00004b6c:    20000f75    u..     DCD    536874869
    __arm_cp.3_18
        0x00004b70:    20000eb5    ...     DCD    536874677
    __arm_cp.3_19
        0x00004b74:    20000f76    v..     DCD    536874870
    __arm_cp.3_20
        0x00004b78:    200009a0    ...     DCD    536873376
    __arm_cp.3_21
        0x00004b7c:    200006b8    ...     DCD    536872632
    $t
    SystemCoreClockUpdate
        0x00004b80:    b580        ..      PUSH     {r7,lr}
        0x00004b82:    b084        ..      SUB      sp,sp,#0x10
        0x00004b84:    4816        .H      LDR      r0,[pc,#88] ; [0x4be0] = 0x50000210
        0x00004b86:    6800        .h      LDR      r0,[r0,#0]
        0x00004b88:    2107        .!      MOVS     r1,#7
        0x00004b8a:    4008        .@      ANDS     r0,r0,r1
        0x00004b8c:    9002        ..      STR      r0,[sp,#8]
        0x00004b8e:    f7fcfbb9    ....    BL       CLK_GetPLLClockFreq ; 0x1304
        0x00004b92:    4914        .I      LDR      r1,[pc,#80] ; [0x4be4] = 0x20000004
        0x00004b94:    6008        .`      STR      r0,[r1,#0]
        0x00004b96:    9802        ..      LDR      r0,[sp,#8]
        0x00004b98:    2802        .(      CMP      r0,#2
        0x00004b9a:    d006        ..      BEQ      0x4baa ; SystemCoreClockUpdate + 42
        0x00004b9c:    e7ff        ..      B        0x4b9e ; SystemCoreClockUpdate + 30
        0x00004b9e:    9802        ..      LDR      r0,[sp,#8]
        0x00004ba0:    0081        ..      LSLS     r1,r0,#2
        0x00004ba2:    4811        .H      LDR      r0,[pc,#68] ; [0x4be8] = 0x6b98
        0x00004ba4:    5840        @X      LDR      r0,[r0,r1]
        0x00004ba6:    9003        ..      STR      r0,[sp,#0xc]
        0x00004ba8:    e003        ..      B        0x4bb2 ; SystemCoreClockUpdate + 50
        0x00004baa:    480e        .H      LDR      r0,[pc,#56] ; [0x4be4] = 0x20000004
        0x00004bac:    6800        .h      LDR      r0,[r0,#0]
        0x00004bae:    9003        ..      STR      r0,[sp,#0xc]
        0x00004bb0:    e7ff        ..      B        0x4bb2 ; SystemCoreClockUpdate + 50
        0x00004bb2:    480e        .H      LDR      r0,[pc,#56] ; [0x4bec] = 0x50000218
        0x00004bb4:    6800        .h      LDR      r0,[r0,#0]
        0x00004bb6:    210f        .!      MOVS     r1,#0xf
        0x00004bb8:    4008        .@      ANDS     r0,r0,r1
        0x00004bba:    1c40        @.      ADDS     r0,r0,#1
        0x00004bbc:    9001        ..      STR      r0,[sp,#4]
        0x00004bbe:    9803        ..      LDR      r0,[sp,#0xc]
        0x00004bc0:    9901        ..      LDR      r1,[sp,#4]
        0x00004bc2:    f7fbfb52    ..R.    BL       __aeabi_uidiv ; 0x26a
        0x00004bc6:    4601        .F      MOV      r1,r0
        0x00004bc8:    4809        .H      LDR      r0,[pc,#36] ; [0x4bf0] = 0x20000008
        0x00004bca:    6001        .`      STR      r1,[r0,#0]
        0x00004bcc:    6800        .h      LDR      r0,[r0,#0]
        0x00004bce:    4909        .I      LDR      r1,[pc,#36] ; [0x4bf4] = 0x7a120
        0x00004bd0:    1840        @.      ADDS     r0,r0,r1
        0x00004bd2:    4909        .I      LDR      r1,[pc,#36] ; [0x4bf8] = 0xf4240
        0x00004bd4:    f7fbfb49    ..I.    BL       __aeabi_uidiv ; 0x26a
        0x00004bd8:    4908        .I      LDR      r1,[pc,#32] ; [0x4bfc] = 0x20000000
        0x00004bda:    6008        .`      STR      r0,[r1,#0]
        0x00004bdc:    b004        ..      ADD      sp,sp,#0x10
        0x00004bde:    bd80        ..      POP      {r7,pc}
    $d
    __arm_cp.0_0
        0x00004be0:    50000210    ...P    DCD    1342177808
    __arm_cp.0_1
        0x00004be4:    20000004    ...     DCD    536870916
    __arm_cp.0_2
        0x00004be8:    00006b98    .k..    DCD    27544
    __arm_cp.0_3
        0x00004bec:    50000218    ...P    DCD    1342177816
    __arm_cp.0_4
        0x00004bf0:    20000008    ...     DCD    536870920
    __arm_cp.0_5
        0x00004bf4:    0007a120     ...    DCD    500000
    __arm_cp.0_6
        0x00004bf8:    000f4240    @B..    DCD    1000000
    __arm_cp.0_7
        0x00004bfc:    20000000    ...     DCD    536870912
    $t
    UART02_IRQHandler
        0x00004c00:    b580        ..      PUSH     {r7,lr}
        0x00004c02:    b088        ..      SUB      sp,sp,#0x20
        0x00004c04:    48c4        .H      LDR      r0,[pc,#784] ; [0x4f18] = 0x4015401c
        0x00004c06:    6800        .h      LDR      r0,[r0,#0]
        0x00004c08:    9007        ..      STR      r0,[sp,#0x1c]
        0x00004c0a:    a807        ..      ADD      r0,sp,#0x1c
        0x00004c0c:    7840        @x      LDRB     r0,[r0,#1]
        0x00004c0e:    07c0        ..      LSLS     r0,r0,#31
        0x00004c10:    2800        .(      CMP      r0,#0
        0x00004c12:    d100        ..      BNE      0x4c16 ; UART02_IRQHandler + 22
        0x00004c14:    e081        ..      B        0x4d1a ; UART02_IRQHandler + 282
        0x00004c16:    e7ff        ..      B        0x4c18 ; UART02_IRQHandler + 24
        0x00004c18:    48bf        .H      LDR      r0,[pc,#764] ; [0x4f18] = 0x4015401c
        0x00004c1a:    6800        .h      LDR      r0,[r0,#0]
        0x00004c1c:    07c0        ..      LSLS     r0,r0,#31
        0x00004c1e:    2800        .(      CMP      r0,#0
        0x00004c20:    d07a        z.      BEQ      0x4d18 ; UART02_IRQHandler + 280
        0x00004c22:    e7ff        ..      B        0x4c24 ; UART02_IRQHandler + 36
        0x00004c24:    48be        .H      LDR      r0,[pc,#760] ; [0x4f20] = 0x40154000
        0x00004c26:    6800        .h      LDR      r0,[r0,#0]
        0x00004c28:    a906        ..      ADD      r1,sp,#0x18
        0x00004c2a:    7008        .p      STRB     r0,[r1,#0]
        0x00004c2c:    49cf        .I      LDR      r1,[pc,#828] ; [0x4f6c] = 0x20000f76
        0x00004c2e:    2000        .       MOVS     r0,#0
        0x00004c30:    7008        .p      STRB     r0,[r1,#0]
        0x00004c32:    9906        ..      LDR      r1,[sp,#0x18]
        0x00004c34:    48ce        .H      LDR      r0,[pc,#824] ; [0x4f70] = 0x2000021a
        0x00004c36:    7803        .x      LDRB     r3,[r0,#0]
        0x00004c38:    4ace        .J      LDR      r2,[pc,#824] ; [0x4f74] = 0x20000208
        0x00004c3a:    54d1        .T      STRB     r1,[r2,r3]
        0x00004c3c:    7801        .x      LDRB     r1,[r0,#0]
        0x00004c3e:    1c49        I.      ADDS     r1,r1,#1
        0x00004c40:    7001        .p      STRB     r1,[r0,#0]
        0x00004c42:    4acd        .J      LDR      r2,[pc,#820] ; [0x4f78] = 0x20000218
        0x00004c44:    7811        .x      LDRB     r1,[r2,#0]
        0x00004c46:    1c49        I.      ADDS     r1,r1,#1
        0x00004c48:    7011        .p      STRB     r1,[r2,#0]
        0x00004c4a:    7800        .x      LDRB     r0,[r0,#0]
        0x00004c4c:    2810        .(      CMP      r0,#0x10
        0x00004c4e:    db04        ..      BLT      0x4c5a ; UART02_IRQHandler + 90
        0x00004c50:    e7ff        ..      B        0x4c52 ; UART02_IRQHandler + 82
        0x00004c52:    49c7        .I      LDR      r1,[pc,#796] ; [0x4f70] = 0x2000021a
        0x00004c54:    2000        .       MOVS     r0,#0
        0x00004c56:    7008        .p      STRB     r0,[r1,#0]
        0x00004c58:    e7ff        ..      B        0x4c5a ; UART02_IRQHandler + 90
        0x00004c5a:    48c6        .H      LDR      r0,[pc,#792] ; [0x4f74] = 0x20000208
        0x00004c5c:    7800        .x      LDRB     r0,[r0,#0]
        0x00004c5e:    49c7        .I      LDR      r1,[pc,#796] ; [0x4f7c] = 0x20000d54
        0x00004c60:    7809        .x      LDRB     r1,[r1,#0]
        0x00004c62:    4288        .B      CMP      r0,r1
        0x00004c64:    d008        ..      BEQ      0x4c78 ; UART02_IRQHandler + 120
        0x00004c66:    e7ff        ..      B        0x4c68 ; UART02_IRQHandler + 104
        0x00004c68:    49c1        .I      LDR      r1,[pc,#772] ; [0x4f70] = 0x2000021a
        0x00004c6a:    2000        .       MOVS     r0,#0
        0x00004c6c:    7008        .p      STRB     r0,[r1,#0]
        0x00004c6e:    49c2        .I      LDR      r1,[pc,#776] ; [0x4f78] = 0x20000218
        0x00004c70:    7008        .p      STRB     r0,[r1,#0]
        0x00004c72:    49c4        .I      LDR      r1,[pc,#784] ; [0x4f84] = 0x20000219
        0x00004c74:    7008        .p      STRB     r0,[r1,#0]
        0x00004c76:    e14d        M.      B        0x4f14 ; UART02_IRQHandler + 788
        0x00004c78:    48be        .H      LDR      r0,[pc,#760] ; [0x4f74] = 0x20000208
        0x00004c7a:    7840        @x      LDRB     r0,[r0,#1]
        0x00004c7c:    2803        .(      CMP      r0,#3
        0x00004c7e:    d10c        ..      BNE      0x4c9a ; UART02_IRQHandler + 154
        0x00004c80:    e7ff        ..      B        0x4c82 ; UART02_IRQHandler + 130
        0x00004c82:    48bb        .H      LDR      r0,[pc,#748] ; [0x4f70] = 0x2000021a
        0x00004c84:    7800        .x      LDRB     r0,[r0,#0]
        0x00004c86:    2802        .(      CMP      r0,#2
        0x00004c88:    db06        ..      BLT      0x4c98 ; UART02_IRQHandler + 152
        0x00004c8a:    e7ff        ..      B        0x4c8c ; UART02_IRQHandler + 140
        0x00004c8c:    48b9        .H      LDR      r0,[pc,#740] ; [0x4f74] = 0x20000208
        0x00004c8e:    7880        .x      LDRB     r0,[r0,#2]
        0x00004c90:    1d40        @.      ADDS     r0,r0,#5
        0x00004c92:    49bb        .I      LDR      r1,[pc,#748] ; [0x4f80] = 0x20000237
        0x00004c94:    7008        .p      STRB     r0,[r1,#0]
        0x00004c96:    e7ff        ..      B        0x4c98 ; UART02_IRQHandler + 152
        0x00004c98:    e003        ..      B        0x4ca2 ; UART02_IRQHandler + 162
        0x00004c9a:    49b9        .I      LDR      r1,[pc,#740] ; [0x4f80] = 0x20000237
        0x00004c9c:    2008        .       MOVS     r0,#8
        0x00004c9e:    7008        .p      STRB     r0,[r1,#0]
        0x00004ca0:    e7ff        ..      B        0x4ca2 ; UART02_IRQHandler + 162
        0x00004ca2:    48b5        .H      LDR      r0,[pc,#724] ; [0x4f78] = 0x20000218
        0x00004ca4:    7800        .x      LDRB     r0,[r0,#0]
        0x00004ca6:    49b6        .I      LDR      r1,[pc,#728] ; [0x4f80] = 0x20000237
        0x00004ca8:    7809        .x      LDRB     r1,[r1,#0]
        0x00004caa:    4288        .B      CMP      r0,r1
        0x00004cac:    db33        3.      BLT      0x4d16 ; UART02_IRQHandler + 278
        0x00004cae:    e7ff        ..      B        0x4cb0 ; UART02_IRQHandler + 176
        0x00004cb0:    a905        ..      ADD      r1,sp,#0x14
        0x00004cb2:    2000        .       MOVS     r0,#0
        0x00004cb4:    7008        .p      STRB     r0,[r1,#0]
        0x00004cb6:    e7ff        ..      B        0x4cb8 ; UART02_IRQHandler + 184
        0x00004cb8:    a805        ..      ADD      r0,sp,#0x14
        0x00004cba:    7800        .x      LDRB     r0,[r0,#0]
        0x00004cbc:    49b0        .I      LDR      r1,[pc,#704] ; [0x4f80] = 0x20000237
        0x00004cbe:    7809        .x      LDRB     r1,[r1,#0]
        0x00004cc0:    4288        .B      CMP      r0,r1
        0x00004cc2:    da1d        ..      BGE      0x4d00 ; UART02_IRQHandler + 256
        0x00004cc4:    e7ff        ..      B        0x4cc6 ; UART02_IRQHandler + 198
        0x00004cc6:    48af        .H      LDR      r0,[pc,#700] ; [0x4f84] = 0x20000219
        0x00004cc8:    7802        .x      LDRB     r2,[r0,#0]
        0x00004cca:    49aa        .I      LDR      r1,[pc,#680] ; [0x4f74] = 0x20000208
        0x00004ccc:    5c89        .\      LDRB     r1,[r1,r2]
        0x00004cce:    aa05        ..      ADD      r2,sp,#0x14
        0x00004cd0:    7813        .x      LDRB     r3,[r2,#0]
        0x00004cd2:    4aae        .J      LDR      r2,[pc,#696] ; [0x4f8c] = 0x20000fe2
        0x00004cd4:    54d1        .T      STRB     r1,[r2,r3]
        0x00004cd6:    4aa8        .J      LDR      r2,[pc,#672] ; [0x4f78] = 0x20000218
        0x00004cd8:    7811        .x      LDRB     r1,[r2,#0]
        0x00004cda:    1e49        I.      SUBS     r1,r1,#1
        0x00004cdc:    7011        .p      STRB     r1,[r2,#0]
        0x00004cde:    7801        .x      LDRB     r1,[r0,#0]
        0x00004ce0:    1c49        I.      ADDS     r1,r1,#1
        0x00004ce2:    7001        .p      STRB     r1,[r0,#0]
        0x00004ce4:    7800        .x      LDRB     r0,[r0,#0]
        0x00004ce6:    2810        .(      CMP      r0,#0x10
        0x00004ce8:    db04        ..      BLT      0x4cf4 ; UART02_IRQHandler + 244
        0x00004cea:    e7ff        ..      B        0x4cec ; UART02_IRQHandler + 236
        0x00004cec:    49a5        .I      LDR      r1,[pc,#660] ; [0x4f84] = 0x20000219
        0x00004cee:    2000        .       MOVS     r0,#0
        0x00004cf0:    7008        .p      STRB     r0,[r1,#0]
        0x00004cf2:    e7ff        ..      B        0x4cf4 ; UART02_IRQHandler + 244
        0x00004cf4:    e7ff        ..      B        0x4cf6 ; UART02_IRQHandler + 246
        0x00004cf6:    9805        ..      LDR      r0,[sp,#0x14]
        0x00004cf8:    1c40        @.      ADDS     r0,r0,#1
        0x00004cfa:    a905        ..      ADD      r1,sp,#0x14
        0x00004cfc:    7008        .p      STRB     r0,[r1,#0]
        0x00004cfe:    e7db        ..      B        0x4cb8 ; UART02_IRQHandler + 184
        0x00004d00:    499b        .I      LDR      r1,[pc,#620] ; [0x4f70] = 0x2000021a
        0x00004d02:    2000        .       MOVS     r0,#0
        0x00004d04:    7008        .p      STRB     r0,[r1,#0]
        0x00004d06:    499c        .I      LDR      r1,[pc,#624] ; [0x4f78] = 0x20000218
        0x00004d08:    7008        .p      STRB     r0,[r1,#0]
        0x00004d0a:    499e        .I      LDR      r1,[pc,#632] ; [0x4f84] = 0x20000219
        0x00004d0c:    7008        .p      STRB     r0,[r1,#0]
        0x00004d0e:    499e        .I      LDR      r1,[pc,#632] ; [0x4f88] = 0x20000ffb
        0x00004d10:    2001        .       MOVS     r0,#1
        0x00004d12:    7008        .p      STRB     r0,[r1,#0]
        0x00004d14:    e7ff        ..      B        0x4d16 ; UART02_IRQHandler + 278
        0x00004d16:    e77f        ..      B        0x4c18 ; UART02_IRQHandler + 24
        0x00004d18:    e7ff        ..      B        0x4d1a ; UART02_IRQHandler + 282
        0x00004d1a:    a807        ..      ADD      r0,sp,#0x1c
        0x00004d1c:    7840        @x      LDRB     r0,[r0,#1]
        0x00004d1e:    0780        ..      LSLS     r0,r0,#30
        0x00004d20:    2800        .(      CMP      r0,#0
        0x00004d22:    d53b        ;.      BPL      0x4d9c ; UART02_IRQHandler + 412
        0x00004d24:    e7ff        ..      B        0x4d26 ; UART02_IRQHandler + 294
        0x00004d26:    487d        }H      LDR      r0,[pc,#500] ; [0x4f1c] = 0x20000234
        0x00004d28:    7800        .x      LDRB     r0,[r0,#0]
        0x00004d2a:    2801        .(      CMP      r0,#1
        0x00004d2c:    db21        !.      BLT      0x4d72 ; UART02_IRQHandler + 370
        0x00004d2e:    e7ff        ..      B        0x4d30 ; UART02_IRQHandler + 304
        0x00004d30:    e7ff        ..      B        0x4d32 ; UART02_IRQHandler + 306
        0x00004d32:    487e        ~H      LDR      r0,[pc,#504] ; [0x4f2c] = 0x40154018
        0x00004d34:    6800        .h      LDR      r0,[r0,#0]
        0x00004d36:    2101        .!      MOVS     r1,#1
        0x00004d38:    05c9        ..      LSLS     r1,r1,#23
        0x00004d3a:    4008        .@      ANDS     r0,r0,r1
        0x00004d3c:    0dc0        ..      LSRS     r0,r0,#23
        0x00004d3e:    2800        .(      CMP      r0,#0
        0x00004d40:    d001        ..      BEQ      0x4d46 ; UART02_IRQHandler + 326
        0x00004d42:    e7ff        ..      B        0x4d44 ; UART02_IRQHandler + 324
        0x00004d44:    e7f5        ..      B        0x4d32 ; UART02_IRQHandler + 306
        0x00004d46:    487a        zH      LDR      r0,[pc,#488] ; [0x4f30] = 0x20000235
        0x00004d48:    7802        .x      LDRB     r2,[r0,#0]
        0x00004d4a:    497a        zI      LDR      r1,[pc,#488] ; [0x4f34] = 0x2000021b
        0x00004d4c:    5c89        .\      LDRB     r1,[r1,r2]
        0x00004d4e:    4a74        tJ      LDR      r2,[pc,#464] ; [0x4f20] = 0x40154000
        0x00004d50:    6011        .`      STR      r1,[r2,#0]
        0x00004d52:    4a72        rJ      LDR      r2,[pc,#456] ; [0x4f1c] = 0x20000234
        0x00004d54:    7811        .x      LDRB     r1,[r2,#0]
        0x00004d56:    1e49        I.      SUBS     r1,r1,#1
        0x00004d58:    7011        .p      STRB     r1,[r2,#0]
        0x00004d5a:    7801        .x      LDRB     r1,[r0,#0]
        0x00004d5c:    1c49        I.      ADDS     r1,r1,#1
        0x00004d5e:    7001        .p      STRB     r1,[r0,#0]
        0x00004d60:    7800        .x      LDRB     r0,[r0,#0]
        0x00004d62:    2819        .(      CMP      r0,#0x19
        0x00004d64:    db04        ..      BLT      0x4d70 ; UART02_IRQHandler + 368
        0x00004d66:    e7ff        ..      B        0x4d68 ; UART02_IRQHandler + 360
        0x00004d68:    4971        qI      LDR      r1,[pc,#452] ; [0x4f30] = 0x20000235
        0x00004d6a:    2000        .       MOVS     r0,#0
        0x00004d6c:    7008        .p      STRB     r0,[r1,#0]
        0x00004d6e:    e7ff        ..      B        0x4d70 ; UART02_IRQHandler + 368
        0x00004d70:    e013        ..      B        0x4d9a ; UART02_IRQHandler + 410
        0x00004d72:    486b        kH      LDR      r0,[pc,#428] ; [0x4f20] = 0x40154000
        0x00004d74:    9003        ..      STR      r0,[sp,#0xc]
        0x00004d76:    2102        .!      MOVS     r1,#2
        0x00004d78:    f000fba8    ....    BL       UART_DisableInt ; 0x54cc
        0x00004d7c:    9803        ..      LDR      r0,[sp,#0xc]
        0x00004d7e:    2101        .!      MOVS     r1,#1
        0x00004d80:    9104        ..      STR      r1,[sp,#0x10]
        0x00004d82:    f000fbc5    ....    BL       UART_EnableInt ; 0x5510
        0x00004d86:    200c        .       MOVS     r0,#0xc
        0x00004d88:    f7feff3a    ..:.    BL       NVIC_EnableIRQ ; 0x3c00
        0x00004d8c:    9804        ..      LDR      r0,[sp,#0x10]
        0x00004d8e:    4965        eI      LDR      r1,[pc,#404] ; [0x4f24] = 0x200010c2
        0x00004d90:    7008        .p      STRB     r0,[r1,#0]
        0x00004d92:    4965        eI      LDR      r1,[pc,#404] ; [0x4f28] = 0x20000f6e
        0x00004d94:    2000        .       MOVS     r0,#0
        0x00004d96:    8008        ..      STRH     r0,[r1,#0]
        0x00004d98:    e7ff        ..      B        0x4d9a ; UART02_IRQHandler + 410
        0x00004d9a:    e7ff        ..      B        0x4d9c ; UART02_IRQHandler + 412
        0x00004d9c:    4866        fH      LDR      r0,[pc,#408] ; [0x4f38] = 0x4005001c
        0x00004d9e:    6800        .h      LDR      r0,[r0,#0]
        0x00004da0:    9007        ..      STR      r0,[sp,#0x1c]
        0x00004da2:    a807        ..      ADD      r0,sp,#0x1c
        0x00004da4:    7840        @x      LDRB     r0,[r0,#1]
        0x00004da6:    07c0        ..      LSLS     r0,r0,#31
        0x00004da8:    2800        .(      CMP      r0,#0
        0x00004daa:    d072        r.      BEQ      0x4e92 ; UART02_IRQHandler + 658
        0x00004dac:    e7ff        ..      B        0x4dae ; UART02_IRQHandler + 430
        0x00004dae:    e7ff        ..      B        0x4db0 ; UART02_IRQHandler + 432
        0x00004db0:    4861        aH      LDR      r0,[pc,#388] ; [0x4f38] = 0x4005001c
        0x00004db2:    6800        .h      LDR      r0,[r0,#0]
        0x00004db4:    07c0        ..      LSLS     r0,r0,#31
        0x00004db6:    2800        .(      CMP      r0,#0
        0x00004db8:    d06a        j.      BEQ      0x4e90 ; UART02_IRQHandler + 656
        0x00004dba:    e7ff        ..      B        0x4dbc ; UART02_IRQHandler + 444
        0x00004dbc:    48b6        .H      LDR      r0,[pc,#728] ; [0x5098] = 0x40050000
        0x00004dbe:    6800        .h      LDR      r0,[r0,#0]
        0x00004dc0:    a906        ..      ADD      r1,sp,#0x18
        0x00004dc2:    7008        .p      STRB     r0,[r1,#0]
        0x00004dc4:    9906        ..      LDR      r1,[sp,#0x18]
        0x00004dc6:    4863        cH      LDR      r0,[pc,#396] ; [0x4f54] = 0x2000009b
        0x00004dc8:    7803        .x      LDRB     r3,[r0,#0]
        0x00004dca:    4a63        cJ      LDR      r2,[pc,#396] ; [0x4f58] = 0x20000035
        0x00004dcc:    54d1        .T      STRB     r1,[r2,r3]
        0x00004dce:    7801        .x      LDRB     r1,[r0,#0]
        0x00004dd0:    1c49        I.      ADDS     r1,r1,#1
        0x00004dd2:    7001        .p      STRB     r1,[r0,#0]
        0x00004dd4:    4a61        aJ      LDR      r2,[pc,#388] ; [0x4f5c] = 0x20000099
        0x00004dd6:    7811        .x      LDRB     r1,[r2,#0]
        0x00004dd8:    1c49        I.      ADDS     r1,r1,#1
        0x00004dda:    7011        .p      STRB     r1,[r2,#0]
        0x00004ddc:    7800        .x      LDRB     r0,[r0,#0]
        0x00004dde:    2864        d(      CMP      r0,#0x64
        0x00004de0:    db04        ..      BLT      0x4dec ; UART02_IRQHandler + 492
        0x00004de2:    e7ff        ..      B        0x4de4 ; UART02_IRQHandler + 484
        0x00004de4:    495b        [I      LDR      r1,[pc,#364] ; [0x4f54] = 0x2000009b
        0x00004de6:    2000        .       MOVS     r0,#0
        0x00004de8:    7008        .p      STRB     r0,[r1,#0]
        0x00004dea:    e7ff        ..      B        0x4dec ; UART02_IRQHandler + 492
        0x00004dec:    485a        ZH      LDR      r0,[pc,#360] ; [0x4f58] = 0x20000035
        0x00004dee:    7800        .x      LDRB     r0,[r0,#0]
        0x00004df0:    2855        U(      CMP      r0,#0x55
        0x00004df2:    d008        ..      BEQ      0x4e06 ; UART02_IRQHandler + 518
        0x00004df4:    e7ff        ..      B        0x4df6 ; UART02_IRQHandler + 502
        0x00004df6:    4957        WI      LDR      r1,[pc,#348] ; [0x4f54] = 0x2000009b
        0x00004df8:    2000        .       MOVS     r0,#0
        0x00004dfa:    7008        .p      STRB     r0,[r1,#0]
        0x00004dfc:    4957        WI      LDR      r1,[pc,#348] ; [0x4f5c] = 0x20000099
        0x00004dfe:    7008        .p      STRB     r0,[r1,#0]
        0x00004e00:    4957        WI      LDR      r1,[pc,#348] ; [0x4f60] = 0x2000009a
        0x00004e02:    7008        .p      STRB     r0,[r1,#0]
        0x00004e04:    e086        ..      B        0x4f14 ; UART02_IRQHandler + 788
        0x00004e06:    4855        UH      LDR      r0,[pc,#340] ; [0x4f5c] = 0x20000099
        0x00004e08:    7800        .x      LDRB     r0,[r0,#0]
        0x00004e0a:    2864        d(      CMP      r0,#0x64
        0x00004e0c:    db3f        ?.      BLT      0x4e8e ; UART02_IRQHandler + 654
        0x00004e0e:    e7ff        ..      B        0x4e10 ; UART02_IRQHandler + 528
        0x00004e10:    4851        QH      LDR      r0,[pc,#324] ; [0x4f58] = 0x20000035
        0x00004e12:    2163        c!      MOVS     r1,#0x63
        0x00004e14:    5c40        @\      LDRB     r0,[r0,r1]
        0x00004e16:    280a        .(      CMP      r0,#0xa
        0x00004e18:    d008        ..      BEQ      0x4e2c ; UART02_IRQHandler + 556
        0x00004e1a:    e7ff        ..      B        0x4e1c ; UART02_IRQHandler + 540
        0x00004e1c:    494d        MI      LDR      r1,[pc,#308] ; [0x4f54] = 0x2000009b
        0x00004e1e:    2000        .       MOVS     r0,#0
        0x00004e20:    7008        .p      STRB     r0,[r1,#0]
        0x00004e22:    494e        NI      LDR      r1,[pc,#312] ; [0x4f5c] = 0x20000099
        0x00004e24:    7008        .p      STRB     r0,[r1,#0]
        0x00004e26:    494e        NI      LDR      r1,[pc,#312] ; [0x4f60] = 0x2000009a
        0x00004e28:    7008        .p      STRB     r0,[r1,#0]
        0x00004e2a:    e073        s.      B        0x4f14 ; UART02_IRQHandler + 788
        0x00004e2c:    a905        ..      ADD      r1,sp,#0x14
        0x00004e2e:    2000        .       MOVS     r0,#0
        0x00004e30:    7008        .p      STRB     r0,[r1,#0]
        0x00004e32:    e7ff        ..      B        0x4e34 ; UART02_IRQHandler + 564
        0x00004e34:    a805        ..      ADD      r0,sp,#0x14
        0x00004e36:    7800        .x      LDRB     r0,[r0,#0]
        0x00004e38:    2863        c(      CMP      r0,#0x63
        0x00004e3a:    dc1d        ..      BGT      0x4e78 ; UART02_IRQHandler + 632
        0x00004e3c:    e7ff        ..      B        0x4e3e ; UART02_IRQHandler + 574
        0x00004e3e:    4848        HH      LDR      r0,[pc,#288] ; [0x4f60] = 0x2000009a
        0x00004e40:    7802        .x      LDRB     r2,[r0,#0]
        0x00004e42:    4945        EI      LDR      r1,[pc,#276] ; [0x4f58] = 0x20000035
        0x00004e44:    5c89        .\      LDRB     r1,[r1,r2]
        0x00004e46:    aa05        ..      ADD      r2,sp,#0x14
        0x00004e48:    7813        .x      LDRB     r3,[r2,#0]
        0x00004e4a:    4a47        GJ      LDR      r2,[pc,#284] ; [0x4f68] = 0x20000f7e
        0x00004e4c:    54d1        .T      STRB     r1,[r2,r3]
        0x00004e4e:    4a43        CJ      LDR      r2,[pc,#268] ; [0x4f5c] = 0x20000099
        0x00004e50:    7811        .x      LDRB     r1,[r2,#0]
        0x00004e52:    1e49        I.      SUBS     r1,r1,#1
        0x00004e54:    7011        .p      STRB     r1,[r2,#0]
        0x00004e56:    7801        .x      LDRB     r1,[r0,#0]
        0x00004e58:    1c49        I.      ADDS     r1,r1,#1
        0x00004e5a:    7001        .p      STRB     r1,[r0,#0]
        0x00004e5c:    7800        .x      LDRB     r0,[r0,#0]
        0x00004e5e:    2864        d(      CMP      r0,#0x64
        0x00004e60:    db04        ..      BLT      0x4e6c ; UART02_IRQHandler + 620
        0x00004e62:    e7ff        ..      B        0x4e64 ; UART02_IRQHandler + 612
        0x00004e64:    493e        >I      LDR      r1,[pc,#248] ; [0x4f60] = 0x2000009a
        0x00004e66:    2000        .       MOVS     r0,#0
        0x00004e68:    7008        .p      STRB     r0,[r1,#0]
        0x00004e6a:    e7ff        ..      B        0x4e6c ; UART02_IRQHandler + 620
        0x00004e6c:    e7ff        ..      B        0x4e6e ; UART02_IRQHandler + 622
        0x00004e6e:    9805        ..      LDR      r0,[sp,#0x14]
        0x00004e70:    1c40        @.      ADDS     r0,r0,#1
        0x00004e72:    a905        ..      ADD      r1,sp,#0x14
        0x00004e74:    7008        .p      STRB     r0,[r1,#0]
        0x00004e76:    e7dd        ..      B        0x4e34 ; UART02_IRQHandler + 564
        0x00004e78:    4936        6I      LDR      r1,[pc,#216] ; [0x4f54] = 0x2000009b
        0x00004e7a:    2000        .       MOVS     r0,#0
        0x00004e7c:    7008        .p      STRB     r0,[r1,#0]
        0x00004e7e:    4937        7I      LDR      r1,[pc,#220] ; [0x4f5c] = 0x20000099
        0x00004e80:    7008        .p      STRB     r0,[r1,#0]
        0x00004e82:    4937        7I      LDR      r1,[pc,#220] ; [0x4f60] = 0x2000009a
        0x00004e84:    7008        .p      STRB     r0,[r1,#0]
        0x00004e86:    4937        7I      LDR      r1,[pc,#220] ; [0x4f64] = 0x2000009c
        0x00004e88:    2001        .       MOVS     r0,#1
        0x00004e8a:    7008        .p      STRB     r0,[r1,#0]
        0x00004e8c:    e7ff        ..      B        0x4e8e ; UART02_IRQHandler + 654
        0x00004e8e:    e78f        ..      B        0x4db0 ; UART02_IRQHandler + 432
        0x00004e90:    e7ff        ..      B        0x4e92 ; UART02_IRQHandler + 658
        0x00004e92:    a807        ..      ADD      r0,sp,#0x1c
        0x00004e94:    7840        @x      LDRB     r0,[r0,#1]
        0x00004e96:    0780        ..      LSLS     r0,r0,#30
        0x00004e98:    2800        .(      CMP      r0,#0
        0x00004e9a:    d53b        ;.      BPL      0x4f14 ; UART02_IRQHandler + 788
        0x00004e9c:    e7ff        ..      B        0x4e9e ; UART02_IRQHandler + 670
        0x00004e9e:    4827        'H      LDR      r0,[pc,#156] ; [0x4f3c] = 0x20000101
        0x00004ea0:    7800        .x      LDRB     r0,[r0,#0]
        0x00004ea2:    2801        .(      CMP      r0,#1
        0x00004ea4:    db21        !.      BLT      0x4eea ; UART02_IRQHandler + 746
        0x00004ea6:    e7ff        ..      B        0x4ea8 ; UART02_IRQHandler + 680
        0x00004ea8:    e7ff        ..      B        0x4eaa ; UART02_IRQHandler + 682
        0x00004eaa:    4827        'H      LDR      r0,[pc,#156] ; [0x4f48] = 0x40050018
        0x00004eac:    6800        .h      LDR      r0,[r0,#0]
        0x00004eae:    2101        .!      MOVS     r1,#1
        0x00004eb0:    05c9        ..      LSLS     r1,r1,#23
        0x00004eb2:    4008        .@      ANDS     r0,r0,r1
        0x00004eb4:    0dc0        ..      LSRS     r0,r0,#23
        0x00004eb6:    2800        .(      CMP      r0,#0
        0x00004eb8:    d001        ..      BEQ      0x4ebe ; UART02_IRQHandler + 702
        0x00004eba:    e7ff        ..      B        0x4ebc ; UART02_IRQHandler + 700
        0x00004ebc:    e7f5        ..      B        0x4eaa ; UART02_IRQHandler + 682
        0x00004ebe:    4823        #H      LDR      r0,[pc,#140] ; [0x4f4c] = 0x20000102
        0x00004ec0:    7802        .x      LDRB     r2,[r0,#0]
        0x00004ec2:    4923        #I      LDR      r1,[pc,#140] ; [0x4f50] = 0x2000009d
        0x00004ec4:    5c89        .\      LDRB     r1,[r1,r2]
        0x00004ec6:    4a74        tJ      LDR      r2,[pc,#464] ; [0x5098] = 0x40050000
        0x00004ec8:    6011        .`      STR      r1,[r2,#0]
        0x00004eca:    4a1c        .J      LDR      r2,[pc,#112] ; [0x4f3c] = 0x20000101
        0x00004ecc:    7811        .x      LDRB     r1,[r2,#0]
        0x00004ece:    1e49        I.      SUBS     r1,r1,#1
        0x00004ed0:    7011        .p      STRB     r1,[r2,#0]
        0x00004ed2:    7801        .x      LDRB     r1,[r0,#0]
        0x00004ed4:    1c49        I.      ADDS     r1,r1,#1
        0x00004ed6:    7001        .p      STRB     r1,[r0,#0]
        0x00004ed8:    7800        .x      LDRB     r0,[r0,#0]
        0x00004eda:    2864        d(      CMP      r0,#0x64
        0x00004edc:    db04        ..      BLT      0x4ee8 ; UART02_IRQHandler + 744
        0x00004ede:    e7ff        ..      B        0x4ee0 ; UART02_IRQHandler + 736
        0x00004ee0:    491a        .I      LDR      r1,[pc,#104] ; [0x4f4c] = 0x20000102
        0x00004ee2:    2000        .       MOVS     r0,#0
        0x00004ee4:    7008        .p      STRB     r0,[r1,#0]
        0x00004ee6:    e7ff        ..      B        0x4ee8 ; UART02_IRQHandler + 744
        0x00004ee8:    e013        ..      B        0x4f12 ; UART02_IRQHandler + 786
        0x00004eea:    486b        kH      LDR      r0,[pc,#428] ; [0x5098] = 0x40050000
        0x00004eec:    9001        ..      STR      r0,[sp,#4]
        0x00004eee:    2102        .!      MOVS     r1,#2
        0x00004ef0:    f000faec    ....    BL       UART_DisableInt ; 0x54cc
        0x00004ef4:    9801        ..      LDR      r0,[sp,#4]
        0x00004ef6:    2101        .!      MOVS     r1,#1
        0x00004ef8:    9102        ..      STR      r1,[sp,#8]
        0x00004efa:    f000fb09    ....    BL       UART_EnableInt ; 0x5510
        0x00004efe:    200c        .       MOVS     r0,#0xc
        0x00004f00:    f7fefe7e    ..~.    BL       NVIC_EnableIRQ ; 0x3c00
        0x00004f04:    9802        ..      LDR      r0,[sp,#8]
        0x00004f06:    4a0e        .J      LDR      r2,[pc,#56] ; [0x4f40] = 0x20000f72
        0x00004f08:    2100        .!      MOVS     r1,#0
        0x00004f0a:    8011        ..      STRH     r1,[r2,#0]
        0x00004f0c:    490d        .I      LDR      r1,[pc,#52] ; [0x4f44] = 0x200010c4
        0x00004f0e:    7008        .p      STRB     r0,[r1,#0]
        0x00004f10:    e7ff        ..      B        0x4f12 ; UART02_IRQHandler + 786
        0x00004f12:    e7ff        ..      B        0x4f14 ; UART02_IRQHandler + 788
        0x00004f14:    b008        ..      ADD      sp,sp,#0x20
        0x00004f16:    bd80        ..      POP      {r7,pc}
    $d
    __arm_cp.7_0
        0x00004f18:    4015401c    .@.@    DCD    1075134492
    __arm_cp.7_1
        0x00004f1c:    20000234    4..     DCD    536871476
    __arm_cp.7_2
        0x00004f20:    40154000    .@.@    DCD    1075134464
    __arm_cp.7_3
        0x00004f24:    200010c2    ...     DCD    536875202
    __arm_cp.7_4
        0x00004f28:    20000f6e    n..     DCD    536874862
    __arm_cp.7_5
        0x00004f2c:    40154018    .@.@    DCD    1075134488
    __arm_cp.7_6
        0x00004f30:    20000235    5..     DCD    536871477
    __arm_cp.7_7
        0x00004f34:    2000021b    ...     DCD    536871451
    __arm_cp.7_8
        0x00004f38:    4005001c    ...@    DCD    1074069532
    __arm_cp.7_9
        0x00004f3c:    20000101    ...     DCD    536871169
    __arm_cp.7_11
        0x00004f40:    20000f72    r..     DCD    536874866
    __arm_cp.7_12
        0x00004f44:    200010c4    ...     DCD    536875204
    __arm_cp.7_13
        0x00004f48:    40050018    ...@    DCD    1074069528
    __arm_cp.7_14
        0x00004f4c:    20000102    ...     DCD    536871170
    __arm_cp.7_15
        0x00004f50:    2000009d    ...     DCD    536871069
    __arm_cp.7_16
        0x00004f54:    2000009b    ...     DCD    536871067
    __arm_cp.7_17
        0x00004f58:    20000035    5..     DCD    536870965
    __arm_cp.7_18
        0x00004f5c:    20000099    ...     DCD    536871065
    __arm_cp.7_19
        0x00004f60:    2000009a    ...     DCD    536871066
    __arm_cp.7_20
        0x00004f64:    2000009c    ...     DCD    536871068
    __arm_cp.7_21
        0x00004f68:    20000f7e    ~..     DCD    536874878
    __arm_cp.7_22
        0x00004f6c:    20000f76    v..     DCD    536874870
    __arm_cp.7_23
        0x00004f70:    2000021a    ...     DCD    536871450
    __arm_cp.7_24
        0x00004f74:    20000208    ...     DCD    536871432
    __arm_cp.7_25
        0x00004f78:    20000218    ...     DCD    536871448
    __arm_cp.7_26
        0x00004f7c:    20000d54    T..     DCD    536874324
    __arm_cp.7_27
        0x00004f80:    20000237    7..     DCD    536871479
    __arm_cp.7_28
        0x00004f84:    20000219    ...     DCD    536871449
    __arm_cp.7_29
        0x00004f88:    20000ffb    ...     DCD    536875003
    __arm_cp.7_30
        0x00004f8c:    20000fe2    ...     DCD    536874978
    $t
    UART0_Init
        0x00004f90:    b510        ..      PUSH     {r4,lr}
        0x00004f92:    b08a        ..      SUB      sp,sp,#0x28
        0x00004f94:    48f1        .H      LDR      r0,[pc,#964] ; [0x535c] = 0x1518000
        0x00004f96:    9007        ..      STR      r0,[sp,#0x1c]
        0x00004f98:    2000        .       MOVS     r0,#0
        0x00004f9a:    9001        ..      STR      r0,[sp,#4]
        0x00004f9c:    9005        ..      STR      r0,[sp,#0x14]
        0x00004f9e:    49f0        .I      LDR      r1,[pc,#960] ; [0x5360] = 0xb71b00
        0x00004fa0:    9104        ..      STR      r1,[sp,#0x10]
        0x00004fa2:    2101        .!      MOVS     r1,#1
        0x00004fa4:    03c9        ..      LSLS     r1,r1,#15
        0x00004fa6:    9106        ..      STR      r1,[sp,#0x18]
        0x00004fa8:    9003        ..      STR      r0,[sp,#0xc]
        0x00004faa:    20e1        .       MOVS     r0,#0xe1
        0x00004fac:    0200        ..      LSLS     r0,r0,#8
        0x00004fae:    9002        ..      STR      r0,[sp,#8]
        0x00004fb0:    4834        4H      LDR      r0,[pc,#208] ; [0x5084] = 0x4000010
        0x00004fb2:    f7fff8b3    ....    BL       SYS_ResetModule ; 0x411c
        0x00004fb6:    9a01        ..      LDR      r2,[sp,#4]
        0x00004fb8:    48eb        .H      LDR      r0,[pc,#940] ; [0x5368] = 0x50000214
        0x00004fba:    6800        .h      LDR      r0,[r0,#0]
        0x00004fbc:    2103        .!      MOVS     r1,#3
        0x00004fbe:    060b        ..      LSLS     r3,r1,#24
        0x00004fc0:    4018        .@      ANDS     r0,r0,r3
        0x00004fc2:    0e03        ..      LSRS     r3,r0,#24
        0x00004fc4:    a809        ..      ADD      r0,sp,#0x24
        0x00004fc6:    7003        .p      STRB     r3,[r0,#0]
        0x00004fc8:    4be8        .K      LDR      r3,[pc,#928] ; [0x536c] = 0x50000218
        0x00004fca:    681b        .h      LDR      r3,[r3,#0]
        0x00004fcc:    240f        .$      MOVS     r4,#0xf
        0x00004fce:    0224        $.      LSLS     r4,r4,#8
        0x00004fd0:    4023        #@      ANDS     r3,r3,r4
        0x00004fd2:    0a1b        ..      LSRS     r3,r3,#8
        0x00004fd4:    ac08        ..      ADD      r4,sp,#0x20
        0x00004fd6:    7023        #p      STRB     r3,[r4,#0]
        0x00004fd8:    4b2b        +K      LDR      r3,[pc,#172] ; [0x5088] = 0x40050030
        0x00004fda:    601a        .`      STR      r2,[r3,#0]
        0x00004fdc:    4a2b        +J      LDR      r2,[pc,#172] ; [0x508c] = 0x4005000c
        0x00004fde:    6011        .`      STR      r1,[r2,#0]
        0x00004fe0:    4a2b        +J      LDR      r2,[pc,#172] ; [0x5090] = 0x40050008
        0x00004fe2:    6811        .h      LDR      r1,[r2,#0]
        0x00004fe4:    4be8        .K      LDR      r3,[pc,#928] ; [0x5388] = 0xfff0ff0f
        0x00004fe6:    4019        .@      ANDS     r1,r1,r3
        0x00004fe8:    6011        .`      STR      r1,[r2,#0]
        0x00004fea:    7800        .x      LDRB     r0,[r0,#0]
        0x00004fec:    2801        .(      CMP      r0,#1
        0x00004fee:    d108        ..      BNE      0x5002 ; UART0_Init + 114
        0x00004ff0:    e7ff        ..      B        0x4ff2 ; UART0_Init + 98
        0x00004ff2:    f7fcf9d3    ....    BL       CLK_GetPLLClockFreq ; 0x139c
        0x00004ff6:    a909        ..      ADD      r1,sp,#0x24
        0x00004ff8:    7809        .x      LDRB     r1,[r1,#0]
        0x00004ffa:    008a        ..      LSLS     r2,r1,#2
        0x00004ffc:    a904        ..      ADD      r1,sp,#0x10
        0x00004ffe:    5088        .P      STR      r0,[r1,r2]
        0x00005000:    e7ff        ..      B        0x5002 ; UART0_Init + 114
        0x00005002:    9802        ..      LDR      r0,[sp,#8]
        0x00005004:    2800        .(      CMP      r0,#0
        0x00005006:    d032        2.      BEQ      0x506e ; UART0_Init + 222
        0x00005008:    e7ff        ..      B        0x500a ; UART0_Init + 122
        0x0000500a:    a809        ..      ADD      r0,sp,#0x24
        0x0000500c:    7800        .x      LDRB     r0,[r0,#0]
        0x0000500e:    0081        ..      LSLS     r1,r0,#2
        0x00005010:    a804        ..      ADD      r0,sp,#0x10
        0x00005012:    5840        @X      LDR      r0,[r0,r1]
        0x00005014:    a908        ..      ADD      r1,sp,#0x20
        0x00005016:    7809        .x      LDRB     r1,[r1,#0]
        0x00005018:    1c49        I.      ADDS     r1,r1,#1
        0x0000501a:    f7fbf926    ..&.    BL       __aeabi_uidiv ; 0x26a
        0x0000501e:    9902        ..      LDR      r1,[sp,#8]
        0x00005020:    084a        J.      LSRS     r2,r1,#1
        0x00005022:    1880        ..      ADDS     r0,r0,r2
        0x00005024:    f7fbf921    ..!.    BL       __aeabi_uidiv ; 0x26a
        0x00005028:    1e80        ..      SUBS     r0,r0,#2
        0x0000502a:    9003        ..      STR      r0,[sp,#0xc]
        0x0000502c:    a803        ..      ADD      r0,sp,#0xc
        0x0000502e:    8840        @.      LDRH     r0,[r0,#2]
        0x00005030:    2800        .(      CMP      r0,#0
        0x00005032:    d014        ..      BEQ      0x505e ; UART0_Init + 206
        0x00005034:    e7ff        ..      B        0x5036 ; UART0_Init + 166
        0x00005036:    a809        ..      ADD      r0,sp,#0x24
        0x00005038:    7800        .x      LDRB     r0,[r0,#0]
        0x0000503a:    0081        ..      LSLS     r1,r0,#2
        0x0000503c:    a804        ..      ADD      r0,sp,#0x10
        0x0000503e:    5840        @X      LDR      r0,[r0,r1]
        0x00005040:    a908        ..      ADD      r1,sp,#0x20
        0x00005042:    7809        .x      LDRB     r1,[r1,#0]
        0x00005044:    1c49        I.      ADDS     r1,r1,#1
        0x00005046:    f7fbf910    ....    BL       __aeabi_uidiv ; 0x26a
        0x0000504a:    9902        ..      LDR      r1,[sp,#8]
        0x0000504c:    00ca        ..      LSLS     r2,r1,#3
        0x0000504e:    1880        ..      ADDS     r0,r0,r2
        0x00005050:    f7fbf90b    ....    BL       __aeabi_uidiv ; 0x26a
        0x00005054:    0900        ..      LSRS     r0,r0,#4
        0x00005056:    1e80        ..      SUBS     r0,r0,#2
        0x00005058:    490e        .I      LDR      r1,[pc,#56] ; [0x5094] = 0x40050024
        0x0000505a:    6008        .`      STR      r0,[r1,#0]
        0x0000505c:    e006        ..      B        0x506c ; UART0_Init + 220
        0x0000505e:    9803        ..      LDR      r0,[sp,#0xc]
        0x00005060:    2103        .!      MOVS     r1,#3
        0x00005062:    0709        ..      LSLS     r1,r1,#28
        0x00005064:    4308        .C      ORRS     r0,r0,r1
        0x00005066:    490b        .I      LDR      r1,[pc,#44] ; [0x5094] = 0x40050024
        0x00005068:    6008        .`      STR      r0,[r1,#0]
        0x0000506a:    e7ff        ..      B        0x506c ; UART0_Init + 220
        0x0000506c:    e7ff        ..      B        0x506e ; UART0_Init + 222
        0x0000506e:    480a        .H      LDR      r0,[pc,#40] ; [0x5098] = 0x40050000
        0x00005070:    2101        .!      MOVS     r1,#1
        0x00005072:    f000fa4d    ..M.    BL       UART_EnableInt ; 0x5510
        0x00005076:    200c        .       MOVS     r0,#0xc
        0x00005078:    f7fefdc2    ....    BL       NVIC_EnableIRQ ; 0x3c00
        0x0000507c:    f7fdf892    ....    BL       DisableHostUartTx ; 0x21a4
        0x00005080:    b00a        ..      ADD      sp,sp,#0x28
        0x00005082:    bd10        ..      POP      {r4,pc}
    $d
    __arm_cp.10_2
        0x00005084:    04000010    ....    DCD    67108880
    __arm_cp.10_5
        0x00005088:    40050030    0..@    DCD    1074069552
    __arm_cp.10_6
        0x0000508c:    4005000c    ...@    DCD    1074069516
    __arm_cp.10_7
        0x00005090:    40050008    ...@    DCD    1074069512
    __arm_cp.10_9
        0x00005094:    40050024    $..@    DCD    1074069540
    __arm_cp.10_10
        0x00005098:    40050000    ...@    DCD    1074069504
    $t
    UART1_IRQHandler
        0x0000509c:    b580        ..      PUSH     {r7,lr}
        0x0000509e:    b086        ..      SUB      sp,sp,#0x18
        0x000050a0:    4860        `H      LDR      r0,[pc,#384] ; [0x5224] = 0x4015001c
        0x000050a2:    6800        .h      LDR      r0,[r0,#0]
        0x000050a4:    9005        ..      STR      r0,[sp,#0x14]
        0x000050a6:    a805        ..      ADD      r0,sp,#0x14
        0x000050a8:    7840        @x      LDRB     r0,[r0,#1]
        0x000050aa:    07c0        ..      LSLS     r0,r0,#31
        0x000050ac:    2800        .(      CMP      r0,#0
        0x000050ae:    d072        r.      BEQ      0x5196 ; UART1_IRQHandler + 250
        0x000050b0:    e7ff        ..      B        0x50b2 ; UART1_IRQHandler + 22
        0x000050b2:    e7ff        ..      B        0x50b4 ; UART1_IRQHandler + 24
        0x000050b4:    485b        [H      LDR      r0,[pc,#364] ; [0x5224] = 0x4015001c
        0x000050b6:    6800        .h      LDR      r0,[r0,#0]
        0x000050b8:    07c0        ..      LSLS     r0,r0,#31
        0x000050ba:    2800        .(      CMP      r0,#0
        0x000050bc:    d06a        j.      BEQ      0x5194 ; UART1_IRQHandler + 248
        0x000050be:    e7ff        ..      B        0x50c0 ; UART1_IRQHandler + 36
        0x000050c0:    48b3        .H      LDR      r0,[pc,#716] ; [0x5390] = 0x40150000
        0x000050c2:    6800        .h      LDR      r0,[r0,#0]
        0x000050c4:    a904        ..      ADD      r1,sp,#0x10
        0x000050c6:    7008        .p      STRB     r0,[r1,#0]
        0x000050c8:    9904        ..      LDR      r1,[sp,#0x10]
        0x000050ca:    485d        ]H      LDR      r0,[pc,#372] ; [0x5240] = 0x20000eb7
        0x000050cc:    7803        .x      LDRB     r3,[r0,#0]
        0x000050ce:    4a5d        ]J      LDR      r2,[pc,#372] ; [0x5244] = 0x20000e51
        0x000050d0:    54d1        .T      STRB     r1,[r2,r3]
        0x000050d2:    7801        .x      LDRB     r1,[r0,#0]
        0x000050d4:    1c49        I.      ADDS     r1,r1,#1
        0x000050d6:    7001        .p      STRB     r1,[r0,#0]
        0x000050d8:    4a5b        [J      LDR      r2,[pc,#364] ; [0x5248] = 0x20000eb5
        0x000050da:    7811        .x      LDRB     r1,[r2,#0]
        0x000050dc:    1c49        I.      ADDS     r1,r1,#1
        0x000050de:    7011        .p      STRB     r1,[r2,#0]
        0x000050e0:    7800        .x      LDRB     r0,[r0,#0]
        0x000050e2:    2864        d(      CMP      r0,#0x64
        0x000050e4:    db04        ..      BLT      0x50f0 ; UART1_IRQHandler + 84
        0x000050e6:    e7ff        ..      B        0x50e8 ; UART1_IRQHandler + 76
        0x000050e8:    4955        UI      LDR      r1,[pc,#340] ; [0x5240] = 0x20000eb7
        0x000050ea:    2000        .       MOVS     r0,#0
        0x000050ec:    7008        .p      STRB     r0,[r1,#0]
        0x000050ee:    e7ff        ..      B        0x50f0 ; UART1_IRQHandler + 84
        0x000050f0:    4854        TH      LDR      r0,[pc,#336] ; [0x5244] = 0x20000e51
        0x000050f2:    7800        .x      LDRB     r0,[r0,#0]
        0x000050f4:    2855        U(      CMP      r0,#0x55
        0x000050f6:    d008        ..      BEQ      0x510a ; UART1_IRQHandler + 110
        0x000050f8:    e7ff        ..      B        0x50fa ; UART1_IRQHandler + 94
        0x000050fa:    4951        QI      LDR      r1,[pc,#324] ; [0x5240] = 0x20000eb7
        0x000050fc:    2000        .       MOVS     r0,#0
        0x000050fe:    7008        .p      STRB     r0,[r1,#0]
        0x00005100:    4951        QI      LDR      r1,[pc,#324] ; [0x5248] = 0x20000eb5
        0x00005102:    7008        .p      STRB     r0,[r1,#0]
        0x00005104:    4951        QI      LDR      r1,[pc,#324] ; [0x524c] = 0x20000eb6
        0x00005106:    7008        .p      STRB     r0,[r1,#0]
        0x00005108:    e7ff        ..      B        0x510a ; UART1_IRQHandler + 110
        0x0000510a:    484f        OH      LDR      r0,[pc,#316] ; [0x5248] = 0x20000eb5
        0x0000510c:    7800        .x      LDRB     r0,[r0,#0]
        0x0000510e:    2864        d(      CMP      r0,#0x64
        0x00005110:    db3f        ?.      BLT      0x5192 ; UART1_IRQHandler + 246
        0x00005112:    e7ff        ..      B        0x5114 ; UART1_IRQHandler + 120
        0x00005114:    484b        KH      LDR      r0,[pc,#300] ; [0x5244] = 0x20000e51
        0x00005116:    2163        c!      MOVS     r1,#0x63
        0x00005118:    5c40        @\      LDRB     r0,[r0,r1]
        0x0000511a:    280a        .(      CMP      r0,#0xa
        0x0000511c:    d008        ..      BEQ      0x5130 ; UART1_IRQHandler + 148
        0x0000511e:    e7ff        ..      B        0x5120 ; UART1_IRQHandler + 132
        0x00005120:    4947        GI      LDR      r1,[pc,#284] ; [0x5240] = 0x20000eb7
        0x00005122:    2000        .       MOVS     r0,#0
        0x00005124:    7008        .p      STRB     r0,[r1,#0]
        0x00005126:    4948        HI      LDR      r1,[pc,#288] ; [0x5248] = 0x20000eb5
        0x00005128:    7008        .p      STRB     r0,[r1,#0]
        0x0000512a:    4948        HI      LDR      r1,[pc,#288] ; [0x524c] = 0x20000eb6
        0x0000512c:    7008        .p      STRB     r0,[r1,#0]
        0x0000512e:    e076        v.      B        0x521e ; UART1_IRQHandler + 386
        0x00005130:    a903        ..      ADD      r1,sp,#0xc
        0x00005132:    2000        .       MOVS     r0,#0
        0x00005134:    7008        .p      STRB     r0,[r1,#0]
        0x00005136:    e7ff        ..      B        0x5138 ; UART1_IRQHandler + 156
        0x00005138:    a803        ..      ADD      r0,sp,#0xc
        0x0000513a:    7800        .x      LDRB     r0,[r0,#0]
        0x0000513c:    2863        c(      CMP      r0,#0x63
        0x0000513e:    dc1d        ..      BGT      0x517c ; UART1_IRQHandler + 224
        0x00005140:    e7ff        ..      B        0x5142 ; UART1_IRQHandler + 166
        0x00005142:    4842        BH      LDR      r0,[pc,#264] ; [0x524c] = 0x20000eb6
        0x00005144:    7802        .x      LDRB     r2,[r0,#0]
        0x00005146:    493f        ?I      LDR      r1,[pc,#252] ; [0x5244] = 0x20000e51
        0x00005148:    5c89        .\      LDRB     r1,[r1,r2]
        0x0000514a:    aa03        ..      ADD      r2,sp,#0xc
        0x0000514c:    7813        .x      LDRB     r3,[r2,#0]
        0x0000514e:    4a41        AJ      LDR      r2,[pc,#260] ; [0x5254] = 0x20000ffc
        0x00005150:    54d1        .T      STRB     r1,[r2,r3]
        0x00005152:    4a3d        =J      LDR      r2,[pc,#244] ; [0x5248] = 0x20000eb5
        0x00005154:    7811        .x      LDRB     r1,[r2,#0]
        0x00005156:    1e49        I.      SUBS     r1,r1,#1
        0x00005158:    7011        .p      STRB     r1,[r2,#0]
        0x0000515a:    7801        .x      LDRB     r1,[r0,#0]
        0x0000515c:    1c49        I.      ADDS     r1,r1,#1
        0x0000515e:    7001        .p      STRB     r1,[r0,#0]
        0x00005160:    7800        .x      LDRB     r0,[r0,#0]
        0x00005162:    2864        d(      CMP      r0,#0x64
        0x00005164:    db04        ..      BLT      0x5170 ; UART1_IRQHandler + 212
        0x00005166:    e7ff        ..      B        0x5168 ; UART1_IRQHandler + 204
        0x00005168:    4938        8I      LDR      r1,[pc,#224] ; [0x524c] = 0x20000eb6
        0x0000516a:    2000        .       MOVS     r0,#0
        0x0000516c:    7008        .p      STRB     r0,[r1,#0]
        0x0000516e:    e7ff        ..      B        0x5170 ; UART1_IRQHandler + 212
        0x00005170:    e7ff        ..      B        0x5172 ; UART1_IRQHandler + 214
        0x00005172:    9803        ..      LDR      r0,[sp,#0xc]
        0x00005174:    1c40        @.      ADDS     r0,r0,#1
        0x00005176:    a903        ..      ADD      r1,sp,#0xc
        0x00005178:    7008        .p      STRB     r0,[r1,#0]
        0x0000517a:    e7dd        ..      B        0x5138 ; UART1_IRQHandler + 156
        0x0000517c:    4930        0I      LDR      r1,[pc,#192] ; [0x5240] = 0x20000eb7
        0x0000517e:    2000        .       MOVS     r0,#0
        0x00005180:    7008        .p      STRB     r0,[r1,#0]
        0x00005182:    4931        1I      LDR      r1,[pc,#196] ; [0x5248] = 0x20000eb5
        0x00005184:    7008        .p      STRB     r0,[r1,#0]
        0x00005186:    4931        1I      LDR      r1,[pc,#196] ; [0x524c] = 0x20000eb6
        0x00005188:    7008        .p      STRB     r0,[r1,#0]
        0x0000518a:    4931        1I      LDR      r1,[pc,#196] ; [0x5250] = 0x20000eb8
        0x0000518c:    2001        .       MOVS     r0,#1
        0x0000518e:    7008        .p      STRB     r0,[r1,#0]
        0x00005190:    e7ff        ..      B        0x5192 ; UART1_IRQHandler + 246
        0x00005192:    e78f        ..      B        0x50b4 ; UART1_IRQHandler + 24
        0x00005194:    e7ff        ..      B        0x5196 ; UART1_IRQHandler + 250
        0x00005196:    4823        #H      LDR      r0,[pc,#140] ; [0x5224] = 0x4015001c
        0x00005198:    6800        .h      LDR      r0,[r0,#0]
        0x0000519a:    9005        ..      STR      r0,[sp,#0x14]
        0x0000519c:    a805        ..      ADD      r0,sp,#0x14
        0x0000519e:    7840        @x      LDRB     r0,[r0,#1]
        0x000051a0:    0780        ..      LSLS     r0,r0,#30
        0x000051a2:    2800        .(      CMP      r0,#0
        0x000051a4:    d53b        ;.      BPL      0x521e ; UART1_IRQHandler + 386
        0x000051a6:    e7ff        ..      B        0x51a8 ; UART1_IRQHandler + 268
        0x000051a8:    481f        .H      LDR      r0,[pc,#124] ; [0x5228] = 0x20000f1d
        0x000051aa:    7800        .x      LDRB     r0,[r0,#0]
        0x000051ac:    2801        .(      CMP      r0,#1
        0x000051ae:    db21        !.      BLT      0x51f4 ; UART1_IRQHandler + 344
        0x000051b0:    e7ff        ..      B        0x51b2 ; UART1_IRQHandler + 278
        0x000051b2:    e7ff        ..      B        0x51b4 ; UART1_IRQHandler + 280
        0x000051b4:    481f        .H      LDR      r0,[pc,#124] ; [0x5234] = 0x40150018
        0x000051b6:    6800        .h      LDR      r0,[r0,#0]
        0x000051b8:    2101        .!      MOVS     r1,#1
        0x000051ba:    05c9        ..      LSLS     r1,r1,#23
        0x000051bc:    4008        .@      ANDS     r0,r0,r1
        0x000051be:    0dc0        ..      LSRS     r0,r0,#23
        0x000051c0:    2800        .(      CMP      r0,#0
        0x000051c2:    d001        ..      BEQ      0x51c8 ; UART1_IRQHandler + 300
        0x000051c4:    e7ff        ..      B        0x51c6 ; UART1_IRQHandler + 298
        0x000051c6:    e7f5        ..      B        0x51b4 ; UART1_IRQHandler + 280
        0x000051c8:    481b        .H      LDR      r0,[pc,#108] ; [0x5238] = 0x20000f1e
        0x000051ca:    7802        .x      LDRB     r2,[r0,#0]
        0x000051cc:    491b        .I      LDR      r1,[pc,#108] ; [0x523c] = 0x20000eb9
        0x000051ce:    5c89        .\      LDRB     r1,[r1,r2]
        0x000051d0:    4ae1        .J      LDR      r2,[pc,#900] ; [0x5558] = 0x40150000
        0x000051d2:    6011        .`      STR      r1,[r2,#0]
        0x000051d4:    4a14        .J      LDR      r2,[pc,#80] ; [0x5228] = 0x20000f1d
        0x000051d6:    7811        .x      LDRB     r1,[r2,#0]
        0x000051d8:    1e49        I.      SUBS     r1,r1,#1
        0x000051da:    7011        .p      STRB     r1,[r2,#0]
        0x000051dc:    7801        .x      LDRB     r1,[r0,#0]
        0x000051de:    1c49        I.      ADDS     r1,r1,#1
        0x000051e0:    7001        .p      STRB     r1,[r0,#0]
        0x000051e2:    7800        .x      LDRB     r0,[r0,#0]
        0x000051e4:    2864        d(      CMP      r0,#0x64
        0x000051e6:    db04        ..      BLT      0x51f2 ; UART1_IRQHandler + 342
        0x000051e8:    e7ff        ..      B        0x51ea ; UART1_IRQHandler + 334
        0x000051ea:    4913        .I      LDR      r1,[pc,#76] ; [0x5238] = 0x20000f1e
        0x000051ec:    2000        .       MOVS     r0,#0
        0x000051ee:    7008        .p      STRB     r0,[r1,#0]
        0x000051f0:    e7ff        ..      B        0x51f2 ; UART1_IRQHandler + 342
        0x000051f2:    e013        ..      B        0x521c ; UART1_IRQHandler + 384
        0x000051f4:    48d8        .H      LDR      r0,[pc,#864] ; [0x5558] = 0x40150000
        0x000051f6:    9001        ..      STR      r0,[sp,#4]
        0x000051f8:    2102        .!      MOVS     r1,#2
        0x000051fa:    f000f967    ..g.    BL       UART_DisableInt ; 0x54cc
        0x000051fe:    9801        ..      LDR      r0,[sp,#4]
        0x00005200:    2101        .!      MOVS     r1,#1
        0x00005202:    9102        ..      STR      r1,[sp,#8]
        0x00005204:    f000f984    ....    BL       UART_EnableInt ; 0x5510
        0x00005208:    200d        .       MOVS     r0,#0xd
        0x0000520a:    f7fefcf9    ....    BL       NVIC_EnableIRQ ; 0x3c00
        0x0000520e:    9802        ..      LDR      r0,[sp,#8]
        0x00005210:    4a06        .J      LDR      r2,[pc,#24] ; [0x522c] = 0x20000f70
        0x00005212:    2100        .!      MOVS     r1,#0
        0x00005214:    8011        ..      STRH     r1,[r2,#0]
        0x00005216:    4906        .I      LDR      r1,[pc,#24] ; [0x5230] = 0x200010c3
        0x00005218:    7008        .p      STRB     r0,[r1,#0]
        0x0000521a:    e7ff        ..      B        0x521c ; UART1_IRQHandler + 384
        0x0000521c:    e7ff        ..      B        0x521e ; UART1_IRQHandler + 386
        0x0000521e:    b006        ..      ADD      sp,sp,#0x18
        0x00005220:    bd80        ..      POP      {r7,pc}
        0x00005222:    46c0        .F      MOV      r8,r8
    $d
    __arm_cp.9_0
        0x00005224:    4015001c    ...@    DCD    1075118108
    __arm_cp.9_1
        0x00005228:    20000f1d    ...     DCD    536874781
    __arm_cp.9_3
        0x0000522c:    20000f70    p..     DCD    536874864
    __arm_cp.9_4
        0x00005230:    200010c3    ...     DCD    536875203
    __arm_cp.9_5
        0x00005234:    40150018    ...@    DCD    1075118104
    __arm_cp.9_6
        0x00005238:    20000f1e    ...     DCD    536874782
    __arm_cp.9_7
        0x0000523c:    20000eb9    ...     DCD    536874681
    __arm_cp.9_8
        0x00005240:    20000eb7    ...     DCD    536874679
    __arm_cp.9_9
        0x00005244:    20000e51    Q..     DCD    536874577
    __arm_cp.9_10
        0x00005248:    20000eb5    ...     DCD    536874677
    __arm_cp.9_11
        0x0000524c:    20000eb6    ...     DCD    536874678
    __arm_cp.9_12
        0x00005250:    20000eb8    ...     DCD    536874680
    __arm_cp.9_13
        0x00005254:    20000ffc    ...     DCD    536875004
    $t
    UART1_Init
        0x00005258:    b5b0        ..      PUSH     {r4,r5,r7,lr}
        0x0000525a:    b08a        ..      SUB      sp,sp,#0x28
        0x0000525c:    488d        .H      LDR      r0,[pc,#564] ; [0x5494] = 0x1518000
        0x0000525e:    9007        ..      STR      r0,[sp,#0x1c]
        0x00005260:    2000        .       MOVS     r0,#0
        0x00005262:    9001        ..      STR      r0,[sp,#4]
        0x00005264:    9005        ..      STR      r0,[sp,#0x14]
        0x00005266:    498c        .I      LDR      r1,[pc,#560] ; [0x5498] = 0xb71b00
        0x00005268:    9104        ..      STR      r1,[sp,#0x10]
        0x0000526a:    2501        .%      MOVS     r5,#1
        0x0000526c:    03e9        ..      LSLS     r1,r5,#15
        0x0000526e:    9106        ..      STR      r1,[sp,#0x18]
        0x00005270:    9003        ..      STR      r0,[sp,#0xc]
        0x00005272:    20e1        .       MOVS     r0,#0xe1
        0x00005274:    0200        ..      LSLS     r0,r0,#8
        0x00005276:    9002        ..      STR      r0,[sp,#8]
        0x00005278:    483a        :H      LDR      r0,[pc,#232] ; [0x5364] = 0x4000011
        0x0000527a:    f7feff4f    ..O.    BL       SYS_ResetModule ; 0x411c
        0x0000527e:    9a01        ..      LDR      r2,[sp,#4]
        0x00005280:    4887        .H      LDR      r0,[pc,#540] ; [0x54a0] = 0x50000214
        0x00005282:    6800        .h      LDR      r0,[r0,#0]
        0x00005284:    2103        .!      MOVS     r1,#3
        0x00005286:    060b        ..      LSLS     r3,r1,#24
        0x00005288:    4018        .@      ANDS     r0,r0,r3
        0x0000528a:    0e03        ..      LSRS     r3,r0,#24
        0x0000528c:    a809        ..      ADD      r0,sp,#0x24
        0x0000528e:    7003        .p      STRB     r3,[r0,#0]
        0x00005290:    4b84        .K      LDR      r3,[pc,#528] ; [0x54a4] = 0x50000218
        0x00005292:    681b        .h      LDR      r3,[r3,#0]
        0x00005294:    240f        .$      MOVS     r4,#0xf
        0x00005296:    0224        $.      LSLS     r4,r4,#8
        0x00005298:    4023        #@      ANDS     r3,r3,r4
        0x0000529a:    0a1b        ..      LSRS     r3,r3,#8
        0x0000529c:    ac08        ..      ADD      r4,sp,#0x20
        0x0000529e:    7023        #p      STRB     r3,[r4,#0]
        0x000052a0:    4b33        3K      LDR      r3,[pc,#204] ; [0x5370] = 0x40150030
        0x000052a2:    6019        .`      STR      r1,[r3,#0]
        0x000052a4:    02ab        ..      LSLS     r3,r5,#10
        0x000052a6:    4c33        3L      LDR      r4,[pc,#204] ; [0x5374] = 0x4015002c
        0x000052a8:    6023        #`      STR      r3,[r4,#0]
        0x000052aa:    4c33        3L      LDR      r4,[pc,#204] ; [0x5378] = 0x40150010
        0x000052ac:    6823        #h      LDR      r3,[r4,#0]
        0x000052ae:    026d        m.      LSLS     r5,r5,#9
        0x000052b0:    43ab        .C      BICS     r3,r3,r5
        0x000052b2:    6023        #`      STR      r3,[r4,#0]
        0x000052b4:    4b31        1K      LDR      r3,[pc,#196] ; [0x537c] = 0x40150020
        0x000052b6:    601a        .`      STR      r2,[r3,#0]
        0x000052b8:    4a31        1J      LDR      r2,[pc,#196] ; [0x5380] = 0x4015000c
        0x000052ba:    6011        .`      STR      r1,[r2,#0]
        0x000052bc:    4a31        1J      LDR      r2,[pc,#196] ; [0x5384] = 0x40150008
        0x000052be:    6811        .h      LDR      r1,[r2,#0]
        0x000052c0:    4b7f        .K      LDR      r3,[pc,#508] ; [0x54c0] = 0xfff0ff0f
        0x000052c2:    4019        .@      ANDS     r1,r1,r3
        0x000052c4:    6011        .`      STR      r1,[r2,#0]
        0x000052c6:    7800        .x      LDRB     r0,[r0,#0]
        0x000052c8:    2801        .(      CMP      r0,#1
        0x000052ca:    d108        ..      BNE      0x52de ; UART1_Init + 134
        0x000052cc:    e7ff        ..      B        0x52ce ; UART1_Init + 118
        0x000052ce:    f7fcf865    ..e.    BL       CLK_GetPLLClockFreq ; 0x139c
        0x000052d2:    a909        ..      ADD      r1,sp,#0x24
        0x000052d4:    7809        .x      LDRB     r1,[r1,#0]
        0x000052d6:    008a        ..      LSLS     r2,r1,#2
        0x000052d8:    a904        ..      ADD      r1,sp,#0x10
        0x000052da:    5088        .P      STR      r0,[r1,r2]
        0x000052dc:    e7ff        ..      B        0x52de ; UART1_Init + 134
        0x000052de:    9802        ..      LDR      r0,[sp,#8]
        0x000052e0:    2800        .(      CMP      r0,#0
        0x000052e2:    d032        2.      BEQ      0x534a ; UART1_Init + 242
        0x000052e4:    e7ff        ..      B        0x52e6 ; UART1_Init + 142
        0x000052e6:    a809        ..      ADD      r0,sp,#0x24
        0x000052e8:    7800        .x      LDRB     r0,[r0,#0]
        0x000052ea:    0081        ..      LSLS     r1,r0,#2
        0x000052ec:    a804        ..      ADD      r0,sp,#0x10
        0x000052ee:    5840        @X      LDR      r0,[r0,r1]
        0x000052f0:    a908        ..      ADD      r1,sp,#0x20
        0x000052f2:    7809        .x      LDRB     r1,[r1,#0]
        0x000052f4:    1c49        I.      ADDS     r1,r1,#1
        0x000052f6:    f7faffb8    ....    BL       __aeabi_uidiv ; 0x26a
        0x000052fa:    9902        ..      LDR      r1,[sp,#8]
        0x000052fc:    084a        J.      LSRS     r2,r1,#1
        0x000052fe:    1880        ..      ADDS     r0,r0,r2
        0x00005300:    f7faffb3    ....    BL       __aeabi_uidiv ; 0x26a
        0x00005304:    1e80        ..      SUBS     r0,r0,#2
        0x00005306:    9003        ..      STR      r0,[sp,#0xc]
        0x00005308:    a803        ..      ADD      r0,sp,#0xc
        0x0000530a:    8840        @.      LDRH     r0,[r0,#2]
        0x0000530c:    2800        .(      CMP      r0,#0
        0x0000530e:    d014        ..      BEQ      0x533a ; UART1_Init + 226
        0x00005310:    e7ff        ..      B        0x5312 ; UART1_Init + 186
        0x00005312:    a809        ..      ADD      r0,sp,#0x24
        0x00005314:    7800        .x      LDRB     r0,[r0,#0]
        0x00005316:    0081        ..      LSLS     r1,r0,#2
        0x00005318:    a804        ..      ADD      r0,sp,#0x10
        0x0000531a:    5840        @X      LDR      r0,[r0,r1]
        0x0000531c:    a908        ..      ADD      r1,sp,#0x20
        0x0000531e:    7809        .x      LDRB     r1,[r1,#0]
        0x00005320:    1c49        I.      ADDS     r1,r1,#1
        0x00005322:    f7faffa2    ....    BL       __aeabi_uidiv ; 0x26a
        0x00005326:    9902        ..      LDR      r1,[sp,#8]
        0x00005328:    00ca        ..      LSLS     r2,r1,#3
        0x0000532a:    1880        ..      ADDS     r0,r0,r2
        0x0000532c:    f7faff9d    ....    BL       __aeabi_uidiv ; 0x26a
        0x00005330:    0900        ..      LSRS     r0,r0,#4
        0x00005332:    1e80        ..      SUBS     r0,r0,#2
        0x00005334:    4915        .I      LDR      r1,[pc,#84] ; [0x538c] = 0x40150024
        0x00005336:    6008        .`      STR      r0,[r1,#0]
        0x00005338:    e006        ..      B        0x5348 ; UART1_Init + 240
        0x0000533a:    9803        ..      LDR      r0,[sp,#0xc]
        0x0000533c:    2103        .!      MOVS     r1,#3
        0x0000533e:    0709        ..      LSLS     r1,r1,#28
        0x00005340:    4308        .C      ORRS     r0,r0,r1
        0x00005342:    4912        .I      LDR      r1,[pc,#72] ; [0x538c] = 0x40150024
        0x00005344:    6008        .`      STR      r0,[r1,#0]
        0x00005346:    e7ff        ..      B        0x5348 ; UART1_Init + 240
        0x00005348:    e7ff        ..      B        0x534a ; UART1_Init + 242
        0x0000534a:    4883        .H      LDR      r0,[pc,#524] ; [0x5558] = 0x40150000
        0x0000534c:    2101        .!      MOVS     r1,#1
        0x0000534e:    f000f8df    ....    BL       UART_EnableInt ; 0x5510
        0x00005352:    200d        .       MOVS     r0,#0xd
        0x00005354:    f7fefc54    ..T.    BL       NVIC_EnableIRQ ; 0x3c00
        0x00005358:    b00a        ..      ADD      sp,sp,#0x28
        0x0000535a:    bdb0        ..      POP      {r4,r5,r7,pc}
    $d
    __arm_cp.13_0
        0x0000535c:    01518000    ..Q.    DCD    22118400
    __arm_cp.13_1
        0x00005360:    00b71b00    ....    DCD    12000000
    __arm_cp.13_2
        0x00005364:    04000011    ....    DCD    67108881
    __arm_cp.13_3
        0x00005368:    50000214    ...P    DCD    1342177812
    __arm_cp.13_4
        0x0000536c:    50000218    ...P    DCD    1342177816
    __arm_cp.13_5
        0x00005370:    40150030    0..@    DCD    1075118128
    __arm_cp.13_6
        0x00005374:    4015002c    ,..@    DCD    1075118124
    __arm_cp.13_7
        0x00005378:    40150010    ...@    DCD    1075118096
    __arm_cp.13_8
        0x0000537c:    40150020     ..@    DCD    1075118112
    __arm_cp.13_9
        0x00005380:    4015000c    ...@    DCD    1075118092
    __arm_cp.13_10
        0x00005384:    40150008    ...@    DCD    1075118088
    __arm_cp.13_11
        0x00005388:    fff0ff0f    ....    DCD    4293984015
    __arm_cp.13_12
        0x0000538c:    40150024    $..@    DCD    1075118116
    __arm_cp.13_13
        0x00005390:    40150000    ...@    DCD    1075118080
    $t
    UART2_Init
        0x00005394:    b5b0        ..      PUSH     {r4,r5,r7,lr}
        0x00005396:    b08a        ..      SUB      sp,sp,#0x28
        0x00005398:    9009        ..      STR      r0,[sp,#0x24]
        0x0000539a:    483e        >H      LDR      r0,[pc,#248] ; [0x5494] = 0x1518000
        0x0000539c:    9006        ..      STR      r0,[sp,#0x18]
        0x0000539e:    2501        .%      MOVS     r5,#1
        0x000053a0:    03e8        ..      LSLS     r0,r5,#15
        0x000053a2:    9005        ..      STR      r0,[sp,#0x14]
        0x000053a4:    2000        .       MOVS     r0,#0
        0x000053a6:    9001        ..      STR      r0,[sp,#4]
        0x000053a8:    9004        ..      STR      r0,[sp,#0x10]
        0x000053aa:    493b        ;I      LDR      r1,[pc,#236] ; [0x5498] = 0xb71b00
        0x000053ac:    9103        ..      STR      r1,[sp,#0xc]
        0x000053ae:    9002        ..      STR      r0,[sp,#8]
        0x000053b0:    483a        :H      LDR      r0,[pc,#232] ; [0x549c] = 0x4000012
        0x000053b2:    f7fefeb3    ....    BL       SYS_ResetModule ; 0x411c
        0x000053b6:    9a01        ..      LDR      r2,[sp,#4]
        0x000053b8:    4839        9H      LDR      r0,[pc,#228] ; [0x54a0] = 0x50000214
        0x000053ba:    6800        .h      LDR      r0,[r0,#0]
        0x000053bc:    2103        .!      MOVS     r1,#3
        0x000053be:    060b        ..      LSLS     r3,r1,#24
        0x000053c0:    4018        .@      ANDS     r0,r0,r3
        0x000053c2:    0e03        ..      LSRS     r3,r0,#24
        0x000053c4:    a808        ..      ADD      r0,sp,#0x20
        0x000053c6:    7003        .p      STRB     r3,[r0,#0]
        0x000053c8:    4b36        6K      LDR      r3,[pc,#216] ; [0x54a4] = 0x50000218
        0x000053ca:    681b        .h      LDR      r3,[r3,#0]
        0x000053cc:    240f        .$      MOVS     r4,#0xf
        0x000053ce:    0224        $.      LSLS     r4,r4,#8
        0x000053d0:    4023        #@      ANDS     r3,r3,r4
        0x000053d2:    0a1b        ..      LSRS     r3,r3,#8
        0x000053d4:    ac07        ..      ADD      r4,sp,#0x1c
        0x000053d6:    7023        #p      STRB     r3,[r4,#0]
        0x000053d8:    4b33        3K      LDR      r3,[pc,#204] ; [0x54a8] = 0x40154030
        0x000053da:    6019        .`      STR      r1,[r3,#0]
        0x000053dc:    02ab        ..      LSLS     r3,r5,#10
        0x000053de:    4c33        3L      LDR      r4,[pc,#204] ; [0x54ac] = 0x4015402c
        0x000053e0:    6023        #`      STR      r3,[r4,#0]
        0x000053e2:    4c33        3L      LDR      r4,[pc,#204] ; [0x54b0] = 0x40154010
        0x000053e4:    6823        #h      LDR      r3,[r4,#0]
        0x000053e6:    026d        m.      LSLS     r5,r5,#9
        0x000053e8:    43ab        .C      BICS     r3,r3,r5
        0x000053ea:    6023        #`      STR      r3,[r4,#0]
        0x000053ec:    4b31        1K      LDR      r3,[pc,#196] ; [0x54b4] = 0x40154020
        0x000053ee:    601a        .`      STR      r2,[r3,#0]
        0x000053f0:    4a31        1J      LDR      r2,[pc,#196] ; [0x54b8] = 0x4015400c
        0x000053f2:    6011        .`      STR      r1,[r2,#0]
        0x000053f4:    4a31        1J      LDR      r2,[pc,#196] ; [0x54bc] = 0x40154008
        0x000053f6:    6811        .h      LDR      r1,[r2,#0]
        0x000053f8:    4b31        1K      LDR      r3,[pc,#196] ; [0x54c0] = 0xfff0ff0f
        0x000053fa:    4019        .@      ANDS     r1,r1,r3
        0x000053fc:    6011        .`      STR      r1,[r2,#0]
        0x000053fe:    7800        .x      LDRB     r0,[r0,#0]
        0x00005400:    2801        .(      CMP      r0,#1
        0x00005402:    d108        ..      BNE      0x5416 ; UART2_Init + 130
        0x00005404:    e7ff        ..      B        0x5406 ; UART2_Init + 114
        0x00005406:    f7fbffc9    ....    BL       CLK_GetPLLClockFreq ; 0x139c
        0x0000540a:    a908        ..      ADD      r1,sp,#0x20
        0x0000540c:    7809        .x      LDRB     r1,[r1,#0]
        0x0000540e:    008a        ..      LSLS     r2,r1,#2
        0x00005410:    a903        ..      ADD      r1,sp,#0xc
        0x00005412:    5088        .P      STR      r0,[r1,r2]
        0x00005414:    e7ff        ..      B        0x5416 ; UART2_Init + 130
        0x00005416:    9809        ..      LDR      r0,[sp,#0x24]
        0x00005418:    2800        .(      CMP      r0,#0
        0x0000541a:    d032        2.      BEQ      0x5482 ; UART2_Init + 238
        0x0000541c:    e7ff        ..      B        0x541e ; UART2_Init + 138
        0x0000541e:    a808        ..      ADD      r0,sp,#0x20
        0x00005420:    7800        .x      LDRB     r0,[r0,#0]
        0x00005422:    0081        ..      LSLS     r1,r0,#2
        0x00005424:    a803        ..      ADD      r0,sp,#0xc
        0x00005426:    5840        @X      LDR      r0,[r0,r1]
        0x00005428:    a907        ..      ADD      r1,sp,#0x1c
        0x0000542a:    7809        .x      LDRB     r1,[r1,#0]
        0x0000542c:    1c49        I.      ADDS     r1,r1,#1
        0x0000542e:    f7faff1c    ....    BL       __aeabi_uidiv ; 0x26a
        0x00005432:    9909        ..      LDR      r1,[sp,#0x24]
        0x00005434:    084a        J.      LSRS     r2,r1,#1
        0x00005436:    1880        ..      ADDS     r0,r0,r2
        0x00005438:    f7faff17    ....    BL       __aeabi_uidiv ; 0x26a
        0x0000543c:    1e80        ..      SUBS     r0,r0,#2
        0x0000543e:    9002        ..      STR      r0,[sp,#8]
        0x00005440:    a802        ..      ADD      r0,sp,#8
        0x00005442:    8840        @.      LDRH     r0,[r0,#2]
        0x00005444:    2800        .(      CMP      r0,#0
        0x00005446:    d014        ..      BEQ      0x5472 ; UART2_Init + 222
        0x00005448:    e7ff        ..      B        0x544a ; UART2_Init + 182
        0x0000544a:    a808        ..      ADD      r0,sp,#0x20
        0x0000544c:    7800        .x      LDRB     r0,[r0,#0]
        0x0000544e:    0081        ..      LSLS     r1,r0,#2
        0x00005450:    a803        ..      ADD      r0,sp,#0xc
        0x00005452:    5840        @X      LDR      r0,[r0,r1]
        0x00005454:    a907        ..      ADD      r1,sp,#0x1c
        0x00005456:    7809        .x      LDRB     r1,[r1,#0]
        0x00005458:    1c49        I.      ADDS     r1,r1,#1
        0x0000545a:    f7faff06    ....    BL       __aeabi_uidiv ; 0x26a
        0x0000545e:    9909        ..      LDR      r1,[sp,#0x24]
        0x00005460:    00ca        ..      LSLS     r2,r1,#3
        0x00005462:    1880        ..      ADDS     r0,r0,r2
        0x00005464:    f7faff01    ....    BL       __aeabi_uidiv ; 0x26a
        0x00005468:    0900        ..      LSRS     r0,r0,#4
        0x0000546a:    1e80        ..      SUBS     r0,r0,#2
        0x0000546c:    4915        .I      LDR      r1,[pc,#84] ; [0x54c4] = 0x40154024
        0x0000546e:    6008        .`      STR      r0,[r1,#0]
        0x00005470:    e006        ..      B        0x5480 ; UART2_Init + 236
        0x00005472:    9802        ..      LDR      r0,[sp,#8]
        0x00005474:    2103        .!      MOVS     r1,#3
        0x00005476:    0709        ..      LSLS     r1,r1,#28
        0x00005478:    4308        .C      ORRS     r0,r0,r1
        0x0000547a:    4912        .I      LDR      r1,[pc,#72] ; [0x54c4] = 0x40154024
        0x0000547c:    6008        .`      STR      r0,[r1,#0]
        0x0000547e:    e7ff        ..      B        0x5480 ; UART2_Init + 236
        0x00005480:    e7ff        ..      B        0x5482 ; UART2_Init + 238
        0x00005482:    4811        .H      LDR      r0,[pc,#68] ; [0x54c8] = 0x40154000
        0x00005484:    2101        .!      MOVS     r1,#1
        0x00005486:    f000f843    ..C.    BL       UART_EnableInt ; 0x5510
        0x0000548a:    200c        .       MOVS     r0,#0xc
        0x0000548c:    f7fefbb8    ....    BL       NVIC_EnableIRQ ; 0x3c00
        0x00005490:    b00a        ..      ADD      sp,sp,#0x28
        0x00005492:    bdb0        ..      POP      {r4,r5,r7,pc}
    $d
    __arm_cp.14_0
        0x00005494:    01518000    ..Q.    DCD    22118400
    __arm_cp.14_1
        0x00005498:    00b71b00    ....    DCD    12000000
    __arm_cp.14_2
        0x0000549c:    04000012    ....    DCD    67108882
    __arm_cp.14_3
        0x000054a0:    50000214    ...P    DCD    1342177812
    __arm_cp.14_4
        0x000054a4:    50000218    ...P    DCD    1342177816
    __arm_cp.14_5
        0x000054a8:    40154030    0@.@    DCD    1075134512
    __arm_cp.14_6
        0x000054ac:    4015402c    ,@.@    DCD    1075134508
    __arm_cp.14_7
        0x000054b0:    40154010    .@.@    DCD    1075134480
    __arm_cp.14_8
        0x000054b4:    40154020     @.@    DCD    1075134496
    __arm_cp.14_9
        0x000054b8:    4015400c    .@.@    DCD    1075134476
    __arm_cp.14_10
        0x000054bc:    40154008    .@.@    DCD    1075134472
    __arm_cp.14_11
        0x000054c0:    fff0ff0f    ....    DCD    4293984015
    __arm_cp.14_12
        0x000054c4:    40154024    $@.@    DCD    1075134500
    __arm_cp.14_13
        0x000054c8:    40154000    .@.@    DCD    1075134464
    $t
    UART_DisableInt
        0x000054cc:    b580        ..      PUSH     {r7,lr}
        0x000054ce:    b082        ..      SUB      sp,sp,#8
        0x000054d0:    9001        ..      STR      r0,[sp,#4]
        0x000054d2:    9100        ..      STR      r1,[sp,#0]
        0x000054d4:    9a00        ..      LDR      r2,[sp,#0]
        0x000054d6:    9901        ..      LDR      r1,[sp,#4]
        0x000054d8:    6848        Hh      LDR      r0,[r1,#4]
        0x000054da:    4390        .C      BICS     r0,r0,r2
        0x000054dc:    6048        H`      STR      r0,[r1,#4]
        0x000054de:    9801        ..      LDR      r0,[sp,#4]
        0x000054e0:    491c        .I      LDR      r1,[pc,#112] ; [0x5554] = 0x40050000
        0x000054e2:    4288        .B      CMP      r0,r1
        0x000054e4:    d104        ..      BNE      0x54f0 ; UART_DisableInt + 36
        0x000054e6:    e7ff        ..      B        0x54e8 ; UART_DisableInt + 28
        0x000054e8:    200c        .       MOVS     r0,#0xc
        0x000054ea:    f7fefb79    ..y.    BL       NVIC_DisableIRQ ; 0x3be0
        0x000054ee:    e00d        ..      B        0x550c ; UART_DisableInt + 64
        0x000054f0:    9801        ..      LDR      r0,[sp,#4]
        0x000054f2:    4919        .I      LDR      r1,[pc,#100] ; [0x5558] = 0x40150000
        0x000054f4:    4288        .B      CMP      r0,r1
        0x000054f6:    d104        ..      BNE      0x5502 ; UART_DisableInt + 54
        0x000054f8:    e7ff        ..      B        0x54fa ; UART_DisableInt + 46
        0x000054fa:    200d        .       MOVS     r0,#0xd
        0x000054fc:    f7fefb70    ..p.    BL       NVIC_DisableIRQ ; 0x3be0
        0x00005500:    e003        ..      B        0x550a ; UART_DisableInt + 62
        0x00005502:    200c        .       MOVS     r0,#0xc
        0x00005504:    f7fefb6c    ..l.    BL       NVIC_DisableIRQ ; 0x3be0
        0x00005508:    e7ff        ..      B        0x550a ; UART_DisableInt + 62
        0x0000550a:    e7ff        ..      B        0x550c ; UART_DisableInt + 64
        0x0000550c:    b002        ..      ADD      sp,sp,#8
        0x0000550e:    bd80        ..      POP      {r7,pc}
    UART_EnableInt
        0x00005510:    b580        ..      PUSH     {r7,lr}
        0x00005512:    b082        ..      SUB      sp,sp,#8
        0x00005514:    9001        ..      STR      r0,[sp,#4]
        0x00005516:    9100        ..      STR      r1,[sp,#0]
        0x00005518:    9a00        ..      LDR      r2,[sp,#0]
        0x0000551a:    9901        ..      LDR      r1,[sp,#4]
        0x0000551c:    6848        Hh      LDR      r0,[r1,#4]
        0x0000551e:    4310        .C      ORRS     r0,r0,r2
        0x00005520:    6048        H`      STR      r0,[r1,#4]
        0x00005522:    9801        ..      LDR      r0,[sp,#4]
        0x00005524:    490b        .I      LDR      r1,[pc,#44] ; [0x5554] = 0x40050000
        0x00005526:    4288        .B      CMP      r0,r1
        0x00005528:    d104        ..      BNE      0x5534 ; UART_EnableInt + 36
        0x0000552a:    e7ff        ..      B        0x552c ; UART_EnableInt + 28
        0x0000552c:    200c        .       MOVS     r0,#0xc
        0x0000552e:    f7fefb91    ....    BL       NVIC_EnableIRQ ; 0x3c54
        0x00005532:    e00d        ..      B        0x5550 ; UART_EnableInt + 64
        0x00005534:    9801        ..      LDR      r0,[sp,#4]
        0x00005536:    4908        .I      LDR      r1,[pc,#32] ; [0x5558] = 0x40150000
        0x00005538:    4288        .B      CMP      r0,r1
        0x0000553a:    d104        ..      BNE      0x5546 ; UART_EnableInt + 54
        0x0000553c:    e7ff        ..      B        0x553e ; UART_EnableInt + 46
        0x0000553e:    200d        .       MOVS     r0,#0xd
        0x00005540:    f7fefb88    ....    BL       NVIC_EnableIRQ ; 0x3c54
        0x00005544:    e003        ..      B        0x554e ; UART_EnableInt + 62
        0x00005546:    200c        .       MOVS     r0,#0xc
        0x00005548:    f7fefb84    ....    BL       NVIC_EnableIRQ ; 0x3c54
        0x0000554c:    e7ff        ..      B        0x554e ; UART_EnableInt + 62
        0x0000554e:    e7ff        ..      B        0x5550 ; UART_EnableInt + 64
        0x00005550:    b002        ..      ADD      sp,sp,#8
        0x00005552:    bd80        ..      POP      {r7,pc}
    $d
    __arm_cp.6_0
        0x00005554:    40050000    ...@    DCD    1074069504
    __arm_cp.6_1
        0x00005558:    40150000    ...@    DCD    1075118080
    $t
    VerifyFW
        0x0000555c:    b580        ..      PUSH     {r7,lr}
        0x0000555e:    b084        ..      SUB      sp,sp,#0x10
        0x00005560:    4601        .F      MOV      r1,r0
        0x00005562:    a803        ..      ADD      r0,sp,#0xc
        0x00005564:    7001        .p      STRB     r1,[r0,#0]
        0x00005566:    7800        .x      LDRB     r0,[r0,#0]
        0x00005568:    07c0        ..      LSLS     r0,r0,#31
        0x0000556a:    2800        .(      CMP      r0,#0
        0x0000556c:    d01b        ..      BEQ      0x55a6 ; VerifyFW + 74
        0x0000556e:    e7ff        ..      B        0x5570 ; VerifyFW + 20
        0x00005570:    f000fb12    ....    BL       boolFwcheck ; 0x5b98
        0x00005574:    4601        .F      MOV      r1,r0
        0x00005576:    a802        ..      ADD      r0,sp,#8
        0x00005578:    9001        ..      STR      r0,[sp,#4]
        0x0000557a:    7001        .p      STRB     r1,[r0,#0]
        0x0000557c:    7800        .x      LDRB     r0,[r0,#0]
        0x0000557e:    2101        .!      MOVS     r1,#1
        0x00005580:    4008        .@      ANDS     r0,r0,r1
        0x00005582:    f7fdfb57    ..W.    BL       MarkFwAsActive ; 0x2c34
        0x00005586:    9801        ..      LDR      r0,[sp,#4]
        0x00005588:    7800        .x      LDRB     r0,[r0,#0]
        0x0000558a:    07c0        ..      LSLS     r0,r0,#31
        0x0000558c:    2800        .(      CMP      r0,#0
        0x0000558e:    d103        ..      BNE      0x5598 ; VerifyFW + 60
        0x00005590:    e7ff        ..      B        0x5592 ; VerifyFW + 54
        0x00005592:    f7fdfadb    ....    BL       JumpToBootloader ; 0x2b4c
        0x00005596:    e7ff        ..      B        0x5598 ; VerifyFW + 60
        0x00005598:    4904        .I      LDR      r1,[pc,#16] ; [0x55ac] = 0x200010e0
        0x0000559a:    2001        .       MOVS     r0,#1
        0x0000559c:    7008        .p      STRB     r0,[r1,#0]
        0x0000559e:    49bf        .I      LDR      r1,[pc,#764] ; [0x589c] = 0x40004008
        0x000055a0:    48bf        .H      LDR      r0,[pc,#764] ; [0x58a0] = 0x5aa5
        0x000055a2:    6008        .`      STR      r0,[r1,#0]
        0x000055a4:    e7ff        ..      B        0x55a6 ; VerifyFW + 74
        0x000055a6:    b004        ..      ADD      sp,sp,#0x10
        0x000055a8:    bd80        ..      POP      {r7,pc}
        0x000055aa:    46c0        .F      MOV      r8,r8
    $d
    __arm_cp.0_0
        0x000055ac:    200010e0    ...     DCD    536875232
    $t
    VerifyFirmware
        0x000055b0:    b580        ..      PUSH     {r7,lr}
        0x000055b2:    b084        ..      SUB      sp,sp,#0x10
        0x000055b4:    9002        ..      STR      r0,[sp,#8]
        0x000055b6:    9802        ..      LDR      r0,[sp,#8]
        0x000055b8:    7b02        .{      LDRB     r2,[r0,#0xc]
        0x000055ba:    7b41        A{      LDRB     r1,[r0,#0xd]
        0x000055bc:    0209        ..      LSLS     r1,r1,#8
        0x000055be:    1889        ..      ADDS     r1,r1,r2
        0x000055c0:    7b82        .{      LDRB     r2,[r0,#0xe]
        0x000055c2:    0412        ..      LSLS     r2,r2,#16
        0x000055c4:    7bc0        .{      LDRB     r0,[r0,#0xf]
        0x000055c6:    0600        ..      LSLS     r0,r0,#24
        0x000055c8:    1880        ..      ADDS     r0,r0,r2
        0x000055ca:    1840        @.      ADDS     r0,r0,r1
        0x000055cc:    1c40        @.      ADDS     r0,r0,#1
        0x000055ce:    2800        .(      CMP      r0,#0
        0x000055d0:    d048        H.      BEQ      0x5664 ; VerifyFirmware + 180
        0x000055d2:    e7ff        ..      B        0x55d4 ; VerifyFirmware + 36
        0x000055d4:    9802        ..      LDR      r0,[sp,#8]
        0x000055d6:    7b02        .{      LDRB     r2,[r0,#0xc]
        0x000055d8:    7b41        A{      LDRB     r1,[r0,#0xd]
        0x000055da:    0209        ..      LSLS     r1,r1,#8
        0x000055dc:    1889        ..      ADDS     r1,r1,r2
        0x000055de:    7b82        .{      LDRB     r2,[r0,#0xe]
        0x000055e0:    0412        ..      LSLS     r2,r2,#16
        0x000055e2:    7bc0        .{      LDRB     r0,[r0,#0xf]
        0x000055e4:    0600        ..      LSLS     r0,r0,#24
        0x000055e6:    1880        ..      ADDS     r0,r0,r2
        0x000055e8:    1840        @.      ADDS     r0,r0,r1
        0x000055ea:    2800        .(      CMP      r0,#0
        0x000055ec:    d03a        :.      BEQ      0x5664 ; VerifyFirmware + 180
        0x000055ee:    e7ff        ..      B        0x55f0 ; VerifyFirmware + 64
        0x000055f0:    9802        ..      LDR      r0,[sp,#8]
        0x000055f2:    7c02        .|      LDRB     r2,[r0,#0x10]
        0x000055f4:    7c41        A|      LDRB     r1,[r0,#0x11]
        0x000055f6:    0209        ..      LSLS     r1,r1,#8
        0x000055f8:    1889        ..      ADDS     r1,r1,r2
        0x000055fa:    7c82        .|      LDRB     r2,[r0,#0x12]
        0x000055fc:    0412        ..      LSLS     r2,r2,#16
        0x000055fe:    7cc0        .|      LDRB     r0,[r0,#0x13]
        0x00005600:    0600        ..      LSLS     r0,r0,#24
        0x00005602:    1880        ..      ADDS     r0,r0,r2
        0x00005604:    1840        @.      ADDS     r0,r0,r1
        0x00005606:    1c40        @.      ADDS     r0,r0,#1
        0x00005608:    2800        .(      CMP      r0,#0
        0x0000560a:    d02b        +.      BEQ      0x5664 ; VerifyFirmware + 180
        0x0000560c:    e7ff        ..      B        0x560e ; VerifyFirmware + 94
        0x0000560e:    9802        ..      LDR      r0,[sp,#8]
        0x00005610:    7c02        .|      LDRB     r2,[r0,#0x10]
        0x00005612:    7c41        A|      LDRB     r1,[r0,#0x11]
        0x00005614:    0209        ..      LSLS     r1,r1,#8
        0x00005616:    1889        ..      ADDS     r1,r1,r2
        0x00005618:    7c82        .|      LDRB     r2,[r0,#0x12]
        0x0000561a:    0412        ..      LSLS     r2,r2,#16
        0x0000561c:    7cc0        .|      LDRB     r0,[r0,#0x13]
        0x0000561e:    0600        ..      LSLS     r0,r0,#24
        0x00005620:    1880        ..      ADDS     r0,r0,r2
        0x00005622:    1840        @.      ADDS     r0,r0,r1
        0x00005624:    2800        .(      CMP      r0,#0
        0x00005626:    d01d        ..      BEQ      0x5664 ; VerifyFirmware + 180
        0x00005628:    e7ff        ..      B        0x562a ; VerifyFirmware + 122
        0x0000562a:    9802        ..      LDR      r0,[sp,#8]
        0x0000562c:    7902        .y      LDRB     r2,[r0,#4]
        0x0000562e:    7941        Ay      LDRB     r1,[r0,#5]
        0x00005630:    0209        ..      LSLS     r1,r1,#8
        0x00005632:    1889        ..      ADDS     r1,r1,r2
        0x00005634:    7982        .y      LDRB     r2,[r0,#6]
        0x00005636:    0412        ..      LSLS     r2,r2,#16
        0x00005638:    79c0        .y      LDRB     r0,[r0,#7]
        0x0000563a:    0600        ..      LSLS     r0,r0,#24
        0x0000563c:    1880        ..      ADDS     r0,r0,r2
        0x0000563e:    1840        @.      ADDS     r0,r0,r1
        0x00005640:    1c40        @.      ADDS     r0,r0,#1
        0x00005642:    2800        .(      CMP      r0,#0
        0x00005644:    d00e        ..      BEQ      0x5664 ; VerifyFirmware + 180
        0x00005646:    e7ff        ..      B        0x5648 ; VerifyFirmware + 152
        0x00005648:    9802        ..      LDR      r0,[sp,#8]
        0x0000564a:    7902        .y      LDRB     r2,[r0,#4]
        0x0000564c:    7941        Ay      LDRB     r1,[r0,#5]
        0x0000564e:    0209        ..      LSLS     r1,r1,#8
        0x00005650:    1889        ..      ADDS     r1,r1,r2
        0x00005652:    7982        .y      LDRB     r2,[r0,#6]
        0x00005654:    0412        ..      LSLS     r2,r2,#16
        0x00005656:    79c0        .y      LDRB     r0,[r0,#7]
        0x00005658:    0600        ..      LSLS     r0,r0,#24
        0x0000565a:    1880        ..      ADDS     r0,r0,r2
        0x0000565c:    1840        @.      ADDS     r0,r0,r1
        0x0000565e:    2800        .(      CMP      r0,#0
        0x00005660:    d104        ..      BNE      0x566c ; VerifyFirmware + 188
        0x00005662:    e7ff        ..      B        0x5664 ; VerifyFirmware + 180
        0x00005664:    a903        ..      ADD      r1,sp,#0xc
        0x00005666:    2000        .       MOVS     r0,#0
        0x00005668:    7008        .p      STRB     r0,[r1,#0]
        0x0000566a:    e02a        *.      B        0x56c2 ; VerifyFirmware + 274
        0x0000566c:    9902        ..      LDR      r1,[sp,#8]
        0x0000566e:    9100        ..      STR      r1,[sp,#0]
        0x00005670:    7b0a        .{      LDRB     r2,[r1,#0xc]
        0x00005672:    7b48        H{      LDRB     r0,[r1,#0xd]
        0x00005674:    0200        ..      LSLS     r0,r0,#8
        0x00005676:    1882        ..      ADDS     r2,r0,r2
        0x00005678:    7b88        .{      LDRB     r0,[r1,#0xe]
        0x0000567a:    0403        ..      LSLS     r3,r0,#16
        0x0000567c:    7bc8        .{      LDRB     r0,[r1,#0xf]
        0x0000567e:    0600        ..      LSLS     r0,r0,#24
        0x00005680:    18c0        ..      ADDS     r0,r0,r3
        0x00005682:    1880        ..      ADDS     r0,r0,r2
        0x00005684:    7c0b        .|      LDRB     r3,[r1,#0x10]
        0x00005686:    7c4a        J|      LDRB     r2,[r1,#0x11]
        0x00005688:    0212        ..      LSLS     r2,r2,#8
        0x0000568a:    18d2        ..      ADDS     r2,r2,r3
        0x0000568c:    7c8b        .|      LDRB     r3,[r1,#0x12]
        0x0000568e:    041b        ..      LSLS     r3,r3,#16
        0x00005690:    7cc9        .|      LDRB     r1,[r1,#0x13]
        0x00005692:    0609        ..      LSLS     r1,r1,#24
        0x00005694:    18c9        ..      ADDS     r1,r1,r3
        0x00005696:    1889        ..      ADDS     r1,r1,r2
        0x00005698:    f7fcf888    ....    BL       CRC32_Calc ; 0x17ac
        0x0000569c:    9001        ..      STR      r0,[sp,#4]
        0x0000569e:    9801        ..      LDR      r0,[sp,#4]
        0x000056a0:    9902        ..      LDR      r1,[sp,#8]
        0x000056a2:    790b        .y      LDRB     r3,[r1,#4]
        0x000056a4:    794a        Jy      LDRB     r2,[r1,#5]
        0x000056a6:    0212        ..      LSLS     r2,r2,#8
        0x000056a8:    18d2        ..      ADDS     r2,r2,r3
        0x000056aa:    798b        .y      LDRB     r3,[r1,#6]
        0x000056ac:    041b        ..      LSLS     r3,r3,#16
        0x000056ae:    79c9        .y      LDRB     r1,[r1,#7]
        0x000056b0:    0609        ..      LSLS     r1,r1,#24
        0x000056b2:    18c9        ..      ADDS     r1,r1,r3
        0x000056b4:    1889        ..      ADDS     r1,r1,r2
        0x000056b6:    1a40        @.      SUBS     r0,r0,r1
        0x000056b8:    4241        AB      RSBS     r1,r0,#0
        0x000056ba:    4148        HA      ADCS     r0,r0,r1
        0x000056bc:    a903        ..      ADD      r1,sp,#0xc
        0x000056be:    7008        .p      STRB     r0,[r1,#0]
        0x000056c0:    e7ff        ..      B        0x56c2 ; VerifyFirmware + 274
        0x000056c2:    a803        ..      ADD      r0,sp,#0xc
        0x000056c4:    7800        .x      LDRB     r0,[r0,#0]
        0x000056c6:    b004        ..      ADD      sp,sp,#0x10
        0x000056c8:    bd80        ..      POP      {r7,pc}
        0x000056ca:    0000        ..      MOVS     r0,r0
    WDT_Close
        0x000056cc:    b081        ..      SUB      sp,sp,#4
        0x000056ce:    4818        .H      LDR      r0,[pc,#96] ; [0x5730] = 0x20000008
        0x000056d0:    6800        .h      LDR      r0,[r0,#0]
        0x000056d2:    9000        ..      STR      r0,[sp,#0]
        0x000056d4:    497f        .I      LDR      r1,[pc,#508] ; [0x58d4] = 0x40004000
        0x000056d6:    2000        .       MOVS     r0,#0
        0x000056d8:    6008        .`      STR      r0,[r1,#0]
        0x000056da:    e7ff        ..      B        0x56dc ; WDT_Close + 16
        0x000056dc:    487d        }H      LDR      r0,[pc,#500] ; [0x58d4] = 0x40004000
        0x000056de:    6800        .h      LDR      r0,[r0,#0]
        0x000056e0:    0040        @.      LSLS     r0,r0,#1
        0x000056e2:    2800        .(      CMP      r0,#0
        0x000056e4:    d508        ..      BPL      0x56f8 ; WDT_Close + 44
        0x000056e6:    e7ff        ..      B        0x56e8 ; WDT_Close + 28
        0x000056e8:    9800        ..      LDR      r0,[sp,#0]
        0x000056ea:    1e40        @.      SUBS     r0,r0,#1
        0x000056ec:    9000        ..      STR      r0,[sp,#0]
        0x000056ee:    2800        .(      CMP      r0,#0
        0x000056f0:    d101        ..      BNE      0x56f6 ; WDT_Close + 42
        0x000056f2:    e7ff        ..      B        0x56f4 ; WDT_Close + 40
        0x000056f4:    e000        ..      B        0x56f8 ; WDT_Close + 44
        0x000056f6:    e7f1        ..      B        0x56dc ; WDT_Close + 16
        0x000056f8:    b001        ..      ADD      sp,sp,#4
        0x000056fa:    4770        pG      BX       lr
    WDT_EnableInt
        0x000056fc:    b081        ..      SUB      sp,sp,#4
        0x000056fe:    480c        .H      LDR      r0,[pc,#48] ; [0x5730] = 0x20000008
        0x00005700:    6800        .h      LDR      r0,[r0,#0]
        0x00005702:    9000        ..      STR      r0,[sp,#0]
        0x00005704:    4973        sI      LDR      r1,[pc,#460] ; [0x58d4] = 0x40004000
        0x00005706:    6808        .h      LDR      r0,[r1,#0]
        0x00005708:    2240        @"      MOVS     r2,#0x40
        0x0000570a:    4310        .C      ORRS     r0,r0,r2
        0x0000570c:    6008        .`      STR      r0,[r1,#0]
        0x0000570e:    e7ff        ..      B        0x5710 ; WDT_EnableInt + 20
        0x00005710:    4870        pH      LDR      r0,[pc,#448] ; [0x58d4] = 0x40004000
        0x00005712:    6800        .h      LDR      r0,[r0,#0]
        0x00005714:    0040        @.      LSLS     r0,r0,#1
        0x00005716:    2800        .(      CMP      r0,#0
        0x00005718:    d508        ..      BPL      0x572c ; WDT_EnableInt + 48
        0x0000571a:    e7ff        ..      B        0x571c ; WDT_EnableInt + 32
        0x0000571c:    9800        ..      LDR      r0,[sp,#0]
        0x0000571e:    1e40        @.      SUBS     r0,r0,#1
        0x00005720:    9000        ..      STR      r0,[sp,#0]
        0x00005722:    2800        .(      CMP      r0,#0
        0x00005724:    d101        ..      BNE      0x572a ; WDT_EnableInt + 46
        0x00005726:    e7ff        ..      B        0x5728 ; WDT_EnableInt + 44
        0x00005728:    e000        ..      B        0x572c ; WDT_EnableInt + 48
        0x0000572a:    e7f1        ..      B        0x5710 ; WDT_EnableInt + 20
        0x0000572c:    b001        ..      ADD      sp,sp,#4
        0x0000572e:    4770        pG      BX       lr
    $d
    __arm_cp.19_0
        0x00005730:    20000008    ...     DCD    536870920
    $t
    WDT_IRQHandler
        0x00005734:    b5b0        ..      PUSH     {r4,r5,r7,lr}
        0x00005736:    b088        ..      SUB      sp,sp,#0x20
        0x00005738:    f7fefd0e    ....    BL       SYS_UnlockReg ; 0x4158
        0x0000573c:    f7fcfd50    ..P.    BL       FMC_Open ; 0x21e0
        0x00005740:    4956        VI      LDR      r1,[pc,#344] ; [0x589c] = 0x40004008
        0x00005742:    4857        WH      LDR      r0,[pc,#348] ; [0x58a0] = 0x5aa5
        0x00005744:    6008        .`      STR      r0,[r1,#0]
        0x00005746:    486a        jH      LDR      r0,[pc,#424] ; [0x58f0] = 0x200010d0
        0x00005748:    6841        Ah      LDR      r1,[r0,#4]
        0x0000574a:    203f        ?       MOVS     r0,#0x3f
        0x0000574c:    02c0        ..      LSLS     r0,r0,#11
        0x0000574e:    221f        ."      MOVS     r2,#0x1f
        0x00005750:    0312        ..      LSLS     r2,r2,#12
        0x00005752:    9205        ..      STR      r2,[sp,#0x14]
        0x00005754:    4291        .B      CMP      r1,r2
        0x00005756:    9006        ..      STR      r0,[sp,#0x18]
        0x00005758:    d001        ..      BEQ      0x575e ; WDT_IRQHandler + 42
        0x0000575a:    9805        ..      LDR      r0,[sp,#0x14]
        0x0000575c:    9006        ..      STR      r0,[sp,#0x18]
        0x0000575e:    9806        ..      LDR      r0,[sp,#0x18]
        0x00005760:    9007        ..      STR      r0,[sp,#0x1c]
        0x00005762:    485c        \H      LDR      r0,[pc,#368] ; [0x58d4] = 0x40004000
        0x00005764:    6800        .h      LDR      r0,[r0,#0]
        0x00005766:    0700        ..      LSLS     r0,r0,#28
        0x00005768:    2800        .(      CMP      r0,#0
        0x0000576a:    d504        ..      BPL      0x5776 ; WDT_IRQHandler + 66
        0x0000576c:    e7ff        ..      B        0x576e ; WDT_IRQHandler + 58
        0x0000576e:    2001        .       MOVS     r0,#1
        0x00005770:    2800        .(      CMP      r0,#0
        0x00005772:    d104        ..      BNE      0x577e ; WDT_IRQHandler + 74
        0x00005774:    e06a        j.      B        0x584c ; WDT_IRQHandler + 280
        0x00005776:    2001        .       MOVS     r0,#1
        0x00005778:    2800        .(      CMP      r0,#0
        0x0000577a:    d167        g.      BNE      0x584c ; WDT_IRQHandler + 280
        0x0000577c:    e7ff        ..      B        0x577e ; WDT_IRQHandler + 74
        0x0000577e:    4955        UI      LDR      r1,[pc,#340] ; [0x58d4] = 0x40004000
        0x00005780:    6808        .h      LDR      r0,[r1,#0]
        0x00005782:    2208        ."      MOVS     r2,#8
        0x00005784:    4310        .C      ORRS     r0,r0,r2
        0x00005786:    2224        $"      MOVS     r2,#0x24
        0x00005788:    4390        .C      BICS     r0,r0,r2
        0x0000578a:    6008        .`      STR      r0,[r1,#0]
        0x0000578c:    4831        1H      LDR      r0,[pc,#196] ; [0x5854] = 0x200010e4
        0x0000578e:    9004        ..      STR      r0,[sp,#0x10]
        0x00005790:    6801        .h      LDR      r1,[r0,#0]
        0x00005792:    1c49        I.      ADDS     r1,r1,#1
        0x00005794:    6001        .`      STR      r1,[r0,#0]
        0x00005796:    6801        .h      LDR      r1,[r0,#0]
        0x00005798:    0e0a        ..      LSRS     r2,r1,#24
        0x0000579a:    482f        /H      LDR      r0,[pc,#188] ; [0x5858] = 0x200010f0
        0x0000579c:    76c2        .v      STRB     r2,[r0,#0x1b]
        0x0000579e:    0c0a        ..      LSRS     r2,r1,#16
        0x000057a0:    7682        .v      STRB     r2,[r0,#0x1a]
        0x000057a2:    7601        .v      STRB     r1,[r0,#0x18]
        0x000057a4:    0a09        ..      LSRS     r1,r1,#8
        0x000057a6:    7641        Av      STRB     r1,[r0,#0x19]
        0x000057a8:    4951        QI      LDR      r1,[pc,#324] ; [0x58f0] = 0x200010d0
        0x000057aa:    6849        Ih      LDR      r1,[r1,#4]
        0x000057ac:    f000f8af    ....    BL       WriteMetadata ; 0x590e
        0x000057b0:    9804        ..      LDR      r0,[sp,#0x10]
        0x000057b2:    6800        .h      LDR      r0,[r0,#0]
        0x000057b4:    2805        .(      CMP      r0,#5
        0x000057b6:    d348        H.      BCC      0x584a ; WDT_IRQHandler + 278
        0x000057b8:    e7ff        ..      B        0x57ba ; WDT_IRQHandler + 134
        0x000057ba:    4927        'I      LDR      r1,[pc,#156] ; [0x5858] = 0x200010f0
        0x000057bc:    9102        ..      STR      r1,[sp,#8]
        0x000057be:    780b        .x      LDRB     r3,[r1,#0]
        0x000057c0:    784a        Jx      LDRB     r2,[r1,#1]
        0x000057c2:    0210        ..      LSLS     r0,r2,#8
        0x000057c4:    18c0        ..      ADDS     r0,r0,r3
        0x000057c6:    788b        .x      LDRB     r3,[r1,#2]
        0x000057c8:    041d        ..      LSLS     r5,r3,#16
        0x000057ca:    78cc        .x      LDRB     r4,[r1,#3]
        0x000057cc:    0623        #.      LSLS     r3,r4,#24
        0x000057ce:    195b        [.      ADDS     r3,r3,r5
        0x000057d0:    1818        ..      ADDS     r0,r3,r0
        0x000057d2:    250a        .%      MOVS     r5,#0xa
        0x000057d4:    43a8        .C      BICS     r0,r0,r5
        0x000057d6:    70cc        .p      STRB     r4,[r1,#3]
        0x000057d8:    0c1b        ..      LSRS     r3,r3,#16
        0x000057da:    708b        .p      STRB     r3,[r1,#2]
        0x000057dc:    704a        Jp      STRB     r2,[r1,#1]
        0x000057de:    7008        .p      STRB     r0,[r1,#0]
        0x000057e0:    780b        .x      LDRB     r3,[r1,#0]
        0x000057e2:    784a        Jx      LDRB     r2,[r1,#1]
        0x000057e4:    0210        ..      LSLS     r0,r2,#8
        0x000057e6:    18c0        ..      ADDS     r0,r0,r3
        0x000057e8:    788b        .x      LDRB     r3,[r1,#2]
        0x000057ea:    041d        ..      LSLS     r5,r3,#16
        0x000057ec:    78cc        .x      LDRB     r4,[r1,#3]
        0x000057ee:    0623        #.      LSLS     r3,r4,#24
        0x000057f0:    195b        [.      ADDS     r3,r3,r5
        0x000057f2:    1818        ..      ADDS     r0,r3,r0
        0x000057f4:    2501        .%      MOVS     r5,#1
        0x000057f6:    9503        ..      STR      r5,[sp,#0xc]
        0x000057f8:    4328        (C      ORRS     r0,r0,r5
        0x000057fa:    70cc        .p      STRB     r4,[r1,#3]
        0x000057fc:    0c1b        ..      LSRS     r3,r3,#16
        0x000057fe:    708b        .p      STRB     r3,[r1,#2]
        0x00005800:    704a        Jp      STRB     r2,[r1,#1]
        0x00005802:    7008        .p      STRB     r0,[r1,#0]
        0x00005804:    4815        .H      LDR      r0,[pc,#84] ; [0x585c] = 0x20001110
        0x00005806:    9001        ..      STR      r0,[sp,#4]
        0x00005808:    7803        .x      LDRB     r3,[r0,#0]
        0x0000580a:    7842        Bx      LDRB     r2,[r0,#1]
        0x0000580c:    0211        ..      LSLS     r1,r2,#8
        0x0000580e:    18c9        ..      ADDS     r1,r1,r3
        0x00005810:    7883        .x      LDRB     r3,[r0,#2]
        0x00005812:    041d        ..      LSLS     r5,r3,#16
        0x00005814:    78c4        .x      LDRB     r4,[r0,#3]
        0x00005816:    0623        #.      LSLS     r3,r4,#24
        0x00005818:    195b        [.      ADDS     r3,r3,r5
        0x0000581a:    1859        Y.      ADDS     r1,r3,r1
        0x0000581c:    2508        .%      MOVS     r5,#8
        0x0000581e:    4329        )C      ORRS     r1,r1,r5
        0x00005820:    70c4        .p      STRB     r4,[r0,#3]
        0x00005822:    0c1b        ..      LSRS     r3,r3,#16
        0x00005824:    7083        .p      STRB     r3,[r0,#2]
        0x00005826:    7042        Bp      STRB     r2,[r0,#1]
        0x00005828:    7001        .p      STRB     r1,[r0,#0]
        0x0000582a:    9907        ..      LDR      r1,[sp,#0x1c]
        0x0000582c:    f000f86f    ..o.    BL       WriteMetadata ; 0x590e
        0x00005830:    9802        ..      LDR      r0,[sp,#8]
        0x00005832:    492f        /I      LDR      r1,[pc,#188] ; [0x58f0] = 0x200010d0
        0x00005834:    6849        Ih      LDR      r1,[r1,#4]
        0x00005836:    f000f86a    ..j.    BL       WriteMetadata ; 0x590e
        0x0000583a:    9a03        ..      LDR      r2,[sp,#0xc]
        0x0000583c:    2103        .!      MOVS     r1,#3
        0x0000583e:    2300        .#      MOVS     r3,#0
        0x00005840:    4618        .F      MOV      r0,r3
        0x00005842:    f000f82f    ../.    BL       WDT_Open ; 0x58a4
        0x00005846:    e7ff        ..      B        0x5848 ; WDT_IRQHandler + 276
        0x00005848:    e7fe        ..      B        0x5848 ; WDT_IRQHandler + 276
        0x0000584a:    e7ff        ..      B        0x584c ; WDT_IRQHandler + 280
        0x0000584c:    f7fefc62    ..b.    BL       SYS_LockReg ; 0x4114
        0x00005850:    b008        ..      ADD      sp,sp,#0x20
        0x00005852:    bdb0        ..      POP      {r4,r5,r7,pc}
    $d
    __arm_cp.0_4
        0x00005854:    200010e4    ...     DCD    536875236
    __arm_cp.0_5
        0x00005858:    200010f0    ...     DCD    536875248
    __arm_cp.0_6
        0x0000585c:    20001110    ...     DCD    536875280
    $t
    WDT_Init
        0x00005860:    b580        ..      PUSH     {r7,lr}
        0x00005862:    b082        ..      SUB      sp,sp,#8
        0x00005864:    f7ffff32    ..2.    BL       WDT_Close ; 0x56cc
        0x00005868:    2003        .       MOVS     r0,#3
        0x0000586a:    0240        @.      LSLS     r0,r0,#9
        0x0000586c:    2201        ."      MOVS     r2,#1
        0x0000586e:    9201        ..      STR      r2,[sp,#4]
        0x00005870:    2300        .#      MOVS     r3,#0
        0x00005872:    4611        .F      MOV      r1,r2
        0x00005874:    f000f816    ....    BL       WDT_Open ; 0x58a4
        0x00005878:    f7ffff40    ..@.    BL       WDT_EnableInt ; 0x56fc
        0x0000587c:    9801        ..      LDR      r0,[sp,#4]
        0x0000587e:    f7fef9bf    ....    BL       NVIC_EnableIRQ ; 0x3c00
        0x00005882:    4914        .I      LDR      r1,[pc,#80] ; [0x58d4] = 0x40004000
        0x00005884:    6808        .h      LDR      r0,[r1,#0]
        0x00005886:    2204        ."      MOVS     r2,#4
        0x00005888:    4310        .C      ORRS     r0,r0,r2
        0x0000588a:    2228        ("      MOVS     r2,#0x28
        0x0000588c:    4390        .C      BICS     r0,r0,r2
        0x0000588e:    6008        .`      STR      r0,[r1,#0]
        0x00005890:    4902        .I      LDR      r1,[pc,#8] ; [0x589c] = 0x40004008
        0x00005892:    4803        .H      LDR      r0,[pc,#12] ; [0x58a0] = 0x5aa5
        0x00005894:    6008        .`      STR      r0,[r1,#0]
        0x00005896:    b002        ..      ADD      sp,sp,#8
        0x00005898:    bd80        ..      POP      {r7,pc}
        0x0000589a:    46c0        .F      MOV      r8,r8
    $d
    __arm_cp.17_1
        0x0000589c:    40004008    .@.@    DCD    1073758216
    __arm_cp.17_2
        0x000058a0:    00005aa5    .Z..    DCD    23205
    $t
    WDT_Open
        0x000058a4:    b084        ..      SUB      sp,sp,#0x10
        0x000058a6:    9003        ..      STR      r0,[sp,#0xc]
        0x000058a8:    9102        ..      STR      r1,[sp,#8]
        0x000058aa:    9201        ..      STR      r2,[sp,#4]
        0x000058ac:    9300        ..      STR      r3,[sp,#0]
        0x000058ae:    9802        ..      LDR      r0,[sp,#8]
        0x000058b0:    4907        .I      LDR      r1,[pc,#28] ; [0x58d0] = 0x40004004
        0x000058b2:    6008        .`      STR      r0,[r1,#0]
        0x000058b4:    9803        ..      LDR      r0,[sp,#0xc]
        0x000058b6:    9901        ..      LDR      r1,[sp,#4]
        0x000058b8:    0049        I.      LSLS     r1,r1,#1
        0x000058ba:    4308        .C      ORRS     r0,r0,r1
        0x000058bc:    9900        ..      LDR      r1,[sp,#0]
        0x000058be:    0109        ..      LSLS     r1,r1,#4
        0x000058c0:    4308        .C      ORRS     r0,r0,r1
        0x000058c2:    2180        .!      MOVS     r1,#0x80
        0x000058c4:    4308        .C      ORRS     r0,r0,r1
        0x000058c6:    4903        .I      LDR      r1,[pc,#12] ; [0x58d4] = 0x40004000
        0x000058c8:    6008        .`      STR      r0,[r1,#0]
        0x000058ca:    b004        ..      ADD      sp,sp,#0x10
        0x000058cc:    4770        pG      BX       lr
        0x000058ce:    46c0        .F      MOV      r8,r8
    $d
    __arm_cp.0_0
        0x000058d0:    40004004    .@.@    DCD    1073758212
    __arm_cp.0_1
        0x000058d4:    40004000    .@.@    DCD    1073758208
    $t
    WRITE_FW_STATUS_FLAG
        0x000058d8:    b580        ..      PUSH     {r7,lr}
        0x000058da:    b082        ..      SUB      sp,sp,#8
        0x000058dc:    9001        ..      STR      r0,[sp,#4]
        0x000058de:    f7fcfc7f    ....    BL       FMC_Open ; 0x21e0
        0x000058e2:    9901        ..      LDR      r1,[sp,#4]
        0x000058e4:    4802        .H      LDR      r0,[pc,#8] ; [0x58f0] = 0x200010d0
        0x000058e6:    6081        .`      STR      r1,[r0,#8]
        0x000058e8:    f000f804    ....    BL       WriteFWstatus ; 0x58f4
        0x000058ec:    b002        ..      ADD      sp,sp,#8
        0x000058ee:    bd80        ..      POP      {r7,pc}
    $d
    __arm_cp.6_0
        0x000058f0:    200010d0    ...     DCD    536875216
    $t
    WriteFWstatus
        0x000058f4:    b580        ..      PUSH     {r7,lr}
        0x000058f6:    b082        ..      SUB      sp,sp,#8
        0x000058f8:    9001        ..      STR      r0,[sp,#4]
        0x000058fa:    9801        ..      LDR      r0,[sp,#4]
        0x000058fc:    2300        .#      MOVS     r3,#0
        0x000058fe:    9300        ..      STR      r3,[sp,#0]
        0x00005900:    213d        =!      MOVS     r1,#0x3d
        0x00005902:    02ca        ..      LSLS     r2,r1,#11
        0x00005904:    2110        .!      MOVS     r1,#0x10
        0x00005906:    f000f811    ....    BL       WriteToFlash ; 0x592c
        0x0000590a:    b002        ..      ADD      sp,sp,#8
        0x0000590c:    bd80        ..      POP      {r7,pc}
    WriteMetadata
        0x0000590e:    b580        ..      PUSH     {r7,lr}
        0x00005910:    b084        ..      SUB      sp,sp,#0x10
        0x00005912:    9003        ..      STR      r0,[sp,#0xc]
        0x00005914:    9102        ..      STR      r1,[sp,#8]
        0x00005916:    9803        ..      LDR      r0,[sp,#0xc]
        0x00005918:    9a02        ..      LDR      r2,[sp,#8]
        0x0000591a:    211c        .!      MOVS     r1,#0x1c
        0x0000591c:    9100        ..      STR      r1,[sp,#0]
        0x0000591e:    2120         !      MOVS     r1,#0x20
        0x00005920:    2301        .#      MOVS     r3,#1
        0x00005922:    f000f803    ....    BL       WriteToFlash ; 0x592c
        0x00005926:    b004        ..      ADD      sp,sp,#0x10
        0x00005928:    bd80        ..      POP      {r7,pc}
        0x0000592a:    0000        ..      MOVS     r0,r0
    WriteToFlash
        0x0000592c:    b510        ..      PUSH     {r4,lr}
        0x0000592e:    b088        ..      SUB      sp,sp,#0x20
        0x00005930:    9c0a        ..      LDR      r4,[sp,#0x28]
        0x00005932:    9006        ..      STR      r0,[sp,#0x18]
        0x00005934:    9105        ..      STR      r1,[sp,#0x14]
        0x00005936:    9204        ..      STR      r2,[sp,#0x10]
        0x00005938:    a803        ..      ADD      r0,sp,#0xc
        0x0000593a:    9001        ..      STR      r0,[sp,#4]
        0x0000593c:    7003        .p      STRB     r3,[r0,#0]
        0x0000593e:    f7fcfc4f    ..O.    BL       FMC_Open ; 0x21e0
        0x00005942:    9801        ..      LDR      r0,[sp,#4]
        0x00005944:    7800        .x      LDRB     r0,[r0,#0]
        0x00005946:    07c0        ..      LSLS     r0,r0,#31
        0x00005948:    2800        .(      CMP      r0,#0
        0x0000594a:    d00b        ..      BEQ      0x5964 ; WriteToFlash + 56
        0x0000594c:    e7ff        ..      B        0x594e ; WriteToFlash + 34
        0x0000594e:    9806        ..      LDR      r0,[sp,#0x18]
        0x00005950:    9905        ..      LDR      r1,[sp,#0x14]
        0x00005952:    1f09        ..      SUBS     r1,r1,#4
        0x00005954:    f7fbff2a    ..*.    BL       CRC32_Calc ; 0x17ac
        0x00005958:    9002        ..      STR      r0,[sp,#8]
        0x0000595a:    9802        ..      LDR      r0,[sp,#8]
        0x0000595c:    9906        ..      LDR      r1,[sp,#0x18]
        0x0000595e:    9a0a        ..      LDR      r2,[sp,#0x28]
        0x00005960:    5088        .P      STR      r0,[r1,r2]
        0x00005962:    e7ff        ..      B        0x5964 ; WriteToFlash + 56
        0x00005964:    9904        ..      LDR      r1,[sp,#0x10]
        0x00005966:    2001        .       MOVS     r0,#1
        0x00005968:    02c0        ..      LSLS     r0,r0,#11
        0x0000596a:    180a        ..      ADDS     r2,r1,r0
        0x0000596c:    2022        "       MOVS     r0,#0x22
        0x0000596e:    2300        .#      MOVS     r3,#0
        0x00005970:    f7fcfc3c    ..<.    BL       FMC_Proc ; 0x21ec
        0x00005974:    2800        .(      CMP      r0,#0
        0x00005976:    d001        ..      BEQ      0x597c ; WriteToFlash + 80
        0x00005978:    e7ff        ..      B        0x597a ; WriteToFlash + 78
        0x0000597a:    e014        ..      B        0x59a6 ; WriteToFlash + 122
        0x0000597c:    9904        ..      LDR      r1,[sp,#0x10]
        0x0000597e:    9805        ..      LDR      r0,[sp,#0x14]
        0x00005980:    180a        ..      ADDS     r2,r1,r0
        0x00005982:    9b06        ..      LDR      r3,[sp,#0x18]
        0x00005984:    2021        !       MOVS     r0,#0x21
        0x00005986:    f7fcfc31    ..1.    BL       FMC_Proc ; 0x21ec
        0x0000598a:    2800        .(      CMP      r0,#0
        0x0000598c:    d001        ..      BEQ      0x5992 ; WriteToFlash + 102
        0x0000598e:    e7ff        ..      B        0x5990 ; WriteToFlash + 100
        0x00005990:    e009        ..      B        0x59a6 ; WriteToFlash + 122
        0x00005992:    490c        .I      LDR      r1,[pc,#48] ; [0x59c4] = 0x5000c000
        0x00005994:    6808        .h      LDR      r0,[r1,#0]
        0x00005996:    2201        ."      MOVS     r2,#1
        0x00005998:    4390        .C      BICS     r0,r0,r2
        0x0000599a:    6008        .`      STR      r0,[r1,#0]
        0x0000599c:    f7fcfc1a    ....    BL       FMC_Close ; 0x21d4
        0x000059a0:    2000        .       MOVS     r0,#0
        0x000059a2:    9007        ..      STR      r0,[sp,#0x1c]
        0x000059a4:    e00a        ..      B        0x59bc ; WriteToFlash + 144
        0x000059a6:    4907        .I      LDR      r1,[pc,#28] ; [0x59c4] = 0x5000c000
        0x000059a8:    6808        .h      LDR      r0,[r1,#0]
        0x000059aa:    2201        ."      MOVS     r2,#1
        0x000059ac:    4390        .C      BICS     r0,r0,r2
        0x000059ae:    6008        .`      STR      r0,[r1,#0]
        0x000059b0:    f7fcfc10    ....    BL       FMC_Close ; 0x21d4
        0x000059b4:    2000        .       MOVS     r0,#0
        0x000059b6:    43c0        .C      MVNS     r0,r0
        0x000059b8:    9007        ..      STR      r0,[sp,#0x1c]
        0x000059ba:    e7ff        ..      B        0x59bc ; WriteToFlash + 144
        0x000059bc:    9807        ..      LDR      r0,[sp,#0x1c]
        0x000059be:    b008        ..      ADD      sp,sp,#0x20
        0x000059c0:    bd10        ..      POP      {r4,pc}
        0x000059c2:    46c0        .F      MOV      r8,r8
    $d
    __arm_cp.12_0
        0x000059c4:    5000c000    ...P    DCD    1342226432
    $t
    _SendStringToHOST
        0x000059c8:    b580        ..      PUSH     {r7,lr}
        0x000059ca:    b086        ..      SUB      sp,sp,#0x18
        0x000059cc:    9101        ..      STR      r1,[sp,#4]
        0x000059ce:    4601        .F      MOV      r1,r0
        0x000059d0:    9801        ..      LDR      r0,[sp,#4]
        0x000059d2:    9104        ..      STR      r1,[sp,#0x10]
        0x000059d4:    a903        ..      ADD      r1,sp,#0xc
        0x000059d6:    7008        .p      STRB     r0,[r1,#0]
        0x000059d8:    4826        &H      LDR      r0,[pc,#152] ; [0x5a74] = 0x20000101
        0x000059da:    7800        .x      LDRB     r0,[r0,#0]
        0x000059dc:    7809        .x      LDRB     r1,[r1,#0]
        0x000059de:    1840        @.      ADDS     r0,r0,r1
        0x000059e0:    2865        e(      CMP      r0,#0x65
        0x000059e2:    db04        ..      BLT      0x59ee ; _SendStringToHOST + 38
        0x000059e4:    e7ff        ..      B        0x59e6 ; _SendStringToHOST + 30
        0x000059e6:    a905        ..      ADD      r1,sp,#0x14
        0x000059e8:    2001        .       MOVS     r0,#1
        0x000059ea:    7008        .p      STRB     r0,[r1,#0]
        0x000059ec:    e03d        =.      B        0x5a6a ; _SendStringToHOST + 162
        0x000059ee:    f7fcfbe5    ....    BL       EnableHostUartTx ; 0x21bc
        0x000059f2:    a902        ..      ADD      r1,sp,#8
        0x000059f4:    2000        .       MOVS     r0,#0
        0x000059f6:    7008        .p      STRB     r0,[r1,#0]
        0x000059f8:    e7ff        ..      B        0x59fa ; _SendStringToHOST + 50
        0x000059fa:    a802        ..      ADD      r0,sp,#8
        0x000059fc:    7800        .x      LDRB     r0,[r0,#0]
        0x000059fe:    a903        ..      ADD      r1,sp,#0xc
        0x00005a00:    7809        .x      LDRB     r1,[r1,#0]
        0x00005a02:    4288        .B      CMP      r0,r1
        0x00005a04:    da1d        ..      BGE      0x5a42 ; _SendStringToHOST + 122
        0x00005a06:    e7ff        ..      B        0x5a08 ; _SendStringToHOST + 64
        0x00005a08:    9804        ..      LDR      r0,[sp,#0x10]
        0x00005a0a:    a902        ..      ADD      r1,sp,#8
        0x00005a0c:    7809        .x      LDRB     r1,[r1,#0]
        0x00005a0e:    5c41        A\      LDRB     r1,[r0,r1]
        0x00005a10:    481b        .H      LDR      r0,[pc,#108] ; [0x5a80] = 0x20000103
        0x00005a12:    7803        .x      LDRB     r3,[r0,#0]
        0x00005a14:    4a1b        .J      LDR      r2,[pc,#108] ; [0x5a84] = 0x2000009d
        0x00005a16:    54d1        .T      STRB     r1,[r2,r3]
        0x00005a18:    7801        .x      LDRB     r1,[r0,#0]
        0x00005a1a:    1c49        I.      ADDS     r1,r1,#1
        0x00005a1c:    7001        .p      STRB     r1,[r0,#0]
        0x00005a1e:    7800        .x      LDRB     r0,[r0,#0]
        0x00005a20:    2864        d(      CMP      r0,#0x64
        0x00005a22:    db04        ..      BLT      0x5a2e ; _SendStringToHOST + 102
        0x00005a24:    e7ff        ..      B        0x5a26 ; _SendStringToHOST + 94
        0x00005a26:    4916        .I      LDR      r1,[pc,#88] ; [0x5a80] = 0x20000103
        0x00005a28:    2000        .       MOVS     r0,#0
        0x00005a2a:    7008        .p      STRB     r0,[r1,#0]
        0x00005a2c:    e7ff        ..      B        0x5a2e ; _SendStringToHOST + 102
        0x00005a2e:    4911        .I      LDR      r1,[pc,#68] ; [0x5a74] = 0x20000101
        0x00005a30:    7808        .x      LDRB     r0,[r1,#0]
        0x00005a32:    1c40        @.      ADDS     r0,r0,#1
        0x00005a34:    7008        .p      STRB     r0,[r1,#0]
        0x00005a36:    e7ff        ..      B        0x5a38 ; _SendStringToHOST + 112
        0x00005a38:    9802        ..      LDR      r0,[sp,#8]
        0x00005a3a:    1c40        @.      ADDS     r0,r0,#1
        0x00005a3c:    a902        ..      ADD      r1,sp,#8
        0x00005a3e:    7008        .p      STRB     r0,[r1,#0]
        0x00005a40:    e7db        ..      B        0x59fa ; _SendStringToHOST + 50
        0x00005a42:    480d        .H      LDR      r0,[pc,#52] ; [0x5a78] = 0x40050000
        0x00005a44:    2102        .!      MOVS     r1,#2
        0x00005a46:    f7fffd63    ..c.    BL       UART_EnableInt ; 0x5510
        0x00005a4a:    200c        .       MOVS     r0,#0xc
        0x00005a4c:    f7fef8e6    ....    BL       NVIC_EnableIRQ ; 0x3c1c
        0x00005a50:    e7ff        ..      B        0x5a52 ; _SendStringToHOST + 138
        0x00005a52:    e7ff        ..      B        0x5a54 ; _SendStringToHOST + 140
        0x00005a54:    4809        .H      LDR      r0,[pc,#36] ; [0x5a7c] = 0x40150018
        0x00005a56:    6800        .h      LDR      r0,[r0,#0]
        0x00005a58:    00c0        ..      LSLS     r0,r0,#3
        0x00005a5a:    2800        .(      CMP      r0,#0
        0x00005a5c:    d401        ..      BMI      0x5a62 ; _SendStringToHOST + 154
        0x00005a5e:    e7ff        ..      B        0x5a60 ; _SendStringToHOST + 152
        0x00005a60:    e7f8        ..      B        0x5a54 ; _SendStringToHOST + 140
        0x00005a62:    a905        ..      ADD      r1,sp,#0x14
        0x00005a64:    2000        .       MOVS     r0,#0
        0x00005a66:    7008        .p      STRB     r0,[r1,#0]
        0x00005a68:    e7ff        ..      B        0x5a6a ; _SendStringToHOST + 162
        0x00005a6a:    a805        ..      ADD      r0,sp,#0x14
        0x00005a6c:    7800        .x      LDRB     r0,[r0,#0]
        0x00005a6e:    b006        ..      ADD      sp,sp,#0x18
        0x00005a70:    bd80        ..      POP      {r7,pc}
        0x00005a72:    46c0        .F      MOV      r8,r8
    $d
    __arm_cp.12_0
        0x00005a74:    20000101    ...     DCD    536871169
    __arm_cp.12_1
        0x00005a78:    40050000    ...@    DCD    1074069504
    __arm_cp.12_2
        0x00005a7c:    40150018    ...@    DCD    1075118104
    __arm_cp.12_3
        0x00005a80:    20000103    ...     DCD    536871171
    __arm_cp.12_4
        0x00005a84:    2000009d    ...     DCD    536871069
    $t
    _SendStringToMETER
        0x00005a88:    b580        ..      PUSH     {r7,lr}
        0x00005a8a:    b086        ..      SUB      sp,sp,#0x18
        0x00005a8c:    9100        ..      STR      r1,[sp,#0]
        0x00005a8e:    4601        .F      MOV      r1,r0
        0x00005a90:    9800        ..      LDR      r0,[sp,#0]
        0x00005a92:    9104        ..      STR      r1,[sp,#0x10]
        0x00005a94:    a903        ..      ADD      r1,sp,#0xc
        0x00005a96:    7008        .p      STRB     r0,[r1,#0]
        0x00005a98:    4826        &H      LDR      r0,[pc,#152] ; [0x5b34] = 0x20000234
        0x00005a9a:    7800        .x      LDRB     r0,[r0,#0]
        0x00005a9c:    7809        .x      LDRB     r1,[r1,#0]
        0x00005a9e:    1840        @.      ADDS     r0,r0,r1
        0x00005aa0:    281a        .(      CMP      r0,#0x1a
        0x00005aa2:    db04        ..      BLT      0x5aae ; _SendStringToMETER + 38
        0x00005aa4:    e7ff        ..      B        0x5aa6 ; _SendStringToMETER + 30
        0x00005aa6:    a905        ..      ADD      r1,sp,#0x14
        0x00005aa8:    2001        .       MOVS     r0,#1
        0x00005aaa:    7008        .p      STRB     r0,[r1,#0]
        0x00005aac:    e03e        >.      B        0x5b2c ; _SendStringToMETER + 164
        0x00005aae:    4822        "H      LDR      r0,[pc,#136] ; [0x5b38] = 0x20000d0d
        0x00005ab0:    7800        .x      LDRB     r0,[r0,#0]
        0x00005ab2:    1e41        A.      SUBS     r1,r0,#1
        0x00005ab4:    a801        ..      ADD      r0,sp,#4
        0x00005ab6:    7001        .p      STRB     r1,[r0,#0]
        0x00005ab8:    7800        .x      LDRB     r0,[r0,#0]
        0x00005aba:    0082        ..      LSLS     r2,r0,#2
        0x00005abc:    491f        .I      LDR      r1,[pc,#124] ; [0x5b3c] = 0x20000dd4
        0x00005abe:    5888        .X      LDR      r0,[r1,r2]
        0x00005ac0:    1c40        @.      ADDS     r0,r0,#1
        0x00005ac2:    5088        .P      STR      r0,[r1,r2]
        0x00005ac4:    a902        ..      ADD      r1,sp,#8
        0x00005ac6:    2000        .       MOVS     r0,#0
        0x00005ac8:    7008        .p      STRB     r0,[r1,#0]
        0x00005aca:    e7ff        ..      B        0x5acc ; _SendStringToMETER + 68
        0x00005acc:    a802        ..      ADD      r0,sp,#8
        0x00005ace:    7800        .x      LDRB     r0,[r0,#0]
        0x00005ad0:    a903        ..      ADD      r1,sp,#0xc
        0x00005ad2:    7809        .x      LDRB     r1,[r1,#0]
        0x00005ad4:    4288        .B      CMP      r0,r1
        0x00005ad6:    da1d        ..      BGE      0x5b14 ; _SendStringToMETER + 140
        0x00005ad8:    e7ff        ..      B        0x5ada ; _SendStringToMETER + 82
        0x00005ada:    9804        ..      LDR      r0,[sp,#0x10]
        0x00005adc:    a902        ..      ADD      r1,sp,#8
        0x00005ade:    7809        .x      LDRB     r1,[r1,#0]
        0x00005ae0:    5c41        A\      LDRB     r1,[r0,r1]
        0x00005ae2:    4818        .H      LDR      r0,[pc,#96] ; [0x5b44] = 0x20000236
        0x00005ae4:    7803        .x      LDRB     r3,[r0,#0]
        0x00005ae6:    4a18        .J      LDR      r2,[pc,#96] ; [0x5b48] = 0x2000021b
        0x00005ae8:    54d1        .T      STRB     r1,[r2,r3]
        0x00005aea:    7801        .x      LDRB     r1,[r0,#0]
        0x00005aec:    1c49        I.      ADDS     r1,r1,#1
        0x00005aee:    7001        .p      STRB     r1,[r0,#0]
        0x00005af0:    7800        .x      LDRB     r0,[r0,#0]
        0x00005af2:    2819        .(      CMP      r0,#0x19
        0x00005af4:    db04        ..      BLT      0x5b00 ; _SendStringToMETER + 120
        0x00005af6:    e7ff        ..      B        0x5af8 ; _SendStringToMETER + 112
        0x00005af8:    4912        .I      LDR      r1,[pc,#72] ; [0x5b44] = 0x20000236
        0x00005afa:    2000        .       MOVS     r0,#0
        0x00005afc:    7008        .p      STRB     r0,[r1,#0]
        0x00005afe:    e7ff        ..      B        0x5b00 ; _SendStringToMETER + 120
        0x00005b00:    490c        .I      LDR      r1,[pc,#48] ; [0x5b34] = 0x20000234
        0x00005b02:    7808        .x      LDRB     r0,[r1,#0]
        0x00005b04:    1c40        @.      ADDS     r0,r0,#1
        0x00005b06:    7008        .p      STRB     r0,[r1,#0]
        0x00005b08:    e7ff        ..      B        0x5b0a ; _SendStringToMETER + 130
        0x00005b0a:    9802        ..      LDR      r0,[sp,#8]
        0x00005b0c:    1c40        @.      ADDS     r0,r0,#1
        0x00005b0e:    a902        ..      ADD      r1,sp,#8
        0x00005b10:    7008        .p      STRB     r0,[r1,#0]
        0x00005b12:    e7db        ..      B        0x5acc ; _SendStringToMETER + 68
        0x00005b14:    480a        .H      LDR      r0,[pc,#40] ; [0x5b40] = 0x40154000
        0x00005b16:    2102        .!      MOVS     r1,#2
        0x00005b18:    f7fffcfa    ....    BL       UART_EnableInt ; 0x5510
        0x00005b1c:    200c        .       MOVS     r0,#0xc
        0x00005b1e:    f7fef88b    ....    BL       NVIC_EnableIRQ ; 0x3c38
        0x00005b22:    e7ff        ..      B        0x5b24 ; _SendStringToMETER + 156
        0x00005b24:    a905        ..      ADD      r1,sp,#0x14
        0x00005b26:    2000        .       MOVS     r0,#0
        0x00005b28:    7008        .p      STRB     r0,[r1,#0]
        0x00005b2a:    e7ff        ..      B        0x5b2c ; _SendStringToMETER + 164
        0x00005b2c:    a805        ..      ADD      r0,sp,#0x14
        0x00005b2e:    7800        .x      LDRB     r0,[r0,#0]
        0x00005b30:    b006        ..      ADD      sp,sp,#0x18
        0x00005b32:    bd80        ..      POP      {r7,pc}
    $d
    __arm_cp.6_0
        0x00005b34:    20000234    4..     DCD    536871476
    __arm_cp.6_1
        0x00005b38:    20000d0d    ...     DCD    536874253
    __arm_cp.6_2
        0x00005b3c:    20000dd4    ...     DCD    536874452
    __arm_cp.6_3
        0x00005b40:    40154000    .@.@    DCD    1075134464
    __arm_cp.6_4
        0x00005b44:    20000236    6..     DCD    536871478
    __arm_cp.6_5
        0x00005b48:    2000021b    ...     DCD    536871451
    $t
    a_delay_us
        0x00005b4c:    b083        ..      SUB      sp,sp,#0xc
        0x00005b4e:    a902        ..      ADD      r1,sp,#8
        0x00005b50:    7008        .p      STRB     r0,[r1,#0]
        0x00005b52:    a901        ..      ADD      r1,sp,#4
        0x00005b54:    2000        .       MOVS     r0,#0
        0x00005b56:    7008        .p      STRB     r0,[r1,#0]
        0x00005b58:    e7ff        ..      B        0x5b5a ; a_delay_us + 14
        0x00005b5a:    a801        ..      ADD      r0,sp,#4
        0x00005b5c:    7800        .x      LDRB     r0,[r0,#0]
        0x00005b5e:    a902        ..      ADD      r1,sp,#8
        0x00005b60:    7809        .x      LDRB     r1,[r1,#0]
        0x00005b62:    4288        .B      CMP      r0,r1
        0x00005b64:    da16        ..      BGE      0x5b94 ; a_delay_us + 72
        0x00005b66:    e7ff        ..      B        0x5b68 ; a_delay_us + 28
        0x00005b68:    4669        iF      MOV      r1,sp
        0x00005b6a:    2000        .       MOVS     r0,#0
        0x00005b6c:    7008        .p      STRB     r0,[r1,#0]
        0x00005b6e:    e7ff        ..      B        0x5b70 ; a_delay_us + 36
        0x00005b70:    4668        hF      MOV      r0,sp
        0x00005b72:    7800        .x      LDRB     r0,[r0,#0]
        0x00005b74:    2831        1(      CMP      r0,#0x31
        0x00005b76:    dc07        ..      BGT      0x5b88 ; a_delay_us + 60
        0x00005b78:    e7ff        ..      B        0x5b7a ; a_delay_us + 46
        0x00005b7a:    bf00        ..      NOP      
        0x00005b7c:    e7ff        ..      B        0x5b7e ; a_delay_us + 50
        0x00005b7e:    9800        ..      LDR      r0,[sp,#0]
        0x00005b80:    1c40        @.      ADDS     r0,r0,#1
        0x00005b82:    4669        iF      MOV      r1,sp
        0x00005b84:    7008        .p      STRB     r0,[r1,#0]
        0x00005b86:    e7f3        ..      B        0x5b70 ; a_delay_us + 36
        0x00005b88:    e7ff        ..      B        0x5b8a ; a_delay_us + 62
        0x00005b8a:    9801        ..      LDR      r0,[sp,#4]
        0x00005b8c:    1c40        @.      ADDS     r0,r0,#1
        0x00005b8e:    a901        ..      ADD      r1,sp,#4
        0x00005b90:    7008        .p      STRB     r0,[r1,#0]
        0x00005b92:    e7e2        ..      B        0x5b5a ; a_delay_us + 14
        0x00005b94:    b003        ..      ADD      sp,sp,#0xc
        0x00005b96:    4770        pG      BX       lr
    boolFwcheck
        0x00005b98:    b580        ..      PUSH     {r7,lr}
        0x00005b9a:    b094        ..      SUB      sp,sp,#0x50
        0x00005b9c:    4861        aH      LDR      r0,[pc,#388] ; [0x5d24] = 0x200010d0
        0x00005b9e:    4962        bI      LDR      r1,[pc,#392] ; [0x5d28] = 0x200010f0
        0x00005ba0:    910e        ..      STR      r1,[sp,#0x38]
        0x00005ba2:    4a62        bJ      LDR      r2,[pc,#392] ; [0x5d2c] = 0x20001110
        0x00005ba4:    f7fef90a    ....    BL       ReadMetaInfo ; 0x3dbc
        0x00005ba8:    980e        ..      LDR      r0,[sp,#0x38]
        0x00005baa:    f7fffd01    ....    BL       VerifyFirmware ; 0x55b0
        0x00005bae:    4601        .F      MOV      r1,r0
        0x00005bb0:    980e        ..      LDR      r0,[sp,#0x38]
        0x00005bb2:    aa13        ..      ADD      r2,sp,#0x4c
        0x00005bb4:    7011        .p      STRB     r1,[r2,#0]
        0x00005bb6:    7802        .x      LDRB     r2,[r0,#0]
        0x00005bb8:    7841        Ax      LDRB     r1,[r0,#1]
        0x00005bba:    0209        ..      LSLS     r1,r1,#8
        0x00005bbc:    1889        ..      ADDS     r1,r1,r2
        0x00005bbe:    7882        .x      LDRB     r2,[r0,#2]
        0x00005bc0:    0412        ..      LSLS     r2,r2,#16
        0x00005bc2:    78c0        .x      LDRB     r0,[r0,#3]
        0x00005bc4:    0600        ..      LSLS     r0,r0,#24
        0x00005bc6:    1880        ..      ADDS     r0,r0,r2
        0x00005bc8:    1841        A.      ADDS     r1,r0,r1
        0x00005bca:    2000        .       MOVS     r0,#0
        0x00005bcc:    1c49        I.      ADDS     r1,r1,#1
        0x00005bce:    2900        .)      CMP      r1,#0
        0x00005bd0:    900f        ..      STR      r0,[sp,#0x3c]
        0x00005bd2:    d00f        ..      BEQ      0x5bf4 ; boolFwcheck + 92
        0x00005bd4:    e7ff        ..      B        0x5bd6 ; boolFwcheck + 62
        0x00005bd6:    4854        TH      LDR      r0,[pc,#336] ; [0x5d28] = 0x200010f0
        0x00005bd8:    7802        .x      LDRB     r2,[r0,#0]
        0x00005bda:    7841        Ax      LDRB     r1,[r0,#1]
        0x00005bdc:    0209        ..      LSLS     r1,r1,#8
        0x00005bde:    1889        ..      ADDS     r1,r1,r2
        0x00005be0:    7882        .x      LDRB     r2,[r0,#2]
        0x00005be2:    0412        ..      LSLS     r2,r2,#16
        0x00005be4:    78c0        .x      LDRB     r0,[r0,#3]
        0x00005be6:    0600        ..      LSLS     r0,r0,#24
        0x00005be8:    1880        ..      ADDS     r0,r0,r2
        0x00005bea:    1840        @.      ADDS     r0,r0,r1
        0x00005bec:    1e41        A.      SUBS     r1,r0,#1
        0x00005bee:    4188        .A      SBCS     r0,r0,r1
        0x00005bf0:    900f        ..      STR      r0,[sp,#0x3c]
        0x00005bf2:    e7ff        ..      B        0x5bf4 ; boolFwcheck + 92
        0x00005bf4:    990f        ..      LDR      r1,[sp,#0x3c]
        0x00005bf6:    2001        .       MOVS     r0,#1
        0x00005bf8:    4001        .@      ANDS     r1,r1,r0
        0x00005bfa:    aa12        ..      ADD      r2,sp,#0x48
        0x00005bfc:    7011        .p      STRB     r1,[r2,#0]
        0x00005bfe:    494a        JI      LDR      r1,[pc,#296] ; [0x5d28] = 0x200010f0
        0x00005c00:    780b        .x      LDRB     r3,[r1,#0]
        0x00005c02:    784a        Jx      LDRB     r2,[r1,#1]
        0x00005c04:    0212        ..      LSLS     r2,r2,#8
        0x00005c06:    18d2        ..      ADDS     r2,r2,r3
        0x00005c08:    788b        .x      LDRB     r3,[r1,#2]
        0x00005c0a:    041b        ..      LSLS     r3,r3,#16
        0x00005c0c:    78c9        .x      LDRB     r1,[r1,#3]
        0x00005c0e:    0609        ..      LSLS     r1,r1,#24
        0x00005c10:    18c9        ..      ADDS     r1,r1,r3
        0x00005c12:    1889        ..      ADDS     r1,r1,r2
        0x00005c14:    2904        .)      CMP      r1,#4
        0x00005c16:    900d        ..      STR      r0,[sp,#0x34]
        0x00005c18:    d010        ..      BEQ      0x5c3c ; boolFwcheck + 164
        0x00005c1a:    e7ff        ..      B        0x5c1c ; boolFwcheck + 132
        0x00005c1c:    4842        BH      LDR      r0,[pc,#264] ; [0x5d28] = 0x200010f0
        0x00005c1e:    7802        .x      LDRB     r2,[r0,#0]
        0x00005c20:    7841        Ax      LDRB     r1,[r0,#1]
        0x00005c22:    0209        ..      LSLS     r1,r1,#8
        0x00005c24:    1889        ..      ADDS     r1,r1,r2
        0x00005c26:    7882        .x      LDRB     r2,[r0,#2]
        0x00005c28:    0412        ..      LSLS     r2,r2,#16
        0x00005c2a:    78c0        .x      LDRB     r0,[r0,#3]
        0x00005c2c:    0600        ..      LSLS     r0,r0,#24
        0x00005c2e:    1880        ..      ADDS     r0,r0,r2
        0x00005c30:    1840        @.      ADDS     r0,r0,r1
        0x00005c32:    380a        .8      SUBS     r0,r0,#0xa
        0x00005c34:    4241        AB      RSBS     r1,r0,#0
        0x00005c36:    4148        HA      ADCS     r0,r0,r1
        0x00005c38:    900d        ..      STR      r0,[sp,#0x34]
        0x00005c3a:    e7ff        ..      B        0x5c3c ; boolFwcheck + 164
        0x00005c3c:    980d        ..      LDR      r0,[sp,#0x34]
        0x00005c3e:    2101        .!      MOVS     r1,#1
        0x00005c40:    4008        .@      ANDS     r0,r0,r1
        0x00005c42:    a911        ..      ADD      r1,sp,#0x44
        0x00005c44:    7008        .p      STRB     r0,[r1,#0]
        0x00005c46:    a812        ..      ADD      r0,sp,#0x48
        0x00005c48:    7801        .x      LDRB     r1,[r0,#0]
        0x00005c4a:    2000        .       MOVS     r0,#0
        0x00005c4c:    07c9        ..      LSLS     r1,r1,#31
        0x00005c4e:    2900        .)      CMP      r1,#0
        0x00005c50:    900c        ..      STR      r0,[sp,#0x30]
        0x00005c52:    d021        !.      BEQ      0x5c98 ; boolFwcheck + 256
        0x00005c54:    e7ff        ..      B        0x5c56 ; boolFwcheck + 190
        0x00005c56:    a811        ..      ADD      r0,sp,#0x44
        0x00005c58:    7801        .x      LDRB     r1,[r0,#0]
        0x00005c5a:    2001        .       MOVS     r0,#1
        0x00005c5c:    07c9        ..      LSLS     r1,r1,#31
        0x00005c5e:    2900        .)      CMP      r1,#0
        0x00005c60:    900b        ..      STR      r0,[sp,#0x2c]
        0x00005c62:    d116        ..      BNE      0x5c92 ; boolFwcheck + 250
        0x00005c64:    e7ff        ..      B        0x5c66 ; boolFwcheck + 206
        0x00005c66:    4830        0H      LDR      r0,[pc,#192] ; [0x5d28] = 0x200010f0
        0x00005c68:    7e02        .~      LDRB     r2,[r0,#0x18]
        0x00005c6a:    7e41        A~      LDRB     r1,[r0,#0x19]
        0x00005c6c:    0209        ..      LSLS     r1,r1,#8
        0x00005c6e:    1889        ..      ADDS     r1,r1,r2
        0x00005c70:    7e82        .~      LDRB     r2,[r0,#0x1a]
        0x00005c72:    0412        ..      LSLS     r2,r2,#16
        0x00005c74:    7ec0        .~      LDRB     r0,[r0,#0x1b]
        0x00005c76:    0600        ..      LSLS     r0,r0,#24
        0x00005c78:    1880        ..      ADDS     r0,r0,r2
        0x00005c7a:    1841        A.      ADDS     r1,r0,r1
        0x00005c7c:    2001        .       MOVS     r0,#1
        0x00005c7e:    2200        ."      MOVS     r2,#0
        0x00005c80:    9209        ..      STR      r2,[sp,#0x24]
        0x00005c82:    2903        .)      CMP      r1,#3
        0x00005c84:    900a        ..      STR      r0,[sp,#0x28]
        0x00005c86:    d301        ..      BCC      0x5c8c ; boolFwcheck + 244
        0x00005c88:    9809        ..      LDR      r0,[sp,#0x24]
        0x00005c8a:    900a        ..      STR      r0,[sp,#0x28]
        0x00005c8c:    980a        ..      LDR      r0,[sp,#0x28]
        0x00005c8e:    900b        ..      STR      r0,[sp,#0x2c]
        0x00005c90:    e7ff        ..      B        0x5c92 ; boolFwcheck + 250
        0x00005c92:    980b        ..      LDR      r0,[sp,#0x2c]
        0x00005c94:    900c        ..      STR      r0,[sp,#0x30]
        0x00005c96:    e7ff        ..      B        0x5c98 ; boolFwcheck + 256
        0x00005c98:    990c        ..      LDR      r1,[sp,#0x30]
        0x00005c9a:    2001        .       MOVS     r0,#1
        0x00005c9c:    4001        .@      ANDS     r1,r1,r0
        0x00005c9e:    a810        ..      ADD      r0,sp,#0x40
        0x00005ca0:    7001        .p      STRB     r1,[r0,#0]
        0x00005ca2:    7801        .x      LDRB     r1,[r0,#0]
        0x00005ca4:    2000        .       MOVS     r0,#0
        0x00005ca6:    07c9        ..      LSLS     r1,r1,#31
        0x00005ca8:    2900        .)      CMP      r1,#0
        0x00005caa:    9008        ..      STR      r0,[sp,#0x20]
        0x00005cac:    d003        ..      BEQ      0x5cb6 ; boolFwcheck + 286
        0x00005cae:    e7ff        ..      B        0x5cb0 ; boolFwcheck + 280
        0x00005cb0:    9813        ..      LDR      r0,[sp,#0x4c]
        0x00005cb2:    9008        ..      STR      r0,[sp,#0x20]
        0x00005cb4:    e7ff        ..      B        0x5cb6 ; boolFwcheck + 286
        0x00005cb6:    9808        ..      LDR      r0,[sp,#0x20]
        0x00005cb8:    07c1        ..      LSLS     r1,r0,#31
        0x00005cba:    481d        .H      LDR      r0,[pc,#116] ; [0x5d30] = 0x500040c0
        0x00005cbc:    4a1d        .J      LDR      r2,[pc,#116] ; [0x5d34] = 0x50004140
        0x00005cbe:    9206        ..      STR      r2,[sp,#0x18]
        0x00005cc0:    2900        .)      CMP      r1,#0
        0x00005cc2:    9007        ..      STR      r0,[sp,#0x1c]
        0x00005cc4:    d101        ..      BNE      0x5cca ; boolFwcheck + 306
        0x00005cc6:    9806        ..      LDR      r0,[sp,#0x18]
        0x00005cc8:    9007        ..      STR      r0,[sp,#0x1c]
        0x00005cca:    9807        ..      LDR      r0,[sp,#0x1c]
        0x00005ccc:    9004        ..      STR      r0,[sp,#0x10]
        0x00005cce:    a810        ..      ADD      r0,sp,#0x40
        0x00005cd0:    7801        .x      LDRB     r1,[r0,#0]
        0x00005cd2:    2000        .       MOVS     r0,#0
        0x00005cd4:    07c9        ..      LSLS     r1,r1,#31
        0x00005cd6:    2900        .)      CMP      r1,#0
        0x00005cd8:    9005        ..      STR      r0,[sp,#0x14]
        0x00005cda:    d003        ..      BEQ      0x5ce4 ; boolFwcheck + 332
        0x00005cdc:    e7ff        ..      B        0x5cde ; boolFwcheck + 326
        0x00005cde:    9813        ..      LDR      r0,[sp,#0x4c]
        0x00005ce0:    9005        ..      STR      r0,[sp,#0x14]
        0x00005ce2:    e7ff        ..      B        0x5ce4 ; boolFwcheck + 332
        0x00005ce4:    9805        ..      LDR      r0,[sp,#0x14]
        0x00005ce6:    07c1        ..      LSLS     r1,r0,#31
        0x00005ce8:    2007        .       MOVS     r0,#7
        0x00005cea:    2202        ."      MOVS     r2,#2
        0x00005cec:    9202        ..      STR      r2,[sp,#8]
        0x00005cee:    2900        .)      CMP      r1,#0
        0x00005cf0:    9003        ..      STR      r0,[sp,#0xc]
        0x00005cf2:    d101        ..      BNE      0x5cf8 ; boolFwcheck + 352
        0x00005cf4:    9802        ..      LDR      r0,[sp,#8]
        0x00005cf6:    9003        ..      STR      r0,[sp,#0xc]
        0x00005cf8:    9804        ..      LDR      r0,[sp,#0x10]
        0x00005cfa:    9903        ..      LDR      r1,[sp,#0xc]
        0x00005cfc:    2208        ."      MOVS     r2,#8
        0x00005cfe:    23c8        .#      MOVS     r3,#0xc8
        0x00005d00:    f7fbf9ac    ....    BL       BlinkStatusLED ; 0x105c
        0x00005d04:    a810        ..      ADD      r0,sp,#0x40
        0x00005d06:    7801        .x      LDRB     r1,[r0,#0]
        0x00005d08:    2000        .       MOVS     r0,#0
        0x00005d0a:    07c9        ..      LSLS     r1,r1,#31
        0x00005d0c:    2900        .)      CMP      r1,#0
        0x00005d0e:    9001        ..      STR      r0,[sp,#4]
        0x00005d10:    d003        ..      BEQ      0x5d1a ; boolFwcheck + 386
        0x00005d12:    e7ff        ..      B        0x5d14 ; boolFwcheck + 380
        0x00005d14:    9813        ..      LDR      r0,[sp,#0x4c]
        0x00005d16:    9001        ..      STR      r0,[sp,#4]
        0x00005d18:    e7ff        ..      B        0x5d1a ; boolFwcheck + 386
        0x00005d1a:    9801        ..      LDR      r0,[sp,#4]
        0x00005d1c:    2101        .!      MOVS     r1,#1
        0x00005d1e:    4008        .@      ANDS     r0,r0,r1
        0x00005d20:    b014        ..      ADD      sp,sp,#0x50
        0x00005d22:    bd80        ..      POP      {r7,pc}
    $d
    __arm_cp.1_0
        0x00005d24:    200010d0    ...     DCD    536875216
    __arm_cp.1_1
        0x00005d28:    200010f0    ...     DCD    536875248
    __arm_cp.1_2
        0x00005d2c:    20001110    ...     DCD    536875280
    __arm_cp.1_3
        0x00005d30:    500040c0    .@.P    DCD    1342193856
    __arm_cp.1_4
        0x00005d34:    50004140    @A.P    DCD    1342193984
    $t
    fputc
        0x00005d38:    b580        ..      PUSH     {r7,lr}
        0x00005d3a:    b082        ..      SUB      sp,sp,#8
        0x00005d3c:    9001        ..      STR      r0,[sp,#4]
        0x00005d3e:    9100        ..      STR      r1,[sp,#0]
        0x00005d40:    9801        ..      LDR      r0,[sp,#4]
        0x00005d42:    f7fefa5b    ..[.    BL       SendChar ; 0x41fc
        0x00005d46:    9801        ..      LDR      r0,[sp,#4]
        0x00005d48:    b002        ..      ADD      sp,sp,#8
        0x00005d4a:    bd80        ..      POP      {r7,pc}
    main
        0x00005d4c:    b5b0        ..      PUSH     {r4,r5,r7,lr}
        0x00005d4e:    b09a        ..      SUB      sp,sp,#0x68
        0x00005d50:    2000        .       MOVS     r0,#0
        0x00005d52:    9019        ..      STR      r0,[sp,#0x64]
        0x00005d54:    49a1        .I      LDR      r1,[pc,#644] ; [0x5fdc] = 0x50000004
        0x00005d56:    6808        .h      LDR      r0,[r1,#0]
        0x00005d58:    9016        ..      STR      r0,[sp,#0x58]
        0x00005d5a:    9816        ..      LDR      r0,[sp,#0x58]
        0x00005d5c:    6008        .`      STR      r0,[r1,#0]
        0x00005d5e:    f7fef9fb    ....    BL       SYS_UnlockReg ; 0x4158
        0x00005d62:    f7fef929    ..).    BL       SYS_Init ; 0x3fb8
        0x00005d66:    f7fafd82    ....    BL       AO2022_MeterModule_1261_init ; 0x86e
        0x00005d6a:    f7fffd79    ..y.    BL       WDT_Init ; 0x5860
        0x00005d6e:    f7fcfa37    ..7.    BL       FMC_Open ; 0x21e0
        0x00005d72:    f7fcfadf    ....    BL       GPIO_Mode_Init ; 0x2334
        0x00005d76:    f7fdffef    ....    BL       ROOM_POWER_On ; 0x3d58
        0x00005d7a:    f7fef917    ....    BL       SYS_GetResetSrc ; 0x3fac
        0x00005d7e:    4601        .F      MOV      r1,r0
        0x00005d80:    4897        .H      LDR      r0,[pc,#604] ; [0x5fe0] = 0x2000113c
        0x00005d82:    6001        .`      STR      r1,[r0,#0]
        0x00005d84:    8800        ..      LDRH     r0,[r0,#0]
        0x00005d86:    21c3        .!      MOVS     r1,#0xc3
        0x00005d88:    0049        I.      LSLS     r1,r1,#1
        0x00005d8a:    4208        .B      TST      r0,r1
        0x00005d8c:    d004        ..      BEQ      0x5d98 ; main + 76
        0x00005d8e:    e7ff        ..      B        0x5d90 ; main + 68
        0x00005d90:    4992        .I      LDR      r1,[pc,#584] ; [0x5fdc] = 0x50000004
        0x00005d92:    2000        .       MOVS     r0,#0
        0x00005d94:    6008        .`      STR      r0,[r1,#0]
        0x00005d96:    e7ff        ..      B        0x5d98 ; main + 76
        0x00005d98:    4992        .I      LDR      r1,[pc,#584] ; [0x5fe4] = 0x200010c5
        0x00005d9a:    9109        ..      STR      r1,[sp,#0x24]
        0x00005d9c:    2001        .       MOVS     r0,#1
        0x00005d9e:    900a        ..      STR      r0,[sp,#0x28]
        0x00005da0:    7008        .p      STRB     r0,[r1,#0]
        0x00005da2:    f7fdffd9    ....    BL       ROOM_POWER_On ; 0x3d58
        0x00005da6:    9809        ..      LDR      r0,[sp,#0x24]
        0x00005da8:    990a        ..      LDR      r1,[sp,#0x28]
        0x00005daa:    4a8f        .J      LDR      r2,[pc,#572] ; [0x5fe8] = 0x500042dc
        0x00005dac:    2300        .#      MOVS     r3,#0
        0x00005dae:    930b        ..      STR      r3,[sp,#0x2c]
        0x00005db0:    6013        .`      STR      r3,[r2,#0]
        0x00005db2:    6011        .`      STR      r1,[r2,#0]
        0x00005db4:    4a8d        .J      LDR      r2,[pc,#564] ; [0x5fec] = 0x50004348
        0x00005db6:    6013        .`      STR      r3,[r2,#0]
        0x00005db8:    6011        .`      STR      r1,[r2,#0]
        0x00005dba:    4a8d        .J      LDR      r2,[pc,#564] ; [0x5ff0] = 0x50004300
        0x00005dbc:    6013        .`      STR      r3,[r2,#0]
        0x00005dbe:    6011        .`      STR      r1,[r2,#0]
        0x00005dc0:    4a8c        .J      LDR      r2,[pc,#560] ; [0x5ff4] = 0x50004290
        0x00005dc2:    6013        .`      STR      r3,[r2,#0]
        0x00005dc4:    6011        .`      STR      r1,[r2,#0]
        0x00005dc6:    4a8c        .J      LDR      r2,[pc,#560] ; [0x5ff8] = 0x500042cc
        0x00005dc8:    6011        .`      STR      r1,[r2,#0]
        0x00005dca:    7800        .x      LDRB     r0,[r0,#0]
        0x00005dcc:    4008        .@      ANDS     r0,r0,r1
        0x00005dce:    f7fffbc5    ....    BL       VerifyFW ; 0x555c
        0x00005dd2:    488a        .H      LDR      r0,[pc,#552] ; [0x5ffc] = 0x57e40
        0x00005dd4:    f7fefdd0    ....    BL       SysTick_Config ; 0x4978
        0x00005dd8:    980b        ..      LDR      r0,[sp,#0x2c]
        0x00005dda:    43c0        .C      MVNS     r0,r0
        0x00005ddc:    f7fdff10    ....    BL       NVIC_EnableIRQ ; 0x3c00
        0x00005de0:    f7fff8d6    ....    BL       UART0_Init ; 0x4f90
        0x00005de4:    f7fffa38    ..8.    BL       UART1_Init ; 0x5258
        0x00005de8:    f7fef994    ....    BL       SYS_LockReg ; 0x4114
        0x00005dec:    204b        K       MOVS     r0,#0x4b
        0x00005dee:    0140        @.      LSLS     r0,r0,#5
        0x00005df0:    f7fffad0    ....    BL       UART2_Init ; 0x5394
        0x00005df4:    f7fcf9d6    ....    BL       DisableHostUartTx ; 0x21a4
        0x00005df8:    200d        .       MOVS     r0,#0xd
        0x00005dfa:    f7fdff01    ....    BL       NVIC_EnableIRQ ; 0x3c00
        0x00005dfe:    200c        .       MOVS     r0,#0xc
        0x00005e00:    f7fdfefe    ....    BL       NVIC_EnableIRQ ; 0x3c00
        0x00005e04:    f7fefc68    ..h.    BL       SoftI2cMasterInit ; 0x46d8
        0x00005e08:    980b        ..      LDR      r0,[sp,#0x2c]
        0x00005e0a:    4a7d        }J      LDR      r2,[pc,#500] ; [0x6000] = 0x40004008
        0x00005e0c:    497d        }I      LDR      r1,[pc,#500] ; [0x6004] = 0x5aa5
        0x00005e0e:    6011        .`      STR      r1,[r2,#0]
        0x00005e10:    a90c        ..      ADD      r1,sp,#0x30
        0x00005e12:    7008        .p      STRB     r0,[r1,#0]
        0x00005e14:    e7ff        ..      B        0x5e16 ; main + 202
        0x00005e16:    a80c        ..      ADD      r0,sp,#0x30
        0x00005e18:    7800        .x      LDRB     r0,[r0,#0]
        0x00005e1a:    281e        .(      CMP      r0,#0x1e
        0x00005e1c:    dc1a        ..      BGT      0x5e54 ; main + 264
        0x00005e1e:    e7ff        ..      B        0x5e20 ; main + 212
        0x00005e20:    a80c        ..      ADD      r0,sp,#0x30
        0x00005e22:    9007        ..      STR      r0,[sp,#0x1c]
        0x00005e24:    7800        .x      LDRB     r0,[r0,#0]
        0x00005e26:    a90d        ..      ADD      r1,sp,#0x34
        0x00005e28:    9108        ..      STR      r1,[sp,#0x20]
        0x00005e2a:    f7fcfdb3    ....    BL       I2cReadDataStruct ; 0x2994
        0x00005e2e:    9807        ..      LDR      r0,[sp,#0x1c]
        0x00005e30:    9908        ..      LDR      r1,[sp,#0x20]
        0x00005e32:    7800        .x      LDRB     r0,[r0,#0]
        0x00005e34:    2224        $"      MOVS     r2,#0x24
        0x00005e36:    4342        BC      MULS     r2,r0,r2
        0x00005e38:    488e        .H      LDR      r0,[pc,#568] ; [0x6074] = 0x2000023c
        0x00005e3a:    1880        ..      ADDS     r0,r0,r2
        0x00005e3c:    c91c        ..      LDM      r1!,{r2-r4}
        0x00005e3e:    c01c        ..      STM      r0!,{r2-r4}
        0x00005e40:    c91c        ..      LDM      r1!,{r2-r4}
        0x00005e42:    c01c        ..      STM      r0!,{r2-r4}
        0x00005e44:    c91c        ..      LDM      r1!,{r2-r4}
        0x00005e46:    c01c        ..      STM      r0!,{r2-r4}
        0x00005e48:    e7ff        ..      B        0x5e4a ; main + 254
        0x00005e4a:    980c        ..      LDR      r0,[sp,#0x30]
        0x00005e4c:    1c40        @.      ADDS     r0,r0,#1
        0x00005e4e:    a90c        ..      ADD      r1,sp,#0x30
        0x00005e50:    7008        .p      STRB     r0,[r1,#0]
        0x00005e52:    e7e0        ..      B        0x5e16 ; main + 202
        0x00005e54:    496c        lI      LDR      r1,[pc,#432] ; [0x6008] = 0x20000238
        0x00005e56:    2001        .       MOVS     r0,#1
        0x00005e58:    7008        .p      STRB     r0,[r1,#0]
        0x00005e5a:    a918        ..      ADD      r1,sp,#0x60
        0x00005e5c:    2000        .       MOVS     r0,#0
        0x00005e5e:    7008        .p      STRB     r0,[r1,#0]
        0x00005e60:    e7ff        ..      B        0x5e62 ; main + 278
        0x00005e62:    a818        ..      ADD      r0,sp,#0x60
        0x00005e64:    7800        .x      LDRB     r0,[r0,#0]
        0x00005e66:    281e        .(      CMP      r0,#0x1e
        0x00005e68:    dc36        6.      BGT      0x5ed8 ; main + 396
        0x00005e6a:    e7ff        ..      B        0x5e6c ; main + 288
        0x00005e6c:    a918        ..      ADD      r1,sp,#0x60
        0x00005e6e:    780b        .x      LDRB     r3,[r1,#0]
        0x00005e70:    4a7e        ~J      LDR      r2,[pc,#504] ; [0x606c] = 0x200001e9
        0x00005e72:    2001        .       MOVS     r0,#1
        0x00005e74:    54d0        .T      STRB     r0,[r2,r3]
        0x00005e76:    780b        .x      LDRB     r3,[r1,#0]
        0x00005e78:    4a7d        }J      LDR      r2,[pc,#500] ; [0x6070] = 0x20000f27
        0x00005e7a:    54d0        .T      STRB     r0,[r2,r3]
        0x00005e7c:    7809        .x      LDRB     r1,[r1,#0]
        0x00005e7e:    2224        $"      MOVS     r2,#0x24
        0x00005e80:    434a        JC      MULS     r2,r1,r2
        0x00005e82:    497c        |I      LDR      r1,[pc,#496] ; [0x6074] = 0x2000023c
        0x00005e84:    1889        ..      ADDS     r1,r1,r2
        0x00005e86:    7048        Hp      STRB     r0,[r1,#1]
        0x00005e88:    a917        ..      ADD      r1,sp,#0x5c
        0x00005e8a:    2000        .       MOVS     r0,#0
        0x00005e8c:    7008        .p      STRB     r0,[r1,#0]
        0x00005e8e:    e7ff        ..      B        0x5e90 ; main + 324
        0x00005e90:    a817        ..      ADD      r0,sp,#0x5c
        0x00005e92:    7800        .x      LDRB     r0,[r0,#0]
        0x00005e94:    280b        .(      CMP      r0,#0xb
        0x00005e96:    dc19        ..      BGT      0x5ecc ; main + 384
        0x00005e98:    e7ff        ..      B        0x5e9a ; main + 334
        0x00005e9a:    a918        ..      ADD      r1,sp,#0x60
        0x00005e9c:    7808        .x      LDRB     r0,[r1,#0]
        0x00005e9e:    2318        .#      MOVS     r3,#0x18
        0x00005ea0:    461a        .F      MOV      r2,r3
        0x00005ea2:    4342        BC      MULS     r2,r0,r2
        0x00005ea4:    4874        tH      LDR      r0,[pc,#464] ; [0x6078] = 0x200009a0
        0x00005ea6:    1884        ..      ADDS     r4,r0,r2
        0x00005ea8:    aa17        ..      ADD      r2,sp,#0x5c
        0x00005eaa:    7810        .x      LDRB     r0,[r2,#0]
        0x00005eac:    0045        E.      LSLS     r5,r0,#1
        0x00005eae:    2001        .       MOVS     r0,#1
        0x00005eb0:    5360        `S      STRH     r0,[r4,r5]
        0x00005eb2:    7809        .x      LDRB     r1,[r1,#0]
        0x00005eb4:    434b        KC      MULS     r3,r1,r3
        0x00005eb6:    4971        qI      LDR      r1,[pc,#452] ; [0x607c] = 0x200006b8
        0x00005eb8:    18c9        ..      ADDS     r1,r1,r3
        0x00005eba:    7812        .x      LDRB     r2,[r2,#0]
        0x00005ebc:    0052        R.      LSLS     r2,r2,#1
        0x00005ebe:    5288        .R      STRH     r0,[r1,r2]
        0x00005ec0:    e7ff        ..      B        0x5ec2 ; main + 374
        0x00005ec2:    9817        ..      LDR      r0,[sp,#0x5c]
        0x00005ec4:    1c40        @.      ADDS     r0,r0,#1
        0x00005ec6:    a917        ..      ADD      r1,sp,#0x5c
        0x00005ec8:    7008        .p      STRB     r0,[r1,#0]
        0x00005eca:    e7e1        ..      B        0x5e90 ; main + 324
        0x00005ecc:    e7ff        ..      B        0x5ece ; main + 386
        0x00005ece:    9818        ..      LDR      r0,[sp,#0x60]
        0x00005ed0:    1c40        @.      ADDS     r0,r0,#1
        0x00005ed2:    a918        ..      ADD      r1,sp,#0x60
        0x00005ed4:    7008        .p      STRB     r0,[r1,#0]
        0x00005ed6:    e7c4        ..      B        0x5e62 ; main + 278
        0x00005ed8:    494c        LI      LDR      r1,[pc,#304] ; [0x600c] = 0x20000c88
        0x00005eda:    2000        .       MOVS     r0,#0
        0x00005edc:    9006        ..      STR      r0,[sp,#0x18]
        0x00005ede:    7008        .p      STRB     r0,[r1,#0]
        0x00005ee0:    494b        KI      LDR      r1,[pc,#300] ; [0x6010] = 0x20000d54
        0x00005ee2:    2001        .       MOVS     r0,#1
        0x00005ee4:    7008        .p      STRB     r0,[r1,#0]
        0x00005ee6:    f7fdff9d    ....    BL       ReadMyMeterID ; 0x3e24
        0x00005eea:    9806        ..      LDR      r0,[sp,#0x18]
        0x00005eec:    4949        II      LDR      r1,[pc,#292] ; [0x6014] = 0x20001138
        0x00005eee:    6008        .`      STR      r0,[r1,#0]
        0x00005ef0:    e7ff        ..      B        0x5ef2 ; main + 422
        0x00005ef2:    4949        II      LDR      r1,[pc,#292] ; [0x6018] = 0x20000f66
        0x00005ef4:    2000        .       MOVS     r0,#0
        0x00005ef6:    8008        ..      STRH     r0,[r1,#0]
        0x00005ef8:    e7ff        ..      B        0x5efa ; main + 430
        0x00005efa:    4846        FH      LDR      r0,[pc,#280] ; [0x6014] = 0x20001138
        0x00005efc:    6800        .h      LDR      r0,[r0,#0]
        0x00005efe:    284b        K(      CMP      r0,#0x4b
        0x00005f00:    d3f7        ..      BCC      0x5ef2 ; main + 422
        0x00005f02:    e7ff        ..      B        0x5f04 ; main + 440
        0x00005f04:    f7fefbe8    ....    BL       SoftI2cMasterInit ; 0x46d8
        0x00005f08:    f7fdff8c    ....    BL       ReadMyMeterID ; 0x3e24
        0x00005f0c:    4943        CI      LDR      r1,[pc,#268] ; [0x601c] = 0x20000f25
        0x00005f0e:    9104        ..      STR      r1,[sp,#0x10]
        0x00005f10:    2003        .       MOVS     r0,#3
        0x00005f12:    7048        Hp      STRB     r0,[r1,#1]
        0x00005f14:    4942        BI      LDR      r1,[pc,#264] ; [0x6020] = 0x200010ca
        0x00005f16:    20ff        .       MOVS     r0,#0xff
        0x00005f18:    7008        .p      STRB     r0,[r1,#0]
        0x00005f1a:    4942        BI      LDR      r1,[pc,#264] ; [0x6024] = 0x200010c8
        0x00005f1c:    7008        .p      STRB     r0,[r1,#0]
        0x00005f1e:    4942        BI      LDR      r1,[pc,#264] ; [0x6028] = 0x20000239
        0x00005f20:    2001        .       MOVS     r0,#1
        0x00005f22:    9003        ..      STR      r0,[sp,#0xc]
        0x00005f24:    7008        .p      STRB     r0,[r1,#0]
        0x00005f26:    4941        AI      LDR      r1,[pc,#260] ; [0x602c] = 0x20000d50
        0x00005f28:    4841        AH      LDR      r0,[pc,#260] ; [0x6030] = 0x7fffffff
        0x00005f2a:    6008        .`      STR      r0,[r1,#0]
        0x00005f2c:    493a        :I      LDR      r1,[pc,#232] ; [0x6018] = 0x20000f66
        0x00005f2e:    2000        .       MOVS     r0,#0
        0x00005f30:    9005        ..      STR      r0,[sp,#0x14]
        0x00005f32:    8008        ..      STRH     r0,[r1,#0]
        0x00005f34:    8008        ..      STRH     r0,[r1,#0]
        0x00005f36:    f7fdff75    ..u.    BL       ReadMyMeterID ; 0x3e24
        0x00005f3a:    f7fcf933    ..3.    BL       DisableHostUartTx ; 0x21a4
        0x00005f3e:    9903        ..      LDR      r1,[sp,#0xc]
        0x00005f40:    9b04        ..      LDR      r3,[sp,#0x10]
        0x00005f42:    9805        ..      LDR      r0,[sp,#0x14]
        0x00005f44:    4a3b        ;J      LDR      r2,[pc,#236] ; [0x6034] = 0x200010c1
        0x00005f46:    7010        .p      STRB     r0,[r2,#0]
        0x00005f48:    4a3b        ;J      LDR      r2,[pc,#236] ; [0x6038] = 0x20000f22
        0x00005f4a:    7011        .p      STRB     r1,[r2,#0]
        0x00005f4c:    4a31        1J      LDR      r2,[pc,#196] ; [0x6014] = 0x20001138
        0x00005f4e:    6010        .`      STR      r0,[r2,#0]
        0x00005f50:    4a3a        :J      LDR      r2,[pc,#232] ; [0x603c] = 0x200010bb
        0x00005f52:    7011        .p      STRB     r1,[r2,#0]
        0x00005f54:    4c3a        :L      LDR      r4,[pc,#232] ; [0x6040] = 0x200010c9
        0x00005f56:    2240        @"      MOVS     r2,#0x40
        0x00005f58:    7022        "p      STRB     r2,[r4,#0]
        0x00005f5a:    4a3a        :J      LDR      r2,[pc,#232] ; [0x6044] = 0x20000d4a
        0x00005f5c:    7011        .p      STRB     r1,[r2,#0]
        0x00005f5e:    4a3a        :J      LDR      r2,[pc,#232] ; [0x6048] = 0x20000012
        0x00005f60:    8010        ..      STRH     r0,[r2,#0]
        0x00005f62:    4c3a        :L      LDR      r4,[pc,#232] ; [0x604c] = 0x20000d26
        0x00005f64:    2202        ."      MOVS     r2,#2
        0x00005f66:    7022        "p      STRB     r2,[r4,#0]
        0x00005f68:    4c39        9L      LDR      r4,[pc,#228] ; [0x6050] = 0x20000d27
        0x00005f6a:    2208        ."      MOVS     r2,#8
        0x00005f6c:    7022        "p      STRB     r2,[r4,#0]
        0x00005f6e:    4a39        9J      LDR      r2,[pc,#228] ; [0x6054] = 0x20000f20
        0x00005f70:    8814        ..      LDRH     r4,[r2,#0]
        0x00005f72:    4d39        9M      LDR      r5,[pc,#228] ; [0x6058] = 0x20000f7a
        0x00005f74:    802c        ,.      STRH     r4,[r5,#0]
        0x00005f76:    4c39        9L      LDR      r4,[pc,#228] ; [0x605c] = 0x200010c0
        0x00005f78:    7020         p      STRB     r0,[r4,#0]
        0x00005f7a:    4c39        9L      LDR      r4,[pc,#228] ; [0x6060] = 0x20000d07
        0x00005f7c:    7020         p      STRB     r0,[r4,#0]
        0x00005f7e:    4c39        9L      LDR      r4,[pc,#228] ; [0x6064] = 0x20000e50
        0x00005f80:    7021        !p      STRB     r1,[r4,#0]
        0x00005f82:    2105        .!      MOVS     r1,#5
        0x00005f84:    8011        ..      STRH     r1,[r2,#0]
        0x00005f86:    2107        .!      MOVS     r1,#7
        0x00005f88:    7019        .p      STRB     r1,[r3,#0]
        0x00005f8a:    2128        (!      MOVS     r1,#0x28
        0x00005f8c:    8011        ..      STRH     r1,[r2,#0]
        0x00005f8e:    4936        6I      LDR      r1,[pc,#216] ; [0x6068] = 0x20000f68
        0x00005f90:    7008        .p      STRB     r0,[r1,#0]
        0x00005f92:    e7ff        ..      B        0x5f94 ; main + 584
        0x00005f94:    491a        .I      LDR      r1,[pc,#104] ; [0x6000] = 0x40004008
        0x00005f96:    481b        .H      LDR      r0,[pc,#108] ; [0x6004] = 0x5aa5
        0x00005f98:    6008        .`      STR      r0,[r1,#0]
        0x00005f9a:    491f        .I      LDR      r1,[pc,#124] ; [0x6018] = 0x20000f66
        0x00005f9c:    9101        ..      STR      r1,[sp,#4]
        0x00005f9e:    2000        .       MOVS     r0,#0
        0x00005fa0:    9002        ..      STR      r0,[sp,#8]
        0x00005fa2:    8008        ..      STRH     r0,[r1,#0]
        0x00005fa4:    f7fdfd5e    ..^.    BL       MeterProcess ; 0x3a64
        0x00005fa8:    f7fdfa22    ..".    BL       MeterPolling ; 0x33f0
        0x00005fac:    f7fdff3a    ..:.    BL       ReadMyMeterID ; 0x3e24
        0x00005fb0:    f7fcfa74    ..t.    BL       HostProcess ; 0x249c
        0x00005fb4:    9901        ..      LDR      r1,[sp,#4]
        0x00005fb6:    9802        ..      LDR      r0,[sp,#8]
        0x00005fb8:    8008        ..      STRH     r0,[r1,#0]
        0x00005fba:    f7fbfd89    ....    BL       ChangeRS485Direct ; 0x1ad0
        0x00005fbe:    f7fdff83    ....    BL       RecoverSystemMoniter ; 0x3ec8
        0x00005fc2:    f7fbfcc1    ....    BL       CalErrorRate ; 0x1948
        0x00005fc6:    f7fbfda9    ....    BL       CheckRoomMode ; 0x1b1c
        0x00005fca:    e7ff        ..      B        0x5fcc ; main + 640
        0x00005fcc:    2001        .       MOVS     r0,#1
        0x00005fce:    2800        .(      CMP      r0,#0
        0x00005fd0:    d1e0        ..      BNE      0x5f94 ; main + 584
        0x00005fd2:    e7ff        ..      B        0x5fd4 ; main + 648
        0x00005fd4:    9819        ..      LDR      r0,[sp,#0x64]
        0x00005fd6:    b01a        ..      ADD      sp,sp,#0x68
        0x00005fd8:    bdb0        ..      POP      {r4,r5,r7,pc}
        0x00005fda:    46c0        .F      MOV      r8,r8
    $d
    __arm_cp.22_0
        0x00005fdc:    50000004    ...P    DCD    1342177284
    __arm_cp.22_1
        0x00005fe0:    2000113c    <..     DCD    536875324
    __arm_cp.22_2
        0x00005fe4:    200010c5    ...     DCD    536875205
    __arm_cp.22_3
        0x00005fe8:    500042dc    .B.P    DCD    1342194396
    __arm_cp.22_4
        0x00005fec:    50004348    HC.P    DCD    1342194504
    __arm_cp.22_5
        0x00005ff0:    50004300    .C.P    DCD    1342194432
    __arm_cp.22_6
        0x00005ff4:    50004290    .B.P    DCD    1342194320
    __arm_cp.22_7
        0x00005ff8:    500042cc    .B.P    DCD    1342194380
    __arm_cp.22_8
        0x00005ffc:    00057e40    @~..    DCD    360000
    __arm_cp.22_9
        0x00006000:    40004008    .@.@    DCD    1073758216
    __arm_cp.22_10
        0x00006004:    00005aa5    .Z..    DCD    23205
    __arm_cp.22_11
        0x00006008:    20000238    8..     DCD    536871480
    __arm_cp.22_12
        0x0000600c:    20000c88    ...     DCD    536874120
    __arm_cp.22_13
        0x00006010:    20000d54    T..     DCD    536874324
    __arm_cp.22_14
        0x00006014:    20001138    8..     DCD    536875320
    __arm_cp.22_15
        0x00006018:    20000f66    f..     DCD    536874854
    __arm_cp.22_16
        0x0000601c:    20000f25    %..     DCD    536874789
    __arm_cp.22_17
        0x00006020:    200010ca    ...     DCD    536875210
    __arm_cp.22_18
        0x00006024:    200010c8    ...     DCD    536875208
    __arm_cp.22_19
        0x00006028:    20000239    9..     DCD    536871481
    __arm_cp.22_20
        0x0000602c:    20000d50    P..     DCD    536874320
    __arm_cp.22_21
        0x00006030:    7fffffff    ....    DCD    2147483647
    __arm_cp.22_22
        0x00006034:    200010c1    ...     DCD    536875201
    __arm_cp.22_23
        0x00006038:    20000f22    "..     DCD    536874786
    __arm_cp.22_24
        0x0000603c:    200010bb    ...     DCD    536875195
    __arm_cp.22_25
        0x00006040:    200010c9    ...     DCD    536875209
    __arm_cp.22_26
        0x00006044:    20000d4a    J..     DCD    536874314
    __arm_cp.22_27
        0x00006048:    20000012    ...     DCD    536870930
    __arm_cp.22_28
        0x0000604c:    20000d26    &..     DCD    536874278
    __arm_cp.22_29
        0x00006050:    20000d27    '..     DCD    536874279
    __arm_cp.22_30
        0x00006054:    20000f20     ..     DCD    536874784
    __arm_cp.22_31
        0x00006058:    20000f7a    z..     DCD    536874874
    __arm_cp.22_32
        0x0000605c:    200010c0    ...     DCD    536875200
    __arm_cp.22_33
        0x00006060:    20000d07    ...     DCD    536874247
    __arm_cp.22_34
        0x00006064:    20000e50    P..     DCD    536874576
    __arm_cp.22_35
        0x00006068:    20000f68    h..     DCD    536874856
    __arm_cp.22_36
        0x0000606c:    200001e9    ...     DCD    536871401
    __arm_cp.22_37
        0x00006070:    20000f27    '..     DCD    536874791
    __arm_cp.22_38
        0x00006074:    2000023c    <..     DCD    536871484
    __arm_cp.22_39
        0x00006078:    200009a0    ...     DCD    536873376
    __arm_cp.22_40
        0x0000607c:    200006b8    ...     DCD    536872632
    $t
    i.__0printf
    __0printf
    __1printf
    __2printf
    __c89printf
    printf
        0x00006080:    b40f        ..      PUSH     {r0-r3}
        0x00006082:    b510        ..      PUSH     {r4,lr}
        0x00006084:    a903        ..      ADD      r1,sp,#0xc
        0x00006086:    4b04        .K      LDR      r3,[pc,#16] ; [0x6098] = 0x5d39
        0x00006088:    4a04        .J      LDR      r2,[pc,#16] ; [0x609c] = 0x20001064
        0x0000608a:    9802        ..      LDR      r0,[sp,#8]
        0x0000608c:    f000f8e8    ....    BL       _printf_core ; 0x6260
        0x00006090:    bc10        ..      POP      {r4}
        0x00006092:    bc08        ..      POP      {r3}
        0x00006094:    b004        ..      ADD      sp,sp,#0x10
        0x00006096:    4718        .G      BX       r3
    $d
        0x00006098:    00005d39    9]..    DCD    23865
        0x0000609c:    20001064    d..     DCD    536875108
    $t
    i.__ARM_clz
    __ARM_clz
        0x000060a0:    2120         !      MOVS     r1,#0x20
        0x000060a2:    0c02        ..      LSRS     r2,r0,#16
        0x000060a4:    d001        ..      BEQ      0x60aa ; __ARM_clz + 10
        0x000060a6:    2110        .!      MOVS     r1,#0x10
        0x000060a8:    4610        .F      MOV      r0,r2
        0x000060aa:    0a02        ..      LSRS     r2,r0,#8
        0x000060ac:    d001        ..      BEQ      0x60b2 ; __ARM_clz + 18
        0x000060ae:    4610        .F      MOV      r0,r2
        0x000060b0:    3908        .9      SUBS     r1,r1,#8
        0x000060b2:    0902        ..      LSRS     r2,r0,#4
        0x000060b4:    d001        ..      BEQ      0x60ba ; __ARM_clz + 26
        0x000060b6:    4610        .F      MOV      r0,r2
        0x000060b8:    1f09        ..      SUBS     r1,r1,#4
        0x000060ba:    0882        ..      LSRS     r2,r0,#2
        0x000060bc:    d001        ..      BEQ      0x60c2 ; __ARM_clz + 34
        0x000060be:    4610        .F      MOV      r0,r2
        0x000060c0:    1e89        ..      SUBS     r1,r1,#2
        0x000060c2:    0842        B.      LSRS     r2,r0,#1
        0x000060c4:    d001        ..      BEQ      0x60ca ; __ARM_clz + 42
        0x000060c6:    1e88        ..      SUBS     r0,r1,#2
        0x000060c8:    4770        pG      BX       lr
        0x000060ca:    1a08        ..      SUBS     r0,r1,r0
        0x000060cc:    4770        pG      BX       lr
    i.__scatterload_copy
    __scatterload_copy
        0x000060ce:    e002        ..      B        0x60d6 ; __scatterload_copy + 8
        0x000060d0:    c808        ..      LDM      r0!,{r3}
        0x000060d2:    1f12        ..      SUBS     r2,r2,#4
        0x000060d4:    c108        ..      STM      r1!,{r3}
        0x000060d6:    2a00        .*      CMP      r2,#0
        0x000060d8:    d1fa        ..      BNE      0x60d0 ; __scatterload_copy + 2
        0x000060da:    4770        pG      BX       lr
    i.__scatterload_null
    __scatterload_null
        0x000060dc:    4770        pG      BX       lr
    i.__scatterload_zeroinit
    __scatterload_zeroinit
        0x000060de:    2000        .       MOVS     r0,#0
        0x000060e0:    e001        ..      B        0x60e6 ; __scatterload_zeroinit + 8
        0x000060e2:    c101        ..      STM      r1!,{r0}
        0x000060e4:    1f12        ..      SUBS     r2,r2,#4
        0x000060e6:    2a00        .*      CMP      r2,#0
        0x000060e8:    d1fb        ..      BNE      0x60e2 ; __scatterload_zeroinit + 4
        0x000060ea:    4770        pG      BX       lr
    i._fp_digits
    _fp_digits
        0x000060ec:    b5f0        ..      PUSH     {r4-r7,lr}
        0x000060ee:    b41f        ..      PUSH     {r0-r4}
        0x000060f0:    b086        ..      SUB      sp,sp,#0x18
        0x000060f2:    9809        ..      LDR      r0,[sp,#0x24]
        0x000060f4:    9a08        ..      LDR      r2,[sp,#0x20]
        0x000060f6:    0d03        ..      LSRS     r3,r0,#20
        0x000060f8:    2100        .!      MOVS     r1,#0
        0x000060fa:    4302        .C      ORRS     r2,r2,r0
        0x000060fc:    d014        ..      BEQ      0x6128 ; _fp_digits + 60
        0x000060fe:    4851        QH      LDR      r0,[pc,#324] ; [0x6244] = 0xfffffc01
        0x00006100:    4a51        QJ      LDR      r2,[pc,#324] ; [0x6248] = 0x4d10
        0x00006102:    1818        ..      ADDS     r0,r3,r0
        0x00006104:    4350        PC      MULS     r0,r2,r0
        0x00006106:    1405        ..      ASRS     r5,r0,#16
        0x00006108:    9811        ..      LDR      r0,[sp,#0x44]
        0x0000610a:    2801        .(      CMP      r0,#1
        0x0000610c:    9810        ..      LDR      r0,[sp,#0x40]
        0x0000610e:    d01a        ..      BEQ      0x6146 ; _fp_digits + 90
        0x00006110:    1a28        (.      SUBS     r0,r5,r0
        0x00006112:    1c40        @.      ADDS     r0,r0,#1
        0x00006114:    2600        .&      MOVS     r6,#0
        0x00006116:    4f4d        MO      LDR      r7,[pc,#308] ; [0x624c] = 0x40140000
        0x00006118:    494d        MI      LDR      r1,[pc,#308] ; [0x6250] = 0x3ff00000
        0x0000611a:    9600        ..      STR      r6,[sp,#0]
        0x0000611c:    9101        ..      STR      r1,[sp,#4]
        0x0000611e:    9004        ..      STR      r0,[sp,#0x10]
        0x00006120:    2800        .(      CMP      r0,#0
        0x00006122:    da12        ..      BGE      0x614a ; _fp_digits + 94
        0x00006124:    4244        DB      RSBS     r4,r0,#0
        0x00006126:    e011        ..      B        0x614c ; _fp_digits + 96
        0x00006128:    9811        ..      LDR      r0,[sp,#0x44]
        0x0000612a:    2401        .$      MOVS     r4,#1
        0x0000612c:    a349        I.      ADR      r3,{pc}+0x128 ; 0x6254
        0x0000612e:    2801        .(      CMP      r0,#1
        0x00006130:    d101        ..      BNE      0x6136 ; _fp_digits + 74
        0x00006132:    9810        ..      LDR      r0,[sp,#0x40]
        0x00006134:    43c1        .C      MVNS     r1,r0
        0x00006136:    9806        ..      LDR      r0,[sp,#0x18]
        0x00006138:    9a11        ..      LDR      r2,[sp,#0x44]
        0x0000613a:    6084        .`      STR      r4,[r0,#8]
        0x0000613c:    6003        .`      STR      r3,[r0,#0]
        0x0000613e:    60c2        .`      STR      r2,[r0,#0xc]
        0x00006140:    6041        A`      STR      r1,[r0,#4]
        0x00006142:    b00b        ..      ADD      sp,sp,#0x2c
        0x00006144:    bdf0        ..      POP      {r4-r7,pc}
        0x00006146:    4240        @B      RSBS     r0,r0,#0
        0x00006148:    e7e4        ..      B        0x6114 ; _fp_digits + 40
        0x0000614a:    4604        .F      MOV      r4,r0
        0x0000614c:    0521        !.      LSLS     r1,r4,#20
        0x0000614e:    2000        .       MOVS     r0,#0
        0x00006150:    4a3f        ?J      LDR      r2,[pc,#252] ; [0x6250] = 0x3ff00000
        0x00006152:    1c00        ..      ADDS     r0,r0,#0
        0x00006154:    4151        QA      ADCS     r1,r1,r2
        0x00006156:    9103        ..      STR      r1,[sp,#0xc]
        0x00006158:    9002        ..      STR      r0,[sp,#8]
        0x0000615a:    e012        ..      B        0x6182 ; _fp_digits + 150
        0x0000615c:    07e0        ..      LSLS     r0,r4,#31
        0x0000615e:    d007        ..      BEQ      0x6170 ; _fp_digits + 132
        0x00006160:    4632        2F      MOV      r2,r6
        0x00006162:    463b        ;F      MOV      r3,r7
        0x00006164:    9901        ..      LDR      r1,[sp,#4]
        0x00006166:    9800        ..      LDR      r0,[sp,#0]
        0x00006168:    f7faf9c2    ....    BL       __aeabi_dmul ; 0x4f0
        0x0000616c:    9101        ..      STR      r1,[sp,#4]
        0x0000616e:    9000        ..      STR      r0,[sp,#0]
        0x00006170:    4632        2F      MOV      r2,r6
        0x00006172:    463b        ;F      MOV      r3,r7
        0x00006174:    4610        .F      MOV      r0,r2
        0x00006176:    4619        .F      MOV      r1,r3
        0x00006178:    f7faf9ba    ....    BL       __aeabi_dmul ; 0x4f0
        0x0000617c:    4606        .F      MOV      r6,r0
        0x0000617e:    460f        .F      MOV      r7,r1
        0x00006180:    1064        d.      ASRS     r4,r4,#1
        0x00006182:    2c00        .,      CMP      r4,#0
        0x00006184:    d1ea        ..      BNE      0x615c ; _fp_digits + 112
        0x00006186:    9804        ..      LDR      r0,[sp,#0x10]
        0x00006188:    9b03        ..      LDR      r3,[sp,#0xc]
        0x0000618a:    2800        .(      CMP      r0,#0
        0x0000618c:    9a02        ..      LDR      r2,[sp,#8]
        0x0000618e:    9909        ..      LDR      r1,[sp,#0x24]
        0x00006190:    9808        ..      LDR      r0,[sp,#0x20]
        0x00006192:    da06        ..      BGE      0x61a2 ; _fp_digits + 182
        0x00006194:    f7faf9ac    ....    BL       __aeabi_dmul ; 0x4f0
        0x00006198:    9b01        ..      LDR      r3,[sp,#4]
        0x0000619a:    9a00        ..      LDR      r2,[sp,#0]
        0x0000619c:    f7faf9a8    ....    BL       __aeabi_dmul ; 0x4f0
        0x000061a0:    e005        ..      B        0x61ae ; _fp_digits + 194
        0x000061a2:    f7fafa0d    ....    BL       __aeabi_ddiv ; 0x5c0
        0x000061a6:    9b01        ..      LDR      r3,[sp,#4]
        0x000061a8:    9a00        ..      LDR      r2,[sp,#0]
        0x000061aa:    f7fafa09    ....    BL       __aeabi_ddiv ; 0x5c0
        0x000061ae:    4604        .F      MOV      r4,r0
        0x000061b0:    460e        .F      MOV      r6,r1
        0x000061b2:    2200        ."      MOVS     r2,#0
        0x000061b4:    4b28        (K      LDR      r3,[pc,#160] ; [0x6258] = 0x43f00000
        0x000061b6:    f7fafa9b    ....    BL       __aeabi_cdrcmple ; 0x6f0
        0x000061ba:    d803        ..      BHI      0x61c4 ; _fp_digits + 216
        0x000061bc:    2000        .       MOVS     r0,#0
        0x000061be:    43c0        .C      MVNS     r0,r0
        0x000061c0:    4601        .F      MOV      r1,r0
        0x000061c2:    e007        ..      B        0x61d4 ; _fp_digits + 232
        0x000061c4:    2200        ."      MOVS     r2,#0
        0x000061c6:    4b25        %K      LDR      r3,[pc,#148] ; [0x625c] = 0x3fe00000
        0x000061c8:    4620         F      MOV      r0,r4
        0x000061ca:    4631        1F      MOV      r1,r6
        0x000061cc:    f7faf8de    ....    BL       __aeabi_dadd ; 0x38c
        0x000061d0:    f7fafa6e    ..n.    BL       __aeabi_d2ulz ; 0x6b0
        0x000061d4:    2410        .$      MOVS     r4,#0x10
        0x000061d6:    e009        ..      B        0x61ec ; _fp_digits + 256
        0x000061d8:    2c00        .,      CMP      r4,#0
        0x000061da:    db0a        ..      BLT      0x61f2 ; _fp_digits + 262
        0x000061dc:    220a        ."      MOVS     r2,#0xa
        0x000061de:    2300        .#      MOVS     r3,#0
        0x000061e0:    f7faf862    ..b.    BL       __aeabi_uldivmod ; 0x2a8
        0x000061e4:    9b07        ..      LDR      r3,[sp,#0x1c]
        0x000061e6:    3230        02      ADDS     r2,r2,#0x30
        0x000061e8:    551a        .U      STRB     r2,[r3,r4]
        0x000061ea:    1e64        d.      SUBS     r4,r4,#1
        0x000061ec:    4602        .F      MOV      r2,r0
        0x000061ee:    430a        .C      ORRS     r2,r2,r1
        0x000061f0:    d1f2        ..      BNE      0x61d8 ; _fp_digits + 236
        0x000061f2:    2211        ."      MOVS     r2,#0x11
        0x000061f4:    1c64        d.      ADDS     r4,r4,#1
        0x000061f6:    9b07        ..      LDR      r3,[sp,#0x1c]
        0x000061f8:    1b12        ..      SUBS     r2,r2,r4
        0x000061fa:    191c        ..      ADDS     r4,r3,r4
        0x000061fc:    9b11        ..      LDR      r3,[sp,#0x44]
        0x000061fe:    2b01        .+      CMP      r3,#1
        0x00006200:    d003        ..      BEQ      0x620a ; _fp_digits + 286
        0x00006202:    2301        .#      MOVS     r3,#1
        0x00006204:    4308        .C      ORRS     r0,r0,r1
        0x00006206:    d10e        ..      BNE      0x6226 ; _fp_digits + 314
        0x00006208:    e00a        ..      B        0x6220 ; _fp_digits + 308
        0x0000620a:    4308        .C      ORRS     r0,r0,r1
        0x0000620c:    d004        ..      BEQ      0x6218 ; _fp_digits + 300
        0x0000620e:    2011        .       MOVS     r0,#0x11
        0x00006210:    9010        ..      STR      r0,[sp,#0x40]
        0x00006212:    2000        .       MOVS     r0,#0
        0x00006214:    9011        ..      STR      r0,[sp,#0x44]
        0x00006216:    e777        w.      B        0x6108 ; _fp_digits + 28
        0x00006218:    9810        ..      LDR      r0,[sp,#0x40]
        0x0000621a:    1a15        ..      SUBS     r5,r2,r0
        0x0000621c:    1e6d        m.      SUBS     r5,r5,#1
        0x0000621e:    e00b        ..      B        0x6238 ; _fp_digits + 332
        0x00006220:    9810        ..      LDR      r0,[sp,#0x40]
        0x00006222:    4282        .B      CMP      r2,r0
        0x00006224:    dd02        ..      BLE      0x622c ; _fp_digits + 320
        0x00006226:    2300        .#      MOVS     r3,#0
        0x00006228:    1c6d        m.      ADDS     r5,r5,#1
        0x0000622a:    e003        ..      B        0x6234 ; _fp_digits + 328
        0x0000622c:    4282        .B      CMP      r2,r0
        0x0000622e:    da01        ..      BGE      0x6234 ; _fp_digits + 328
        0x00006230:    2300        .#      MOVS     r3,#0
        0x00006232:    1e6d        m.      SUBS     r5,r5,#1
        0x00006234:    2b00        .+      CMP      r3,#0
        0x00006236:    d0ee        ..      BEQ      0x6216 ; _fp_digits + 298
        0x00006238:    9806        ..      LDR      r0,[sp,#0x18]
        0x0000623a:    9911        ..      LDR      r1,[sp,#0x44]
        0x0000623c:    6082        .`      STR      r2,[r0,#8]
        0x0000623e:    60c1        .`      STR      r1,[r0,#0xc]
        0x00006240:    c030        0.      STM      r0!,{r4,r5}
        0x00006242:    e77e        ~.      B        0x6142 ; _fp_digits + 86
    $d
        0x00006244:    fffffc01    ....    DCD    4294966273
        0x00006248:    00004d10    .M..    DCD    19728
        0x0000624c:    40140000    ...@    DCD    1075052544
        0x00006250:    3ff00000    ...?    DCD    1072693248
        0x00006254:    00000030    0...    DCD    48
        0x00006258:    43f00000    ...C    DCD    1139802112
        0x0000625c:    3fe00000    ...?    DCD    1071644672
    $t
    i._printf_core
    _printf_core
        0x00006260:    b5ff        ..      PUSH     {r0-r7,lr}
        0x00006262:    b097        ..      SUB      sp,sp,#0x5c
        0x00006264:    4606        .F      MOV      r6,r0
        0x00006266:    2500        .%      MOVS     r5,#0
        0x00006268:    e218        ..      B        0x669c ; _printf_core + 1084
        0x0000626a:    2825        %(      CMP      r0,#0x25
        0x0000626c:    d177        w.      BNE      0x635e ; _printf_core + 254
        0x0000626e:    2400        .$      MOVS     r4,#0
        0x00006270:    4627        'F      MOV      r7,r4
        0x00006272:    49fd        .I      LDR      r1,[pc,#1012] ; [0x6668] = 0x12809
        0x00006274:    9404        ..      STR      r4,[sp,#0x10]
        0x00006276:    e000        ..      B        0x627a ; _printf_core + 26
        0x00006278:    4304        .C      ORRS     r4,r4,r0
        0x0000627a:    1c76        v.      ADDS     r6,r6,#1
        0x0000627c:    7832        2x      LDRB     r2,[r6,#0]
        0x0000627e:    2001        .       MOVS     r0,#1
        0x00006280:    3a20         :      SUBS     r2,r2,#0x20
        0x00006282:    4090        .@      LSLS     r0,r0,r2
        0x00006284:    4208        .B      TST      r0,r1
        0x00006286:    d1f7        ..      BNE      0x6278 ; _printf_core + 24
        0x00006288:    7830        0x      LDRB     r0,[r6,#0]
        0x0000628a:    282a        *(      CMP      r0,#0x2a
        0x0000628c:    d00e        ..      BEQ      0x62ac ; _printf_core + 76
        0x0000628e:    2202        ."      MOVS     r2,#2
        0x00006290:    7830        0x      LDRB     r0,[r6,#0]
        0x00006292:    4601        .F      MOV      r1,r0
        0x00006294:    3930        09      SUBS     r1,r1,#0x30
        0x00006296:    2909        .)      CMP      r1,#9
        0x00006298:    d816        ..      BHI      0x62c8 ; _printf_core + 104
        0x0000629a:    9904        ..      LDR      r1,[sp,#0x10]
        0x0000629c:    230a        .#      MOVS     r3,#0xa
        0x0000629e:    4359        YC      MULS     r1,r3,r1
        0x000062a0:    3930        09      SUBS     r1,r1,#0x30
        0x000062a2:    1840        @.      ADDS     r0,r0,r1
        0x000062a4:    4314        .C      ORRS     r4,r4,r2
        0x000062a6:    1c76        v.      ADDS     r6,r6,#1
        0x000062a8:    9004        ..      STR      r0,[sp,#0x10]
        0x000062aa:    e7f1        ..      B        0x6290 ; _printf_core + 48
        0x000062ac:    9818        ..      LDR      r0,[sp,#0x60]
        0x000062ae:    c802        ..      LDM      r0!,{r1}
        0x000062b0:    9104        ..      STR      r1,[sp,#0x10]
        0x000062b2:    9018        ..      STR      r0,[sp,#0x60]
        0x000062b4:    2900        .)      CMP      r1,#0
        0x000062b6:    da04        ..      BGE      0x62c2 ; _printf_core + 98
        0x000062b8:    2001        .       MOVS     r0,#1
        0x000062ba:    0340        @.      LSLS     r0,r0,#13
        0x000062bc:    4304        .C      ORRS     r4,r4,r0
        0x000062be:    4248        HB      RSBS     r0,r1,#0
        0x000062c0:    9004        ..      STR      r0,[sp,#0x10]
        0x000062c2:    2002        .       MOVS     r0,#2
        0x000062c4:    4304        .C      ORRS     r4,r4,r0
        0x000062c6:    1c76        v.      ADDS     r6,r6,#1
        0x000062c8:    7830        0x      LDRB     r0,[r6,#0]
        0x000062ca:    282e        .(      CMP      r0,#0x2e
        0x000062cc:    d114        ..      BNE      0x62f8 ; _printf_core + 152
        0x000062ce:    2004        .       MOVS     r0,#4
        0x000062d0:    4304        .C      ORRS     r4,r4,r0
        0x000062d2:    7870        px      LDRB     r0,[r6,#1]
        0x000062d4:    1c76        v.      ADDS     r6,r6,#1
        0x000062d6:    282a        *(      CMP      r0,#0x2a
        0x000062d8:    d109        ..      BNE      0x62ee ; _printf_core + 142
        0x000062da:    9818        ..      LDR      r0,[sp,#0x60]
        0x000062dc:    1c76        v.      ADDS     r6,r6,#1
        0x000062de:    c880        ..      LDM      r0!,{r7}
        0x000062e0:    9018        ..      STR      r0,[sp,#0x60]
        0x000062e2:    e009        ..      B        0x62f8 ; _printf_core + 152
        0x000062e4:    210a        .!      MOVS     r1,#0xa
        0x000062e6:    434f        OC      MULS     r7,r1,r7
        0x000062e8:    3f30        0?      SUBS     r7,r7,#0x30
        0x000062ea:    19c7        ..      ADDS     r7,r0,r7
        0x000062ec:    1c76        v.      ADDS     r6,r6,#1
        0x000062ee:    7830        0x      LDRB     r0,[r6,#0]
        0x000062f0:    4601        .F      MOV      r1,r0
        0x000062f2:    3930        09      SUBS     r1,r1,#0x30
        0x000062f4:    2909        .)      CMP      r1,#9
        0x000062f6:    d9f5        ..      BLS      0x62e4 ; _printf_core + 132
        0x000062f8:    7830        0x      LDRB     r0,[r6,#0]
        0x000062fa:    286c        l(      CMP      r0,#0x6c
        0x000062fc:    d010        ..      BEQ      0x6320 ; _printf_core + 192
        0x000062fe:    dc06        ..      BGT      0x630e ; _printf_core + 174
        0x00006300:    284c        L(      CMP      r0,#0x4c
        0x00006302:    d01a        ..      BEQ      0x633a ; _printf_core + 218
        0x00006304:    2868        h(      CMP      r0,#0x68
        0x00006306:    d00e        ..      BEQ      0x6326 ; _printf_core + 198
        0x00006308:    286a        j(      CMP      r0,#0x6a
        0x0000630a:    d117        ..      BNE      0x633c ; _printf_core + 220
        0x0000630c:    e004        ..      B        0x6318 ; _printf_core + 184
        0x0000630e:    2874        t(      CMP      r0,#0x74
        0x00006310:    d013        ..      BEQ      0x633a ; _printf_core + 218
        0x00006312:    287a        z(      CMP      r0,#0x7a
        0x00006314:    d112        ..      BNE      0x633c ; _printf_core + 220
        0x00006316:    e010        ..      B        0x633a ; _printf_core + 218
        0x00006318:    2001        .       MOVS     r0,#1
        0x0000631a:    0540        @.      LSLS     r0,r0,#21
        0x0000631c:    4304        .C      ORRS     r4,r4,r0
        0x0000631e:    e00c        ..      B        0x633a ; _printf_core + 218
        0x00006320:    2101        .!      MOVS     r1,#1
        0x00006322:    0509        ..      LSLS     r1,r1,#20
        0x00006324:    e001        ..      B        0x632a ; _printf_core + 202
        0x00006326:    2103        .!      MOVS     r1,#3
        0x00006328:    0509        ..      LSLS     r1,r1,#20
        0x0000632a:    430c        .C      ORRS     r4,r4,r1
        0x0000632c:    7871        qx      LDRB     r1,[r6,#1]
        0x0000632e:    4281        .B      CMP      r1,r0
        0x00006330:    d103        ..      BNE      0x633a ; _printf_core + 218
        0x00006332:    2001        .       MOVS     r0,#1
        0x00006334:    0500        ..      LSLS     r0,r0,#20
        0x00006336:    1824        $.      ADDS     r4,r4,r0
        0x00006338:    1c76        v.      ADDS     r6,r6,#1
        0x0000633a:    1c76        v.      ADDS     r6,r6,#1
        0x0000633c:    7830        0x      LDRB     r0,[r6,#0]
        0x0000633e:    9011        ..      STR      r0,[sp,#0x44]
        0x00006340:    2866        f(      CMP      r0,#0x66
        0x00006342:    d00b        ..      BEQ      0x635c ; _printf_core + 252
        0x00006344:    dc13        ..      BGT      0x636e ; _printf_core + 270
        0x00006346:    2858        X(      CMP      r0,#0x58
        0x00006348:    d07d        }.      BEQ      0x6446 ; _printf_core + 486
        0x0000634a:    dc09        ..      BGT      0x6360 ; _printf_core + 256
        0x0000634c:    2800        .(      CMP      r0,#0
        0x0000634e:    d07b        {.      BEQ      0x6448 ; _printf_core + 488
        0x00006350:    2845        E(      CMP      r0,#0x45
        0x00006352:    d0f6        ..      BEQ      0x6342 ; _printf_core + 226
        0x00006354:    2846        F(      CMP      r0,#0x46
        0x00006356:    d0f4        ..      BEQ      0x6342 ; _printf_core + 226
        0x00006358:    2847        G(      CMP      r0,#0x47
        0x0000635a:    d11a        ..      BNE      0x6392 ; _printf_core + 306
        0x0000635c:    e1a5        ..      B        0x66aa ; _printf_core + 1098
        0x0000635e:    e018        ..      B        0x6392 ; _printf_core + 306
        0x00006360:    2863        c(      CMP      r0,#0x63
        0x00006362:    d035        5.      BEQ      0x63d0 ; _printf_core + 368
        0x00006364:    2864        d(      CMP      r0,#0x64
        0x00006366:    d070        p.      BEQ      0x644a ; _printf_core + 490
        0x00006368:    2865        e(      CMP      r0,#0x65
        0x0000636a:    d112        ..      BNE      0x6392 ; _printf_core + 306
        0x0000636c:    e19d        ..      B        0x66aa ; _printf_core + 1098
        0x0000636e:    2870        p(      CMP      r0,#0x70
        0x00006370:    d06c        l.      BEQ      0x644c ; _printf_core + 492
        0x00006372:    dc08        ..      BGT      0x6386 ; _printf_core + 294
        0x00006374:    2867        g(      CMP      r0,#0x67
        0x00006376:    d0f1        ..      BEQ      0x635c ; _printf_core + 252
        0x00006378:    2869        i(      CMP      r0,#0x69
        0x0000637a:    d07b        {.      BEQ      0x6474 ; _printf_core + 532
        0x0000637c:    286e        n(      CMP      r0,#0x6e
        0x0000637e:    d00d        ..      BEQ      0x639c ; _printf_core + 316
        0x00006380:    286f        o(      CMP      r0,#0x6f
        0x00006382:    d106        ..      BNE      0x6392 ; _printf_core + 306
        0x00006384:    e0ba        ..      B        0x64fc ; _printf_core + 668
        0x00006386:    2873        s(      CMP      r0,#0x73
        0x00006388:    d02e        ..      BEQ      0x63e8 ; _printf_core + 392
        0x0000638a:    2875        u(      CMP      r0,#0x75
        0x0000638c:    d071        q.      BEQ      0x6472 ; _printf_core + 530
        0x0000638e:    2878        x(      CMP      r0,#0x78
        0x00006390:    d059        Y.      BEQ      0x6446 ; _printf_core + 486
        0x00006392:    9a1a        ..      LDR      r2,[sp,#0x68]
        0x00006394:    9919        ..      LDR      r1,[sp,#0x64]
        0x00006396:    4790        .G      BLX      r2
        0x00006398:    1c6d        m.      ADDS     r5,r5,#1
        0x0000639a:    e17e        ~.      B        0x669a ; _printf_core + 1082
        0x0000639c:    0260        `.      LSLS     r0,r4,#9
        0x0000639e:    0f40        @.      LSRS     r0,r0,#29
        0x000063a0:    2802        .(      CMP      r0,#2
        0x000063a2:    d009        ..      BEQ      0x63b8 ; _printf_core + 344
        0x000063a4:    2803        .(      CMP      r0,#3
        0x000063a6:    d00d        ..      BEQ      0x63c4 ; _printf_core + 356
        0x000063a8:    2804        .(      CMP      r0,#4
        0x000063aa:    9818        ..      LDR      r0,[sp,#0x60]
        0x000063ac:    6801        .h      LDR      r1,[r0,#0]
        0x000063ae:    d00d        ..      BEQ      0x63cc ; _printf_core + 364
        0x000063b0:    600d        .`      STR      r5,[r1,#0]
        0x000063b2:    1d00        ..      ADDS     r0,r0,#4
        0x000063b4:    9018        ..      STR      r0,[sp,#0x60]
        0x000063b6:    e170        p.      B        0x669a ; _printf_core + 1082
        0x000063b8:    9818        ..      LDR      r0,[sp,#0x60]
        0x000063ba:    17ea        ..      ASRS     r2,r5,#31
        0x000063bc:    6801        .h      LDR      r1,[r0,#0]
        0x000063be:    600d        .`      STR      r5,[r1,#0]
        0x000063c0:    604a        J`      STR      r2,[r1,#4]
        0x000063c2:    e7f6        ..      B        0x63b2 ; _printf_core + 338
        0x000063c4:    9818        ..      LDR      r0,[sp,#0x60]
        0x000063c6:    6801        .h      LDR      r1,[r0,#0]
        0x000063c8:    800d        ..      STRH     r5,[r1,#0]
        0x000063ca:    e7f2        ..      B        0x63b2 ; _printf_core + 338
        0x000063cc:    700d        .p      STRB     r5,[r1,#0]
        0x000063ce:    e7f0        ..      B        0x63b2 ; _printf_core + 338
        0x000063d0:    9818        ..      LDR      r0,[sp,#0x60]
        0x000063d2:    466a        jF      MOV      r2,sp
        0x000063d4:    7801        .x      LDRB     r1,[r0,#0]
        0x000063d6:    7211        .r      STRB     r1,[r2,#8]
        0x000063d8:    1d00        ..      ADDS     r0,r0,#4
        0x000063da:    9018        ..      STR      r0,[sp,#0x60]
        0x000063dc:    2000        .       MOVS     r0,#0
        0x000063de:    7250        Pr      STRB     r0,[r2,#9]
        0x000063e0:    a802        ..      ADD      r0,sp,#8
        0x000063e2:    9000        ..      STR      r0,[sp,#0]
        0x000063e4:    2001        .       MOVS     r0,#1
        0x000063e6:    e005        ..      B        0x63f4 ; _printf_core + 404
        0x000063e8:    9818        ..      LDR      r0,[sp,#0x60]
        0x000063ea:    c802        ..      LDM      r0!,{r1}
        0x000063ec:    9018        ..      STR      r0,[sp,#0x60]
        0x000063ee:    2000        .       MOVS     r0,#0
        0x000063f0:    9100        ..      STR      r1,[sp,#0]
        0x000063f2:    43c0        .C      MVNS     r0,r0
        0x000063f4:    0761        a.      LSLS     r1,r4,#29
        0x000063f6:    d50d        ..      BPL      0x6414 ; _printf_core + 436
        0x000063f8:    2100        .!      MOVS     r1,#0
        0x000063fa:    e001        ..      B        0x6400 ; _printf_core + 416
        0x000063fc:    9901        ..      LDR      r1,[sp,#4]
        0x000063fe:    1c49        I.      ADDS     r1,r1,#1
        0x00006400:    9101        ..      STR      r1,[sp,#4]
        0x00006402:    42b9        .B      CMP      r1,r7
        0x00006404:    da12        ..      BGE      0x642c ; _printf_core + 460
        0x00006406:    4281        .B      CMP      r1,r0
        0x00006408:    dbf8        ..      BLT      0x63fc ; _printf_core + 412
        0x0000640a:    9a00        ..      LDR      r2,[sp,#0]
        0x0000640c:    5c51        Q\      LDRB     r1,[r2,r1]
        0x0000640e:    2900        .)      CMP      r1,#0
        0x00006410:    d1f4        ..      BNE      0x63fc ; _printf_core + 412
        0x00006412:    e00b        ..      B        0x642c ; _printf_core + 460
        0x00006414:    2100        .!      MOVS     r1,#0
        0x00006416:    e001        ..      B        0x641c ; _printf_core + 444
        0x00006418:    9901        ..      LDR      r1,[sp,#4]
        0x0000641a:    1c49        I.      ADDS     r1,r1,#1
        0x0000641c:    9101        ..      STR      r1,[sp,#4]
        0x0000641e:    4281        .B      CMP      r1,r0
        0x00006420:    dbfa        ..      BLT      0x6418 ; _printf_core + 440
        0x00006422:    9a01        ..      LDR      r2,[sp,#4]
        0x00006424:    9900        ..      LDR      r1,[sp,#0]
        0x00006426:    5c89        .\      LDRB     r1,[r1,r2]
        0x00006428:    2900        .)      CMP      r1,#0
        0x0000642a:    d1f5        ..      BNE      0x6418 ; _printf_core + 440
        0x0000642c:    9901        ..      LDR      r1,[sp,#4]
        0x0000642e:    9804        ..      LDR      r0,[sp,#0x10]
        0x00006430:    9b1a        ..      LDR      r3,[sp,#0x68]
        0x00006432:    1a47        G.      SUBS     r7,r0,r1
        0x00006434:    4621        !F      MOV      r1,r4
        0x00006436:    4638        8F      MOV      r0,r7
        0x00006438:    9a19        ..      LDR      r2,[sp,#0x64]
        0x0000643a:    f000fa97    ....    BL       _printf_pre_padding ; 0x696c
        0x0000643e:    9901        ..      LDR      r1,[sp,#4]
        0x00006440:    1940        @.      ADDS     r0,r0,r5
        0x00006442:    1845        E.      ADDS     r5,r0,r1
        0x00006444:    e00b        ..      B        0x645e ; _printf_core + 510
        0x00006446:    e04f        O.      B        0x64e8 ; _printf_core + 648
        0x00006448:    e12c        ,.      B        0x66a4 ; _printf_core + 1092
        0x0000644a:    e013        ..      B        0x6474 ; _printf_core + 532
        0x0000644c:    e04e        N.      B        0x64ec ; _printf_core + 652
        0x0000644e:    9800        ..      LDR      r0,[sp,#0]
        0x00006450:    9900        ..      LDR      r1,[sp,#0]
        0x00006452:    7800        .x      LDRB     r0,[r0,#0]
        0x00006454:    1c49        I.      ADDS     r1,r1,#1
        0x00006456:    9100        ..      STR      r1,[sp,#0]
        0x00006458:    9a1a        ..      LDR      r2,[sp,#0x68]
        0x0000645a:    9919        ..      LDR      r1,[sp,#0x64]
        0x0000645c:    4790        .G      BLX      r2
        0x0000645e:    9801        ..      LDR      r0,[sp,#4]
        0x00006460:    1e40        @.      SUBS     r0,r0,#1
        0x00006462:    9001        ..      STR      r0,[sp,#4]
        0x00006464:    1c40        @.      ADDS     r0,r0,#1
        0x00006466:    d1f2        ..      BNE      0x644e ; _printf_core + 494
        0x00006468:    4621        !F      MOV      r1,r4
        0x0000646a:    4638        8F      MOV      r0,r7
        0x0000646c:    9b1a        ..      LDR      r3,[sp,#0x68]
        0x0000646e:    9a19        ..      LDR      r2,[sp,#0x64]
        0x00006470:    e110        ..      B        0x6694 ; _printf_core + 1076
        0x00006472:    e037        7.      B        0x64e4 ; _printf_core + 644
        0x00006474:    200a        .       MOVS     r0,#0xa
        0x00006476:    2100        .!      MOVS     r1,#0
        0x00006478:    9000        ..      STR      r0,[sp,#0]
        0x0000647a:    9101        ..      STR      r1,[sp,#4]
        0x0000647c:    0260        `.      LSLS     r0,r4,#9
        0x0000647e:    0f41        A.      LSRS     r1,r0,#29
        0x00006480:    2902        .)      CMP      r1,#2
        0x00006482:    d007        ..      BEQ      0x6494 ; _printf_core + 564
        0x00006484:    9a18        ..      LDR      r2,[sp,#0x60]
        0x00006486:    ca01        ..      LDM      r2!,{r0}
        0x00006488:    9218        ..      STR      r2,[sp,#0x60]
        0x0000648a:    17c2        ..      ASRS     r2,r0,#31
        0x0000648c:    4694        .F      MOV      r12,r2
        0x0000648e:    2903        .)      CMP      r1,#3
        0x00006490:    d008        ..      BEQ      0x64a4 ; _printf_core + 580
        0x00006492:    e00a        ..      B        0x64aa ; _printf_core + 586
        0x00006494:    9818        ..      LDR      r0,[sp,#0x60]
        0x00006496:    1dc0        ..      ADDS     r0,r0,#7
        0x00006498:    08c1        ..      LSRS     r1,r0,#3
        0x0000649a:    00c9        ..      LSLS     r1,r1,#3
        0x0000649c:    c905        ..      LDM      r1!,{r0,r2}
        0x0000649e:    9118        ..      STR      r1,[sp,#0x60]
        0x000064a0:    4694        .F      MOV      r12,r2
        0x000064a2:    e007        ..      B        0x64b4 ; _printf_core + 596
        0x000064a4:    b200        ..      SXTH     r0,r0
        0x000064a6:    17c2        ..      ASRS     r2,r0,#31
        0x000064a8:    4694        .F      MOV      r12,r2
        0x000064aa:    2904        .)      CMP      r1,#4
        0x000064ac:    d102        ..      BNE      0x64b4 ; _printf_core + 596
        0x000064ae:    b240        @.      SXTB     r0,r0
        0x000064b0:    17c1        ..      ASRS     r1,r0,#31
        0x000064b2:    468c        .F      MOV      r12,r1
        0x000064b4:    2200        ."      MOVS     r2,#0
        0x000064b6:    4661        aF      MOV      r1,r12
        0x000064b8:    4594        .E      CMP      r12,r2
        0x000064ba:    da06        ..      BGE      0x64ca ; _printf_core + 618
        0x000064bc:    460a        .F      MOV      r2,r1
        0x000064be:    2100        .!      MOVS     r1,#0
        0x000064c0:    4240        @B      RSBS     r0,r0,#0
        0x000064c2:    4191        .A      SBCS     r1,r1,r2
        0x000064c4:    468c        .F      MOV      r12,r1
        0x000064c6:    212d        -!      MOVS     r1,#0x2d
        0x000064c8:    e002        ..      B        0x64d0 ; _printf_core + 624
        0x000064ca:    0521        !.      LSLS     r1,r4,#20
        0x000064cc:    d504        ..      BPL      0x64d8 ; _printf_core + 632
        0x000064ce:    212b        +!      MOVS     r1,#0x2b
        0x000064d0:    466a        jF      MOV      r2,sp
        0x000064d2:    7311        .s      STRB     r1,[r2,#0xc]
        0x000064d4:    2101        .!      MOVS     r1,#1
        0x000064d6:    e003        ..      B        0x64e0 ; _printf_core + 640
        0x000064d8:    07e1        ..      LSLS     r1,r4,#31
        0x000064da:    d001        ..      BEQ      0x64e0 ; _printf_core + 640
        0x000064dc:    2120         !      MOVS     r1,#0x20
        0x000064de:    e7f7        ..      B        0x64d0 ; _printf_core + 624
        0x000064e0:    9102        ..      STR      r1,[sp,#8]
        0x000064e2:    e055        U.      B        0x6590 ; _printf_core + 816
        0x000064e4:    200a        .       MOVS     r0,#0xa
        0x000064e6:    e00a        ..      B        0x64fe ; _printf_core + 670
        0x000064e8:    2010        .       MOVS     r0,#0x10
        0x000064ea:    e008        ..      B        0x64fe ; _printf_core + 670
        0x000064ec:    2010        .       MOVS     r0,#0x10
        0x000064ee:    9000        ..      STR      r0,[sp,#0]
        0x000064f0:    2100        .!      MOVS     r1,#0
        0x000064f2:    2004        .       MOVS     r0,#4
        0x000064f4:    4304        .C      ORRS     r4,r4,r0
        0x000064f6:    9101        ..      STR      r1,[sp,#4]
        0x000064f8:    2708        .'      MOVS     r7,#8
        0x000064fa:    e003        ..      B        0x6504 ; _printf_core + 676
        0x000064fc:    2008        .       MOVS     r0,#8
        0x000064fe:    2100        .!      MOVS     r1,#0
        0x00006500:    9101        ..      STR      r1,[sp,#4]
        0x00006502:    9000        ..      STR      r0,[sp,#0]
        0x00006504:    0260        `.      LSLS     r0,r4,#9
        0x00006506:    0f41        A.      LSRS     r1,r0,#29
        0x00006508:    2902        .)      CMP      r1,#2
        0x0000650a:    d007        ..      BEQ      0x651c ; _printf_core + 700
        0x0000650c:    9a18        ..      LDR      r2,[sp,#0x60]
        0x0000650e:    ca01        ..      LDM      r2!,{r0}
        0x00006510:    9218        ..      STR      r2,[sp,#0x60]
        0x00006512:    2200        ."      MOVS     r2,#0
        0x00006514:    4694        .F      MOV      r12,r2
        0x00006516:    2903        .)      CMP      r1,#3
        0x00006518:    d008        ..      BEQ      0x652c ; _printf_core + 716
        0x0000651a:    e008        ..      B        0x652e ; _printf_core + 718
        0x0000651c:    9818        ..      LDR      r0,[sp,#0x60]
        0x0000651e:    1dc0        ..      ADDS     r0,r0,#7
        0x00006520:    08c1        ..      LSRS     r1,r0,#3
        0x00006522:    00c9        ..      LSLS     r1,r1,#3
        0x00006524:    c905        ..      LDM      r1!,{r0,r2}
        0x00006526:    9118        ..      STR      r1,[sp,#0x60]
        0x00006528:    4694        .F      MOV      r12,r2
        0x0000652a:    e003        ..      B        0x6534 ; _printf_core + 724
        0x0000652c:    b280        ..      UXTH     r0,r0
        0x0000652e:    2904        .)      CMP      r1,#4
        0x00006530:    d100        ..      BNE      0x6534 ; _printf_core + 724
        0x00006532:    b2c0        ..      UXTB     r0,r0
        0x00006534:    2100        .!      MOVS     r1,#0
        0x00006536:    9102        ..      STR      r1,[sp,#8]
        0x00006538:    0721        !.      LSLS     r1,r4,#28
        0x0000653a:    d529        ).      BPL      0x6590 ; _printf_core + 816
        0x0000653c:    9911        ..      LDR      r1,[sp,#0x44]
        0x0000653e:    2970        p)      CMP      r1,#0x70
        0x00006540:    d006        ..      BEQ      0x6550 ; _printf_core + 752
        0x00006542:    9a00        ..      LDR      r2,[sp,#0]
        0x00006544:    2110        .!      MOVS     r1,#0x10
        0x00006546:    9b01        ..      LDR      r3,[sp,#4]
        0x00006548:    404a        J@      EORS     r2,r2,r1
        0x0000654a:    431a        .C      ORRS     r2,r2,r3
        0x0000654c:    d005        ..      BEQ      0x655a ; _printf_core + 762
        0x0000654e:    e00e        ..      B        0x656e ; _printf_core + 782
        0x00006550:    2140        @!      MOVS     r1,#0x40
        0x00006552:    466a        jF      MOV      r2,sp
        0x00006554:    7311        .s      STRB     r1,[r2,#0xc]
        0x00006556:    2101        .!      MOVS     r1,#1
        0x00006558:    e008        ..      B        0x656c ; _printf_core + 780
        0x0000655a:    4661        aF      MOV      r1,r12
        0x0000655c:    4301        .C      ORRS     r1,r1,r0
        0x0000655e:    d006        ..      BEQ      0x656e ; _printf_core + 782
        0x00006560:    2130        0!      MOVS     r1,#0x30
        0x00006562:    466a        jF      MOV      r2,sp
        0x00006564:    7311        .s      STRB     r1,[r2,#0xc]
        0x00006566:    9911        ..      LDR      r1,[sp,#0x44]
        0x00006568:    7351        Qs      STRB     r1,[r2,#0xd]
        0x0000656a:    2102        .!      MOVS     r1,#2
        0x0000656c:    9102        ..      STR      r1,[sp,#8]
        0x0000656e:    9a00        ..      LDR      r2,[sp,#0]
        0x00006570:    2108        .!      MOVS     r1,#8
        0x00006572:    9b01        ..      LDR      r3,[sp,#4]
        0x00006574:    404a        J@      EORS     r2,r2,r1
        0x00006576:    431a        .C      ORRS     r2,r2,r3
        0x00006578:    d10a        ..      BNE      0x6590 ; _printf_core + 816
        0x0000657a:    4661        aF      MOV      r1,r12
        0x0000657c:    4301        .C      ORRS     r1,r1,r0
        0x0000657e:    d101        ..      BNE      0x6584 ; _printf_core + 804
        0x00006580:    0761        a.      LSLS     r1,r4,#29
        0x00006582:    d505        ..      BPL      0x6590 ; _printf_core + 816
        0x00006584:    2130        0!      MOVS     r1,#0x30
        0x00006586:    466a        jF      MOV      r2,sp
        0x00006588:    7311        .s      STRB     r1,[r2,#0xc]
        0x0000658a:    2101        .!      MOVS     r1,#1
        0x0000658c:    1e7f        ..      SUBS     r7,r7,#1
        0x0000658e:    9102        ..      STR      r1,[sp,#8]
        0x00006590:    9911        ..      LDR      r1,[sp,#0x44]
        0x00006592:    2958        X)      CMP      r1,#0x58
        0x00006594:    d004        ..      BEQ      0x65a0 ; _printf_core + 832
        0x00006596:    a135        5.      ADR      r1,{pc}+0xd6 ; 0x666c
        0x00006598:    910e        ..      STR      r1,[sp,#0x38]
        0x0000659a:    a90d        ..      ADD      r1,sp,#0x34
        0x0000659c:    910d        ..      STR      r1,[sp,#0x34]
        0x0000659e:    e00d        ..      B        0x65bc ; _printf_core + 860
        0x000065a0:    a137        7.      ADR      r1,{pc}+0xe0 ; 0x6680
        0x000065a2:    e7f9        ..      B        0x6598 ; _printf_core + 824
        0x000065a4:    4661        aF      MOV      r1,r12
        0x000065a6:    9b01        ..      LDR      r3,[sp,#4]
        0x000065a8:    9a00        ..      LDR      r2,[sp,#0]
        0x000065aa:    f7f9fe7d    ..}.    BL       __aeabi_uldivmod ; 0x2a8
        0x000065ae:    9b0e        ..      LDR      r3,[sp,#0x38]
        0x000065b0:    468c        .F      MOV      r12,r1
        0x000065b2:    5c9b        .\      LDRB     r3,[r3,r2]
        0x000065b4:    9a0d        ..      LDR      r2,[sp,#0x34]
        0x000065b6:    1e52        R.      SUBS     r2,r2,#1
        0x000065b8:    920d        ..      STR      r2,[sp,#0x34]
        0x000065ba:    7013        .p      STRB     r3,[r2,#0]
        0x000065bc:    4661        aF      MOV      r1,r12
        0x000065be:    4301        .C      ORRS     r1,r1,r0
        0x000065c0:    d1f0        ..      BNE      0x65a4 ; _printf_core + 836
        0x000065c2:    980d        ..      LDR      r0,[sp,#0x34]
        0x000065c4:    a905        ..      ADD      r1,sp,#0x14
        0x000065c6:    1a08        ..      SUBS     r0,r1,r0
        0x000065c8:    3020         0      ADDS     r0,r0,#0x20
        0x000065ca:    9001        ..      STR      r0,[sp,#4]
        0x000065cc:    0760        `.      LSLS     r0,r4,#29
        0x000065ce:    d503        ..      BPL      0x65d8 ; _printf_core + 888
        0x000065d0:    2001        .       MOVS     r0,#1
        0x000065d2:    0400        ..      LSLS     r0,r0,#16
        0x000065d4:    4384        .C      BICS     r4,r4,r0
        0x000065d6:    e000        ..      B        0x65da ; _printf_core + 890
        0x000065d8:    2701        .'      MOVS     r7,#1
        0x000065da:    9801        ..      LDR      r0,[sp,#4]
        0x000065dc:    4287        .B      CMP      r7,r0
        0x000065de:    dd01        ..      BLE      0x65e4 ; _printf_core + 900
        0x000065e0:    1a38        8.      SUBS     r0,r7,r0
        0x000065e2:    e000        ..      B        0x65e6 ; _printf_core + 902
        0x000065e4:    2000        .       MOVS     r0,#0
        0x000065e6:    9901        ..      LDR      r1,[sp,#4]
        0x000065e8:    9000        ..      STR      r0,[sp,#0]
        0x000065ea:    1841        A.      ADDS     r1,r0,r1
        0x000065ec:    9802        ..      LDR      r0,[sp,#8]
        0x000065ee:    1809        ..      ADDS     r1,r1,r0
        0x000065f0:    9804        ..      LDR      r0,[sp,#0x10]
        0x000065f2:    1a40        @.      SUBS     r0,r0,r1
        0x000065f4:    9004        ..      STR      r0,[sp,#0x10]
        0x000065f6:    03e0        ..      LSLS     r0,r4,#15
        0x000065f8:    d406        ..      BMI      0x6608 ; _printf_core + 936
        0x000065fa:    4621        !F      MOV      r1,r4
        0x000065fc:    9b1a        ..      LDR      r3,[sp,#0x68]
        0x000065fe:    9a19        ..      LDR      r2,[sp,#0x64]
        0x00006600:    9804        ..      LDR      r0,[sp,#0x10]
        0x00006602:    f000f9b3    ....    BL       _printf_pre_padding ; 0x696c
        0x00006606:    1945        E.      ADDS     r5,r0,r5
        0x00006608:    2700        .'      MOVS     r7,#0
        0x0000660a:    e006        ..      B        0x661a ; _printf_core + 954
        0x0000660c:    a803        ..      ADD      r0,sp,#0xc
        0x0000660e:    9a1a        ..      LDR      r2,[sp,#0x68]
        0x00006610:    5dc0        .]      LDRB     r0,[r0,r7]
        0x00006612:    9919        ..      LDR      r1,[sp,#0x64]
        0x00006614:    4790        .G      BLX      r2
        0x00006616:    1c6d        m.      ADDS     r5,r5,#1
        0x00006618:    1c7f        ..      ADDS     r7,r7,#1
        0x0000661a:    9802        ..      LDR      r0,[sp,#8]
        0x0000661c:    4287        .B      CMP      r7,r0
        0x0000661e:    dbf5        ..      BLT      0x660c ; _printf_core + 940
        0x00006620:    03e0        ..      LSLS     r0,r4,#15
        0x00006622:    d50c        ..      BPL      0x663e ; _printf_core + 990
        0x00006624:    4621        !F      MOV      r1,r4
        0x00006626:    9b1a        ..      LDR      r3,[sp,#0x68]
        0x00006628:    9a19        ..      LDR      r2,[sp,#0x64]
        0x0000662a:    9804        ..      LDR      r0,[sp,#0x10]
        0x0000662c:    f000f99e    ....    BL       _printf_pre_padding ; 0x696c
        0x00006630:    1945        E.      ADDS     r5,r0,r5
        0x00006632:    e004        ..      B        0x663e ; _printf_core + 990
        0x00006634:    9a1a        ..      LDR      r2,[sp,#0x68]
        0x00006636:    2030        0       MOVS     r0,#0x30
        0x00006638:    9919        ..      LDR      r1,[sp,#0x64]
        0x0000663a:    4790        .G      BLX      r2
        0x0000663c:    1c6d        m.      ADDS     r5,r5,#1
        0x0000663e:    9900        ..      LDR      r1,[sp,#0]
        0x00006640:    1e48        H.      SUBS     r0,r1,#1
        0x00006642:    9000        ..      STR      r0,[sp,#0]
        0x00006644:    2900        .)      CMP      r1,#0
        0x00006646:    dcf5        ..      BGT      0x6634 ; _printf_core + 980
        0x00006648:    e008        ..      B        0x665c ; _printf_core + 1020
        0x0000664a:    980d        ..      LDR      r0,[sp,#0x34]
        0x0000664c:    990d        ..      LDR      r1,[sp,#0x34]
        0x0000664e:    7800        .x      LDRB     r0,[r0,#0]
        0x00006650:    1c49        I.      ADDS     r1,r1,#1
        0x00006652:    910d        ..      STR      r1,[sp,#0x34]
        0x00006654:    9a1a        ..      LDR      r2,[sp,#0x68]
        0x00006656:    9919        ..      LDR      r1,[sp,#0x64]
        0x00006658:    4790        .G      BLX      r2
        0x0000665a:    1c6d        m.      ADDS     r5,r5,#1
        0x0000665c:    9901        ..      LDR      r1,[sp,#4]
        0x0000665e:    1e48        H.      SUBS     r0,r1,#1
        0x00006660:    9001        ..      STR      r0,[sp,#4]
        0x00006662:    2900        .)      CMP      r1,#0
        0x00006664:    dcf1        ..      BGT      0x664a ; _printf_core + 1002
        0x00006666:    e163        c.      B        0x6930 ; _printf_core + 1744
    $d
        0x00006668:    00012809    .(..    DCD    75785
        0x0000666c:    33323130    0123    DCD    858927408
        0x00006670:    37363534    4567    DCD    926299444
        0x00006674:    62613938    89ab    DCD    1650538808
        0x00006678:    66656463    cdef    DCD    1717920867
        0x0000667c:    00000000    ....    DCD    0
        0x00006680:    33323130    0123    DCD    858927408
        0x00006684:    37363534    4567    DCD    926299444
        0x00006688:    42413938    89AB    DCD    1111570744
        0x0000668c:    46454443    CDEF    DCD    1178944579
        0x00006690:    00000000    ....    DCD    0
    $t
        0x00006694:    f000f95a    ..Z.    BL       _printf_post_padding ; 0x694c
        0x00006698:    1945        E.      ADDS     r5,r0,r5
        0x0000669a:    1c76        v.      ADDS     r6,r6,#1
        0x0000669c:    7830        0x      LDRB     r0,[r6,#0]
        0x0000669e:    2800        .(      CMP      r0,#0
        0x000066a0:    d000        ..      BEQ      0x66a4 ; _printf_core + 1092
        0x000066a2:    e5e2        ..      B        0x626a ; _printf_core + 10
        0x000066a4:    4628        (F      MOV      r0,r5
        0x000066a6:    b01b        ..      ADD      sp,sp,#0x6c
        0x000066a8:    bdf0        ..      POP      {r4-r7,pc}
        0x000066aa:    0760        `.      LSLS     r0,r4,#29
        0x000066ac:    d400        ..      BMI      0x66b0 ; _printf_core + 1104
        0x000066ae:    2706        .'      MOVS     r7,#6
        0x000066b0:    9818        ..      LDR      r0,[sp,#0x60]
        0x000066b2:    1dc0        ..      ADDS     r0,r0,#7
        0x000066b4:    08c1        ..      LSRS     r1,r0,#3
        0x000066b6:    00c9        ..      LSLS     r1,r1,#3
        0x000066b8:    6848        Hh      LDR      r0,[r1,#4]
        0x000066ba:    680a        .h      LDR      r2,[r1,#0]
        0x000066bc:    3108        .1      ADDS     r1,r1,#8
        0x000066be:    0fc3        ..      LSRS     r3,r0,#31
        0x000066c0:    07db        ..      LSLS     r3,r3,#31
        0x000066c2:    9118        ..      STR      r1,[sp,#0x60]
        0x000066c4:    0019        ..      MOVS     r1,r3
        0x000066c6:    d001        ..      BEQ      0x66cc ; _printf_core + 1132
        0x000066c8:    a19c        ..      ADR      r1,{pc}+0x274 ; 0x693c
        0x000066ca:    e008        ..      B        0x66de ; _printf_core + 1150
        0x000066cc:    0521        !.      LSLS     r1,r4,#20
        0x000066ce:    d501        ..      BPL      0x66d4 ; _printf_core + 1140
        0x000066d0:    a19b        ..      ADR      r1,{pc}+0x270 ; 0x6940
        0x000066d2:    e004        ..      B        0x66de ; _printf_core + 1150
        0x000066d4:    07e1        ..      LSLS     r1,r4,#31
        0x000066d6:    d001        ..      BEQ      0x66dc ; _printf_core + 1148
        0x000066d8:    a19a        ..      ADR      r1,{pc}+0x26c ; 0x6944
        0x000066da:    e000        ..      B        0x66de ; _printf_core + 1150
        0x000066dc:    a19a        ..      ADR      r1,{pc}+0x26c ; 0x6948
        0x000066de:    0043        C.      LSLS     r3,r0,#1
        0x000066e0:    9811        ..      LDR      r0,[sp,#0x44]
        0x000066e2:    085b        [.      LSRS     r3,r3,#1
        0x000066e4:    9110        ..      STR      r1,[sp,#0x40]
        0x000066e6:    2865        e(      CMP      r0,#0x65
        0x000066e8:    d00c        ..      BEQ      0x6704 ; _printf_core + 1188
        0x000066ea:    dc06        ..      BGT      0x66fa ; _printf_core + 1178
        0x000066ec:    2845        E(      CMP      r0,#0x45
        0x000066ee:    d009        ..      BEQ      0x6704 ; _printf_core + 1188
        0x000066f0:    2846        F(      CMP      r0,#0x46
        0x000066f2:    d01d        ..      BEQ      0x6730 ; _printf_core + 1232
        0x000066f4:    2847        G(      CMP      r0,#0x47
        0x000066f6:    d141        A.      BNE      0x677c ; _printf_core + 1308
        0x000066f8:    e041        A.      B        0x677e ; _printf_core + 1310
        0x000066fa:    2866        f(      CMP      r0,#0x66
        0x000066fc:    d018        ..      BEQ      0x6730 ; _printf_core + 1232
        0x000066fe:    2867        g(      CMP      r0,#0x67
        0x00006700:    d13c        <.      BNE      0x677c ; _printf_core + 1308
        0x00006702:    e03c        <.      B        0x677e ; _printf_core + 1310
        0x00006704:    2100        .!      MOVS     r1,#0
        0x00006706:    2f11        ./      CMP      r7,#0x11
        0x00006708:    db01        ..      BLT      0x670e ; _printf_core + 1198
        0x0000670a:    2011        .       MOVS     r0,#0x11
        0x0000670c:    e000        ..      B        0x6710 ; _printf_core + 1200
        0x0000670e:    1c78        x.      ADDS     r0,r7,#1
        0x00006710:    9101        ..      STR      r1,[sp,#4]
        0x00006712:    9000        ..      STR      r0,[sp,#0]
        0x00006714:    a908        ..      ADD      r1,sp,#0x20
        0x00006716:    a811        ..      ADD      r0,sp,#0x44
        0x00006718:    f7fffce8    ....    BL       _fp_digits ; 0x60ec
        0x0000671c:    9913        ..      LDR      r1,[sp,#0x4c]
        0x0000671e:    9105        ..      STR      r1,[sp,#0x14]
        0x00006720:    2100        .!      MOVS     r1,#0
        0x00006722:    9a11        ..      LDR      r2,[sp,#0x44]
        0x00006724:    9215        ..      STR      r2,[sp,#0x54]
        0x00006726:    1c7f        ..      ADDS     r7,r7,#1
        0x00006728:    9812        ..      LDR      r0,[sp,#0x48]
        0x0000672a:    9701        ..      STR      r7,[sp,#4]
        0x0000672c:    9100        ..      STR      r1,[sp,#0]
        0x0000672e:    e050        P.      B        0x67d2 ; _printf_core + 1394
        0x00006730:    2001        .       MOVS     r0,#1
        0x00006732:    07c0        ..      LSLS     r0,r0,#31
        0x00006734:    9003        ..      STR      r0,[sp,#0xc]
        0x00006736:    2001        .       MOVS     r0,#1
        0x00006738:    9001        ..      STR      r0,[sp,#4]
        0x0000673a:    a908        ..      ADD      r1,sp,#0x20
        0x0000673c:    9700        ..      STR      r7,[sp,#0]
        0x0000673e:    a811        ..      ADD      r0,sp,#0x44
        0x00006740:    f7fffcd4    ....    BL       _fp_digits ; 0x60ec
        0x00006744:    9a13        ..      LDR      r2,[sp,#0x4c]
        0x00006746:    9914        ..      LDR      r1,[sp,#0x50]
        0x00006748:    9205        ..      STR      r2,[sp,#0x14]
        0x0000674a:    2200        ."      MOVS     r2,#0
        0x0000674c:    9b11        ..      LDR      r3,[sp,#0x44]
        0x0000674e:    9200        ..      STR      r2,[sp,#0]
        0x00006750:    9812        ..      LDR      r0,[sp,#0x48]
        0x00006752:    9315        ..      STR      r3,[sp,#0x54]
        0x00006754:    9a05        ..      LDR      r2,[sp,#0x14]
        0x00006756:    9201        ..      STR      r2,[sp,#4]
        0x00006758:    2900        .)      CMP      r1,#0
        0x0000675a:    d001        ..      BEQ      0x6760 ; _printf_core + 1280
        0x0000675c:    4610        .F      MOV      r0,r2
        0x0000675e:    e002        ..      B        0x6766 ; _printf_core + 1286
        0x00006760:    1c79        y.      ADDS     r1,r7,#1
        0x00006762:    1840        @.      ADDS     r0,r0,r1
        0x00006764:    9001        ..      STR      r0,[sp,#4]
        0x00006766:    1a38        8.      SUBS     r0,r7,r0
        0x00006768:    d501        ..      BPL      0x676e ; _printf_core + 1294
        0x0000676a:    9801        ..      LDR      r0,[sp,#4]
        0x0000676c:    e004        ..      B        0x6778 ; _printf_core + 1304
        0x0000676e:    4240        @B      RSBS     r0,r0,#0
        0x00006770:    1e40        @.      SUBS     r0,r0,#1
        0x00006772:    9000        ..      STR      r0,[sp,#0]
        0x00006774:    1c78        x.      ADDS     r0,r7,#1
        0x00006776:    9001        ..      STR      r0,[sp,#4]
        0x00006778:    1bc0        ..      SUBS     r0,r0,r7
        0x0000677a:    9002        ..      STR      r0,[sp,#8]
        0x0000677c:    e043        C.      B        0x6806 ; _printf_core + 1446
        0x0000677e:    2f01        ./      CMP      r7,#1
        0x00006780:    da00        ..      BGE      0x6784 ; _printf_core + 1316
        0x00006782:    2701        .'      MOVS     r7,#1
        0x00006784:    2100        .!      MOVS     r1,#0
        0x00006786:    2f11        ./      CMP      r7,#0x11
        0x00006788:    dd01        ..      BLE      0x678e ; _printf_core + 1326
        0x0000678a:    2011        .       MOVS     r0,#0x11
        0x0000678c:    e000        ..      B        0x6790 ; _printf_core + 1328
        0x0000678e:    4638        8F      MOV      r0,r7
        0x00006790:    9101        ..      STR      r1,[sp,#4]
        0x00006792:    9000        ..      STR      r0,[sp,#0]
        0x00006794:    a908        ..      ADD      r1,sp,#0x20
        0x00006796:    a811        ..      ADD      r0,sp,#0x44
        0x00006798:    f7fffca8    ....    BL       _fp_digits ; 0x60ec
        0x0000679c:    9913        ..      LDR      r1,[sp,#0x4c]
        0x0000679e:    9105        ..      STR      r1,[sp,#0x14]
        0x000067a0:    9a11        ..      LDR      r2,[sp,#0x44]
        0x000067a2:    2100        .!      MOVS     r1,#0
        0x000067a4:    9812        ..      LDR      r0,[sp,#0x48]
        0x000067a6:    9215        ..      STR      r2,[sp,#0x54]
        0x000067a8:    9100        ..      STR      r1,[sp,#0]
        0x000067aa:    9701        ..      STR      r7,[sp,#4]
        0x000067ac:    0721        !.      LSLS     r1,r4,#28
        0x000067ae:    d40c        ..      BMI      0x67ca ; _printf_core + 1386
        0x000067b0:    9905        ..      LDR      r1,[sp,#0x14]
        0x000067b2:    42b9        .B      CMP      r1,r7
        0x000067b4:    db01        ..      BLT      0x67ba ; _printf_core + 1370
        0x000067b6:    9901        ..      LDR      r1,[sp,#4]
        0x000067b8:    e000        ..      B        0x67bc ; _printf_core + 1372
        0x000067ba:    9101        ..      STR      r1,[sp,#4]
        0x000067bc:    2901        .)      CMP      r1,#1
        0x000067be:    dd04        ..      BLE      0x67ca ; _printf_core + 1386
        0x000067c0:    9a15        ..      LDR      r2,[sp,#0x54]
        0x000067c2:    1e49        I.      SUBS     r1,r1,#1
        0x000067c4:    5c51        Q\      LDRB     r1,[r2,r1]
        0x000067c6:    2930        0)      CMP      r1,#0x30
        0x000067c8:    d006        ..      BEQ      0x67d8 ; _printf_core + 1400
        0x000067ca:    42b8        .B      CMP      r0,r7
        0x000067cc:    da01        ..      BGE      0x67d2 ; _printf_core + 1394
        0x000067ce:    1d01        ..      ADDS     r1,r0,#4
        0x000067d0:    da05        ..      BGE      0x67de ; _printf_core + 1406
        0x000067d2:    2101        .!      MOVS     r1,#1
        0x000067d4:    9102        ..      STR      r1,[sp,#8]
        0x000067d6:    e015        ..      B        0x6804 ; _printf_core + 1444
        0x000067d8:    9901        ..      LDR      r1,[sp,#4]
        0x000067da:    1e49        I.      SUBS     r1,r1,#1
        0x000067dc:    e7ed        ..      B        0x67ba ; _printf_core + 1370
        0x000067de:    2800        .(      CMP      r0,#0
        0x000067e0:    dc05        ..      BGT      0x67ee ; _printf_core + 1422
        0x000067e2:    9900        ..      LDR      r1,[sp,#0]
        0x000067e4:    1841        A.      ADDS     r1,r0,r1
        0x000067e6:    9100        ..      STR      r1,[sp,#0]
        0x000067e8:    9901        ..      LDR      r1,[sp,#4]
        0x000067ea:    1a09        ..      SUBS     r1,r1,r0
        0x000067ec:    e003        ..      B        0x67f6 ; _printf_core + 1430
        0x000067ee:    9a01        ..      LDR      r2,[sp,#4]
        0x000067f0:    1c41        A.      ADDS     r1,r0,#1
        0x000067f2:    4291        .B      CMP      r1,r2
        0x000067f4:    dd00        ..      BLE      0x67f8 ; _printf_core + 1432
        0x000067f6:    9101        ..      STR      r1,[sp,#4]
        0x000067f8:    9900        ..      LDR      r1,[sp,#0]
        0x000067fa:    1a40        @.      SUBS     r0,r0,r1
        0x000067fc:    1c40        @.      ADDS     r0,r0,#1
        0x000067fe:    9002        ..      STR      r0,[sp,#8]
        0x00006800:    2001        .       MOVS     r0,#1
        0x00006802:    07c0        ..      LSLS     r0,r0,#31
        0x00006804:    9003        ..      STR      r0,[sp,#0xc]
        0x00006806:    0720         .      LSLS     r0,r4,#28
        0x00006808:    d406        ..      BMI      0x6818 ; _printf_core + 1464
        0x0000680a:    9902        ..      LDR      r1,[sp,#8]
        0x0000680c:    9801        ..      LDR      r0,[sp,#4]
        0x0000680e:    4281        .B      CMP      r1,r0
        0x00006810:    db02        ..      BLT      0x6818 ; _printf_core + 1464
        0x00006812:    2000        .       MOVS     r0,#0
        0x00006814:    43c0        .C      MVNS     r0,r0
        0x00006816:    9002        ..      STR      r0,[sp,#8]
        0x00006818:    2000        .       MOVS     r0,#0
        0x0000681a:    4669        iF      MOV      r1,sp
        0x0000681c:    77c8        .w      STRB     r0,[r1,#0x1f]
        0x0000681e:    af07        ..      ADD      r7,sp,#0x1c
        0x00006820:    2101        .!      MOVS     r1,#1
        0x00006822:    9803        ..      LDR      r0,[sp,#0xc]
        0x00006824:    3703        .7      ADDS     r7,#3
        0x00006826:    07c9        ..      LSLS     r1,r1,#31
        0x00006828:    4288        .B      CMP      r0,r1
        0x0000682a:    d024        $.      BEQ      0x6876 ; _printf_core + 1558
        0x0000682c:    2002        .       MOVS     r0,#2
        0x0000682e:    9011        ..      STR      r0,[sp,#0x44]
        0x00006830:    202b        +       MOVS     r0,#0x2b
        0x00006832:    9012        ..      STR      r0,[sp,#0x48]
        0x00006834:    9803        ..      LDR      r0,[sp,#0xc]
        0x00006836:    2800        .(      CMP      r0,#0
        0x00006838:    da0c        ..      BGE      0x6854 ; _printf_core + 1524
        0x0000683a:    4240        @B      RSBS     r0,r0,#0
        0x0000683c:    9003        ..      STR      r0,[sp,#0xc]
        0x0000683e:    202d        -       MOVS     r0,#0x2d
        0x00006840:    9012        ..      STR      r0,[sp,#0x48]
        0x00006842:    e007        ..      B        0x6854 ; _printf_core + 1524
        0x00006844:    210a        .!      MOVS     r1,#0xa
        0x00006846:    9803        ..      LDR      r0,[sp,#0xc]
        0x00006848:    f7f9fd0f    ....    BL       __aeabi_uidiv ; 0x26a
        0x0000684c:    3130        01      ADDS     r1,r1,#0x30
        0x0000684e:    1e7f        ..      SUBS     r7,r7,#1
        0x00006850:    9003        ..      STR      r0,[sp,#0xc]
        0x00006852:    7039        9p      STRB     r1,[r7,#0]
        0x00006854:    9911        ..      LDR      r1,[sp,#0x44]
        0x00006856:    1e48        H.      SUBS     r0,r1,#1
        0x00006858:    9011        ..      STR      r0,[sp,#0x44]
        0x0000685a:    2900        .)      CMP      r1,#0
        0x0000685c:    dcf2        ..      BGT      0x6844 ; _printf_core + 1508
        0x0000685e:    9803        ..      LDR      r0,[sp,#0xc]
        0x00006860:    2800        .(      CMP      r0,#0
        0x00006862:    d1ef        ..      BNE      0x6844 ; _printf_core + 1508
        0x00006864:    1e79        y.      SUBS     r1,r7,#1
        0x00006866:    9812        ..      LDR      r0,[sp,#0x48]
        0x00006868:    7008        .p      STRB     r0,[r1,#0]
        0x0000686a:    7830        0x      LDRB     r0,[r6,#0]
        0x0000686c:    2120         !      MOVS     r1,#0x20
        0x0000686e:    4008        .@      ANDS     r0,r0,r1
        0x00006870:    3045        E0      ADDS     r0,r0,#0x45
        0x00006872:    1ebf        ..      SUBS     r7,r7,#2
        0x00006874:    7038        8p      STRB     r0,[r7,#0]
        0x00006876:    a806        ..      ADD      r0,sp,#0x18
        0x00006878:    1bc0        ..      SUBS     r0,r0,r7
        0x0000687a:    1dc0        ..      ADDS     r0,r0,#7
        0x0000687c:    9003        ..      STR      r0,[sp,#0xc]
        0x0000687e:    9810        ..      LDR      r0,[sp,#0x40]
        0x00006880:    7800        .x      LDRB     r0,[r0,#0]
        0x00006882:    2800        .(      CMP      r0,#0
        0x00006884:    d000        ..      BEQ      0x6888 ; _printf_core + 1576
        0x00006886:    2001        .       MOVS     r0,#1
        0x00006888:    9901        ..      LDR      r1,[sp,#4]
        0x0000688a:    1841        A.      ADDS     r1,r0,r1
        0x0000688c:    9802        ..      LDR      r0,[sp,#8]
        0x0000688e:    17c0        ..      ASRS     r0,r0,#31
        0x00006890:    1809        ..      ADDS     r1,r1,r0
        0x00006892:    9803        ..      LDR      r0,[sp,#0xc]
        0x00006894:    1809        ..      ADDS     r1,r1,r0
        0x00006896:    9804        ..      LDR      r0,[sp,#0x10]
        0x00006898:    1a40        @.      SUBS     r0,r0,r1
        0x0000689a:    1e40        @.      SUBS     r0,r0,#1
        0x0000689c:    9004        ..      STR      r0,[sp,#0x10]
        0x0000689e:    03e0        ..      LSLS     r0,r4,#15
        0x000068a0:    d406        ..      BMI      0x68b0 ; _printf_core + 1616
        0x000068a2:    4621        !F      MOV      r1,r4
        0x000068a4:    9b1a        ..      LDR      r3,[sp,#0x68]
        0x000068a6:    9a19        ..      LDR      r2,[sp,#0x64]
        0x000068a8:    9804        ..      LDR      r0,[sp,#0x10]
        0x000068aa:    f000f85f    .._.    BL       _printf_pre_padding ; 0x696c
        0x000068ae:    1945        E.      ADDS     r5,r0,r5
        0x000068b0:    9810        ..      LDR      r0,[sp,#0x40]
        0x000068b2:    7800        .x      LDRB     r0,[r0,#0]
        0x000068b4:    2800        .(      CMP      r0,#0
        0x000068b6:    d003        ..      BEQ      0x68c0 ; _printf_core + 1632
        0x000068b8:    9a1a        ..      LDR      r2,[sp,#0x68]
        0x000068ba:    9919        ..      LDR      r1,[sp,#0x64]
        0x000068bc:    4790        .G      BLX      r2
        0x000068be:    1c6d        m.      ADDS     r5,r5,#1
        0x000068c0:    03e0        ..      LSLS     r0,r4,#15
        0x000068c2:    d524        $.      BPL      0x690e ; _printf_core + 1710
        0x000068c4:    4621        !F      MOV      r1,r4
        0x000068c6:    9b1a        ..      LDR      r3,[sp,#0x68]
        0x000068c8:    9a19        ..      LDR      r2,[sp,#0x64]
        0x000068ca:    9804        ..      LDR      r0,[sp,#0x10]
        0x000068cc:    f000f84e    ..N.    BL       _printf_pre_padding ; 0x696c
        0x000068d0:    1945        E.      ADDS     r5,r0,r5
        0x000068d2:    e01c        ..      B        0x690e ; _printf_core + 1710
        0x000068d4:    9800        ..      LDR      r0,[sp,#0]
        0x000068d6:    2800        .(      CMP      r0,#0
        0x000068d8:    db07        ..      BLT      0x68ea ; _printf_core + 1674
        0x000068da:    9900        ..      LDR      r1,[sp,#0]
        0x000068dc:    9805        ..      LDR      r0,[sp,#0x14]
        0x000068de:    4288        .B      CMP      r0,r1
        0x000068e0:    dd03        ..      BLE      0x68ea ; _printf_core + 1674
        0x000068e2:    9815        ..      LDR      r0,[sp,#0x54]
        0x000068e4:    5c40        @\      LDRB     r0,[r0,r1]
        0x000068e6:    9919        ..      LDR      r1,[sp,#0x64]
        0x000068e8:    e001        ..      B        0x68ee ; _printf_core + 1678
        0x000068ea:    9919        ..      LDR      r1,[sp,#0x64]
        0x000068ec:    2030        0       MOVS     r0,#0x30
        0x000068ee:    9a1a        ..      LDR      r2,[sp,#0x68]
        0x000068f0:    4790        .G      BLX      r2
        0x000068f2:    9800        ..      LDR      r0,[sp,#0]
        0x000068f4:    1c6d        m.      ADDS     r5,r5,#1
        0x000068f6:    1c40        @.      ADDS     r0,r0,#1
        0x000068f8:    9000        ..      STR      r0,[sp,#0]
        0x000068fa:    9802        ..      LDR      r0,[sp,#8]
        0x000068fc:    1e40        @.      SUBS     r0,r0,#1
        0x000068fe:    9002        ..      STR      r0,[sp,#8]
        0x00006900:    2800        .(      CMP      r0,#0
        0x00006902:    d104        ..      BNE      0x690e ; _printf_core + 1710
        0x00006904:    9a1a        ..      LDR      r2,[sp,#0x68]
        0x00006906:    202e        .       MOVS     r0,#0x2e
        0x00006908:    9919        ..      LDR      r1,[sp,#0x64]
        0x0000690a:    4790        .G      BLX      r2
        0x0000690c:    1c6d        m.      ADDS     r5,r5,#1
        0x0000690e:    9901        ..      LDR      r1,[sp,#4]
        0x00006910:    1e48        H.      SUBS     r0,r1,#1
        0x00006912:    9001        ..      STR      r0,[sp,#4]
        0x00006914:    2900        .)      CMP      r1,#0
        0x00006916:    dcdd        ..      BGT      0x68d4 ; _printf_core + 1652
        0x00006918:    e005        ..      B        0x6926 ; _printf_core + 1734
        0x0000691a:    7838        8x      LDRB     r0,[r7,#0]
        0x0000691c:    9a1a        ..      LDR      r2,[sp,#0x68]
        0x0000691e:    1c7f        ..      ADDS     r7,r7,#1
        0x00006920:    9919        ..      LDR      r1,[sp,#0x64]
        0x00006922:    4790        .G      BLX      r2
        0x00006924:    1c6d        m.      ADDS     r5,r5,#1
        0x00006926:    9903        ..      LDR      r1,[sp,#0xc]
        0x00006928:    1e48        H.      SUBS     r0,r1,#1
        0x0000692a:    9003        ..      STR      r0,[sp,#0xc]
        0x0000692c:    2900        .)      CMP      r1,#0
        0x0000692e:    dcf4        ..      BGT      0x691a ; _printf_core + 1722
        0x00006930:    4621        !F      MOV      r1,r4
        0x00006932:    9b1a        ..      LDR      r3,[sp,#0x68]
        0x00006934:    9a19        ..      LDR      r2,[sp,#0x64]
        0x00006936:    9804        ..      LDR      r0,[sp,#0x10]
        0x00006938:    e6ac        ..      B        0x6694 ; _printf_core + 1076
    $d
        0x0000693a:    0000        ..      DCW    0
        0x0000693c:    0000002d    -...    DCD    45
        0x00006940:    0000002b    +...    DCD    43
        0x00006944:    00000020     ...    DCD    32
        0x00006948:    00000000    ....    DCD    0
    $t
    i._printf_post_padding
    _printf_post_padding
        0x0000694c:    b5f8        ..      PUSH     {r3-r7,lr}
        0x0000694e:    4604        .F      MOV      r4,r0
        0x00006950:    2500        .%      MOVS     r5,#0
        0x00006952:    461e        .F      MOV      r6,r3
        0x00006954:    4617        .F      MOV      r7,r2
        0x00006956:    0488        ..      LSLS     r0,r1,#18
        0x00006958:    d404        ..      BMI      0x6964 ; _printf_post_padding + 24
        0x0000695a:    e005        ..      B        0x6968 ; _printf_post_padding + 28
        0x0000695c:    4639        9F      MOV      r1,r7
        0x0000695e:    2020                MOVS     r0,#0x20
        0x00006960:    47b0        .G      BLX      r6
        0x00006962:    1c6d        m.      ADDS     r5,r5,#1
        0x00006964:    1e64        d.      SUBS     r4,r4,#1
        0x00006966:    d5f9        ..      BPL      0x695c ; _printf_post_padding + 16
        0x00006968:    4628        (F      MOV      r0,r5
        0x0000696a:    bdf8        ..      POP      {r3-r7,pc}
    i._printf_pre_padding
    _printf_pre_padding
        0x0000696c:    b5ff        ..      PUSH     {r0-r7,lr}
        0x0000696e:    4604        .F      MOV      r4,r0
        0x00006970:    2500        .%      MOVS     r5,#0
        0x00006972:    b081        ..      SUB      sp,sp,#4
        0x00006974:    461e        .F      MOV      r6,r3
        0x00006976:    03c8        ..      LSLS     r0,r1,#15
        0x00006978:    d501        ..      BPL      0x697e ; _printf_pre_padding + 18
        0x0000697a:    2730        0'      MOVS     r7,#0x30
        0x0000697c:    e000        ..      B        0x6980 ; _printf_pre_padding + 20
        0x0000697e:    2720         '      MOVS     r7,#0x20
        0x00006980:    0488        ..      LSLS     r0,r1,#18
        0x00006982:    d504        ..      BPL      0x698e ; _printf_pre_padding + 34
        0x00006984:    e005        ..      B        0x6992 ; _printf_pre_padding + 38
        0x00006986:    4638        8F      MOV      r0,r7
        0x00006988:    9903        ..      LDR      r1,[sp,#0xc]
        0x0000698a:    47b0        .G      BLX      r6
        0x0000698c:    1c6d        m.      ADDS     r5,r5,#1
        0x0000698e:    1e64        d.      SUBS     r4,r4,#1
        0x00006990:    d5f9        ..      BPL      0x6986 ; _printf_pre_padding + 26
        0x00006992:    4628        (F      MOV      r0,r5
        0x00006994:    b005        ..      ADD      sp,sp,#0x14
        0x00006996:    bdf0        ..      POP      {r4-r7,pc}
    $d.realdata
    auchCRCHi
        0x00006998:    4081c100    ...@    DCD    1082245376
        0x0000699c:    4180c001    ...A    DCD    1098956801
        0x000069a0:    4180c001    ...A    DCD    1098956801
        0x000069a4:    4081c100    ...@    DCD    1082245376
        0x000069a8:    4180c001    ...A    DCD    1098956801
        0x000069ac:    4081c100    ...@    DCD    1082245376
        0x000069b0:    4081c100    ...@    DCD    1082245376
        0x000069b4:    4180c001    ...A    DCD    1098956801
        0x000069b8:    4180c001    ...A    DCD    1098956801
        0x000069bc:    4081c100    ...@    DCD    1082245376
        0x000069c0:    4081c100    ...@    DCD    1082245376
        0x000069c4:    4180c001    ...A    DCD    1098956801
        0x000069c8:    4081c100    ...@    DCD    1082245376
        0x000069cc:    4180c001    ...A    DCD    1098956801
        0x000069d0:    4180c001    ...A    DCD    1098956801
        0x000069d4:    4081c100    ...@    DCD    1082245376
        0x000069d8:    4180c001    ...A    DCD    1098956801
        0x000069dc:    4081c100    ...@    DCD    1082245376
        0x000069e0:    4081c100    ...@    DCD    1082245376
        0x000069e4:    4180c001    ...A    DCD    1098956801
        0x000069e8:    4081c100    ...@    DCD    1082245376
        0x000069ec:    4180c001    ...A    DCD    1098956801
        0x000069f0:    4180c001    ...A    DCD    1098956801
        0x000069f4:    4081c100    ...@    DCD    1082245376
        0x000069f8:    4081c100    ...@    DCD    1082245376
        0x000069fc:    4180c001    ...A    DCD    1098956801
        0x00006a00:    4180c001    ...A    DCD    1098956801
        0x00006a04:    4081c100    ...@    DCD    1082245376
        0x00006a08:    4180c001    ...A    DCD    1098956801
        0x00006a0c:    4081c100    ...@    DCD    1082245376
        0x00006a10:    4081c100    ...@    DCD    1082245376
        0x00006a14:    4180c001    ...A    DCD    1098956801
        0x00006a18:    4180c001    ...A    DCD    1098956801
        0x00006a1c:    4081c100    ...@    DCD    1082245376
        0x00006a20:    4081c100    ...@    DCD    1082245376
        0x00006a24:    4180c001    ...A    DCD    1098956801
        0x00006a28:    4081c100    ...@    DCD    1082245376
        0x00006a2c:    4180c001    ...A    DCD    1098956801
        0x00006a30:    4180c001    ...A    DCD    1098956801
        0x00006a34:    4081c100    ...@    DCD    1082245376
        0x00006a38:    4081c100    ...@    DCD    1082245376
        0x00006a3c:    4180c001    ...A    DCD    1098956801
        0x00006a40:    4180c001    ...A    DCD    1098956801
        0x00006a44:    4081c100    ...@    DCD    1082245376
        0x00006a48:    4180c001    ...A    DCD    1098956801
        0x00006a4c:    4081c100    ...@    DCD    1082245376
        0x00006a50:    4081c100    ...@    DCD    1082245376
        0x00006a54:    4180c001    ...A    DCD    1098956801
        0x00006a58:    4081c100    ...@    DCD    1082245376
        0x00006a5c:    4180c001    ...A    DCD    1098956801
        0x00006a60:    4180c001    ...A    DCD    1098956801
        0x00006a64:    4081c100    ...@    DCD    1082245376
        0x00006a68:    4180c001    ...A    DCD    1098956801
        0x00006a6c:    4081c100    ...@    DCD    1082245376
        0x00006a70:    4081c100    ...@    DCD    1082245376
        0x00006a74:    4180c001    ...A    DCD    1098956801
        0x00006a78:    4180c001    ...A    DCD    1098956801
        0x00006a7c:    4081c100    ...@    DCD    1082245376
        0x00006a80:    4081c100    ...@    DCD    1082245376
        0x00006a84:    4180c001    ...A    DCD    1098956801
        0x00006a88:    4081c100    ...@    DCD    1082245376
        0x00006a8c:    4180c001    ...A    DCD    1098956801
        0x00006a90:    4180c001    ...A    DCD    1098956801
        0x00006a94:    4081c100    ...@    DCD    1082245376
    auchCRCLo
        0x00006a98:    01c1c000    ....    DCD    29474816
        0x00006a9c:    c20203c3    ....    DCD    3254911939
        0x00006aa0:    c70706c6    ....    DCD    3339126470
        0x00006aa4:    04c4c505    ....    DCD    80004357
        0x00006aa8:    cd0d0ccc    ....    DCD    3440184524
        0x00006aac:    0ececf0f    ....    DCD    248434447
        0x00006ab0:    0bcbca0a    ....    DCD    197904906
        0x00006ab4:    c80809c9    ....    DCD    3355969993
        0x00006ab8:    d91918d8    ....    DCD    3642300632
        0x00006abc:    1adadb1b    ....    DCD    450550555
        0x00006ac0:    1fdfde1e    ....    DCD    534765086
        0x00006ac4:    dc1c1ddd    ....    DCD    3692830173
        0x00006ac8:    15d5d414    ....    DCD    366334996
        0x00006acc:    d61617d7    ....    DCD    3591772119
        0x00006ad0:    d31312d2    ....    DCD    3541242578
        0x00006ad4:    10d0d111    ....    DCD    282120465
        0x00006ad8:    f13130f0    .01.    DCD    4046532848
        0x00006adc:    32f2f333    3..2    DCD    854782771
        0x00006ae0:    37f7f636    6..7    DCD    938997302
        0x00006ae4:    f43435f5    .54.    DCD    4097062389
        0x00006ae8:    3dfdfc3c    <..=    DCD    1040055356
        0x00006aec:    fe3e3fff    .?>.    DCD    4265492479
        0x00006af0:    fb3b3afa    .:;.    DCD    4214962938
        0x00006af4:    38f8f939    9..8    DCD    955840825
        0x00006af8:    29e9e828    (..)    DCD    703195176
        0x00006afc:    ea2a2beb    .+*.    DCD    3928632299
        0x00006b00:    ef2f2eee    ../.    DCD    4012846830
        0x00006b04:    2ceced2d    -..,    DCD    753724717
        0x00006b08:    e52524e4    .$%.    DCD    3844416740
        0x00006b0c:    26e6e727    '..&    DCD    652666663
        0x00006b10:    23e3e222    "..#    DCD    602137122
        0x00006b14:    e02021e1    .! .    DCD    3760202209
        0x00006b18:    a16160a0    .`a.    DCD    2707513504
        0x00006b1c:    62a2a363    c..b    DCD    1654825827
        0x00006b20:    67a7a666    f..g    DCD    1739040358
        0x00006b24:    a46465a5    .ed.    DCD    2758043045
        0x00006b28:    6dadac6c    l..m    DCD    1840098412
        0x00006b2c:    ae6e6faf    .on.    DCD    2926473135
        0x00006b30:    ab6b6aaa    .jk.    DCD    2875943594
        0x00006b34:    68a8a969    i..h    DCD    1755883881
        0x00006b38:    79b9b878    x..y    DCD    2042214520
        0x00006b3c:    ba7a7bbb    .{z.    DCD    3128589243
        0x00006b40:    bf7f7ebe    .~..    DCD    3212803774
        0x00006b44:    7cbcbd7d    }..|    DCD    2092744061
        0x00006b48:    b57574b4    .tu.    DCD    3044373684
        0x00006b4c:    76b6b777    w..v    DCD    1991686007
        0x00006b50:    73b3b272    r..s    DCD    1941156466
        0x00006b54:    b07071b1    .qp.    DCD    2960159153
        0x00006b58:    51919050    P..Q    DCD    1368494160
        0x00006b5c:    92525393    .SR.    DCD    2454868883
        0x00006b60:    97575696    .VW.    DCD    2539083414
        0x00006b64:    54949555    U..T    DCD    1419023701
        0x00006b68:    9d5d5c9c    .\].    DCD    2640141468
        0x00006b6c:    5e9e9f5f    _..^    DCD    1587453791
        0x00006b70:    5b9b9a5a    Z..[    DCD    1536924250
        0x00006b74:    98585999    .YX.    DCD    2555926937
        0x00006b78:    89494888    .HI.    DCD    2303281288
        0x00006b7c:    4a8a8b4b    K..J    DCD    1250593611
        0x00006b80:    4f8f8e4e    N..O    DCD    1334808142
        0x00006b84:    8c4c4d8d    .ML.    DCD    2353810829
        0x00006b88:    45858444    D..E    DCD    1166378052
        0x00006b8c:    86464787    .GF.    DCD    2252752775
        0x00006b90:    83434282    .BC.    DCD    2202223234
        0x00006b94:    40808141    A..@    DCD    1082163521
    gau32ClkSrcTbl
        0x00006b98:    00b71b00    ....    DCD    12000000
        0x00006b9c:    00008000    ....    DCD    32768
        0x00006ba0:    0448e000    ..H.    DCD    71884800
        0x00006ba4:    00002710    .'..    DCD    10000
        0x00006ba8:    02dc6c00    .l..    DCD    48000000
        0x00006bac:    00000000    ....    DCD    0
        0x00006bb0:    00000000    ....    DCD    0
        0x00006bb4:    01518000    ..Q.    DCD    22118400
        0x00006bb8:    61482020      Ha    DCD    1632116768
        0x00006bbc:    61466472    rdFa    DCD    1632003186
        0x00006bc0:    21746c75    ult!    DCD    561278069
        0x00006bc4:    00000a0a    ....    DCD    2570
    Region$$Table$$Base
        0x00006bc8:    00006be8    .k..    DCD    27624
        0x00006bcc:    20000000    ...     DCD    536870912
        0x00006bd0:    00000010    ....    DCD    16
        0x00006bd4:    000060ce    .`..    DCD    24782
        0x00006bd8:    00006bf8    .k..    DCD    27640
        0x00006bdc:    20000010    ...     DCD    536870928
        0x00006be0:    00001538    8...    DCD    5432
        0x00006be4:    000060de    .`..    DCD    24798
    Region$$Table$$Limit

** Section #2 'RW_IRAM1' (SHT_PROGBITS) [SHF_ALLOC + SHF_WRITE]
    Size   : 16 bytes (alignment 8)
    Address: 0x20000000


** Section #3 'RW_IRAM1' (SHT_NOBITS) [SHF_ALLOC + SHF_WRITE]
    Size   : 5432 bytes (alignment 8)
    Address: 0x20000010


** Section #4 '.debug_abbrev' (SHT_PROGBITS)
    Size   : 4891 bytes


** Section #5 '.debug_frame' (SHT_PROGBITS)
    Size   : 6712 bytes


** Section #6 '.debug_info' (SHT_PROGBITS)
    Size   : 28958 bytes


** Section #7 '.debug_line' (SHT_PROGBITS)
    Size   : 28535 bytes


** Section #8 '.debug_ranges' (SHT_PROGBITS)
    Size   : 1984 bytes


** Section #9 '.debug_str' (SHT_PROGBITS)
    Size   : 24681 bytes


** Section #10 '.symtab' (SHT_SYMTAB)
    Size   : 19648 bytes (alignment 4)
    String table #11 '.strtab'
    Last local symbol no. 878


** Section #11 '.strtab' (SHT_STRTAB)
    Size   : 11368 bytes


** Section #12 '.note' (SHT_NOTE)
    Size   : 28 bytes (alignment 4)


** Section #13 '.comment' (SHT_PROGBITS)
    Size   : 1776 bytes


** Section #14 '.shstrtab' (SHT_STRTAB)
    Size   : 136 bytes


